
CH32H417_TFLM_V3F.elf:     file format elf32-littleriscv
CH32H417_TFLM_V3F.elf
architecture: riscv:rv32, flags 0x00000112:
EXEC_P, HAS_SYMS, D_PAGED
start address 0x00000000

Program Header:
0x70000003 off    0x00050d16 vaddr 0x00000000 paddr 0x00000000 align 2**0
         filesz 0x00000056 memsz 0x00000000 flags r--
    LOAD off    0x00001000 vaddr 0x00000000 paddr 0x00000000 align 2**12
         filesz 0x00000008 memsz 0x00000008 flags r-x
    LOAD off    0x00002000 vaddr 0x20130000 paddr 0x00000008 align 2**12
         filesz 0x000000ec memsz 0x000000ec flags r-x
    LOAD off    0x00003000 vaddr 0x20100000 paddr 0x000000f4 align 2**12
         filesz 0x000062c0 memsz 0x000062c0 flags r-x
    LOAD off    0x000093b4 vaddr 0x000063b4 paddr 0x000063b4 align 2**12
         filesz 0x00000084 memsz 0x00000084 flags r-x
    LOAD off    0x0000a100 vaddr 0x20130100 paddr 0x00006438 align 2**12
         filesz 0x000017d4 memsz 0x000017d4 flags rw-
    LOAD off    0x0000b8e0 vaddr 0x201318e0 paddr 0x00007c0c align 2**12
         filesz 0x00014000 memsz 0x0002650c flags rw-
    LOAD off    0x00000800 vaddr 0x2017f800 paddr 0x2017f800 align 2**12
         filesz 0x00000000 memsz 0x00000800 flags rw-

Sections:
Idx Name          Size      VMA       LMA       File off  Algn
  0 .init         00000008  00000000  00000000  00001000  2**2
                  CONTENTS, ALLOC, LOAD, READONLY, CODE
  1 .loadcodelalign 00000000  00000008  00000008  0001f8e0  2**0
                  CONTENTS
  2 .loadcode     000000ec  20130000  00000008  00002000  2**1
                  CONTENTS, ALLOC, LOAD, READONLY, CODE
  3 .highcodelalign 00000000  000000f4  000000f4  0001f8e0  2**0
                  CONTENTS
  4 .highcode     000062c0  20100000  000000f4  00003000  2**2
                  CONTENTS, ALLOC, LOAD, READONLY, CODE
  5 .text         00000084  000063b4  000063b4  000093b4  2**1
                  CONTENTS, ALLOC, LOAD, READONLY, CODE
  6 .highcodelalign1 00000000  00006438  00006438  0001f8e0  2**0
                  CONTENTS
  7 .fini         00000000  201062c0  201062c0  0001f8e0  2**0
                  CONTENTS, ALLOC, LOAD, CODE
  8 .dtors        00000000  201062c0  201062c0  0001f8e0  2**0
                  CONTENTS
  9 .dalign       00000000  20130100  20130100  0001f8e0  2**0
                  CONTENTS
 10 .dlalign      00000000  00006438  00006438  0001f8e0  2**0
                  CONTENTS
 11 .data         000017d4  20130100  00006438  0000a100  2**3
                  CONTENTS, ALLOC, LOAD, DATA
 12 .DMADATA      00014000  201318e0  00007c0c  0000b8e0  2**5
                  CONTENTS, ALLOC, LOAD, DATA
 13 .bss          0001250c  201458e0  0001bc0c  0001f8e0  2**2
                  ALLOC
 14 .stack        00000800  2017f800  2017f800  00020800  2**0
                  ALLOC
 15 .debug_info   00011e33  00000000  00000000  0001f8e0  2**0
                  CONTENTS, READONLY, DEBUGGING, OCTETS
 16 .debug_abbrev 000037e5  00000000  00000000  00031713  2**0
                  CONTENTS, READONLY, DEBUGGING, OCTETS
 17 .debug_aranges 00000f80  00000000  00000000  00034ef8  2**3
                  CONTENTS, READONLY, DEBUGGING, OCTETS
 18 .debug_rnglists 0000119f  00000000  00000000  00035e78  2**0
                  CONTENTS, READONLY, DEBUGGING, OCTETS
 19 .debug_line   00014079  00000000  00000000  00037017  2**0
                  CONTENTS, READONLY, DEBUGGING, OCTETS
 20 .debug_str    00005141  00000000  00000000  0004b090  2**0
                  CONTENTS, READONLY, DEBUGGING, OCTETS
 21 .debug_line_str 00000b14  00000000  00000000  000501d1  2**0
                  CONTENTS, READONLY, DEBUGGING, OCTETS
 22 .comment      00000031  00000000  00000000  00050ce5  2**0
                  CONTENTS, READONLY
 23 .riscv.attributes 00000056  00000000  00000000  00050d16  2**0
                  CONTENTS, READONLY
 24 .debug_frame  00002178  00000000  00000000  00050d6c  2**2
                  CONTENTS, READONLY, DEBUGGING, OCTETS
 25 .debug_loclists 00005534  00000000  00000000  00052ee4  2**0
                  CONTENTS, READONLY, DEBUGGING, OCTETS
SYMBOL TABLE:
00000000 l    d  .init	00000000 .init
00000008 l    d  .loadcodelalign	00000000 .loadcodelalign
20130000 l    d  .loadcode	00000000 .loadcode
000000f4 l    d  .highcodelalign	00000000 .highcodelalign
20100000 l    d  .highcode	00000000 .highcode
000063b4 l    d  .text	00000000 .text
00006438 l    d  .highcodelalign1	00000000 .highcodelalign1
201062c0 l    d  .fini	00000000 .fini
201062c0 l    d  .dtors	00000000 .dtors
20130100 l    d  .dalign	00000000 .dalign
00006438 l    d  .dlalign	00000000 .dlalign
20130100 l    d  .data	00000000 .data
201318e0 l    d  .DMADATA	00000000 .DMADATA
201458e0 l    d  .bss	00000000 .bss
2017f800 l    d  .stack	00000000 .stack
00000000 l    d  .debug_info	00000000 .debug_info
00000000 l    d  .debug_abbrev	00000000 .debug_abbrev
00000000 l    d  .debug_aranges	00000000 .debug_aranges
00000000 l    d  .debug_rnglists	00000000 .debug_rnglists
00000000 l    d  .debug_line	00000000 .debug_line
00000000 l    d  .debug_str	00000000 .debug_str
00000000 l    d  .debug_line_str	00000000 .debug_line_str
00000000 l    d  .comment	00000000 .comment
00000000 l    d  .riscv.attributes	00000000 .riscv.attributes
00000000 l    d  .debug_frame	00000000 .debug_frame
00000000 l    d  .debug_loclists	00000000 .debug_loclists
00000000 l    df *ABS*	00000000 startup_ch32h417_v3f.o
20100000 l       .highcode	00000000 _vector_base
20130000 l       .loadcode	00000000 _load_base
00006426 l       .text	00000000 BP
00000000 l    df *ABS*	00000000 save-restore.o
00000000 l    df *ABS*	00000000 lib_a-memcpy-asm.o
00000000 l    df *ABS*	00000000 lib_a-memset.o
00000000 l    df *ABS*	00000000 ch32h417_it.c
00000000 l    df *ABS*	00000000 main.c
201458e0 l     O .bss	00000004 gesture_counter.0
00000000 l    df *ABS*	00000000 system_ch32h417.c
20130120 l     O .data	00000020 PLLMULTB
20130110 l     O .data	00000010 HBPrescTB
20131890 l     O .data	00000004 FPRETB
20130100 l     O .data	00000010 SERDESPLLMULTB
00000000 l    df *ABS*	00000000 ch32h417_flash.c
00000000 l    df *ABS*	00000000 ch32h417_gpio.c
00000000 l    df *ABS*	00000000 ch32h417_hsem.c
00000000 l    df *ABS*	00000000 ch32h417_pwr.c
00000000 l    df *ABS*	00000000 ch32h417_rcc.c
20130160 l     O .data	00000020 PLLMULTable
20130150 l     O .data	00000010 HBPrescTable
201318a8 l     O .data	00000004 FPRETable
20130140 l     O .data	00000010 SERDESPLLMULTable
201318a0 l     O .data	00000008 PPRE2Table
2013189c l     O .data	00000004 ADCPRETable
00000000 l    df *ABS*	00000000 ch32h417_swpmi.c
00000000 l    df *ABS*	00000000 ch32h417_tim.c
00000000 l    df *ABS*	00000000 ch32h417_usart.c
00000000 l    df *ABS*	00000000 debug.c
201458f0 l     O .bss	00000002 p_us
201458ec l     O .bss	00000004 p_ms
201318ac l     O .data	00000004 curbrk.0
00000000 l    df *ABS*	00000000 uvc.c
2014592c l     O .bss	00000004 Dvp_Class
2014591c l     O .bss	00000004 UVC_DvpStart
20145928 l     O .bss	00000004 Dvp_Addrcount
20145924 l     O .bss	00000004 Dvp_Start
20145920 l     O .bss	00000004 Dvp_End
20145918 l     O .bss	00000004 Dvp_Reclength
20145914 l     O .bss	00000004 DVP_Recaddpoint
20145910 l     O .bss	00000001 USB_Uploadflg
2014590c l     O .bss	00000004 USB_MframeUploadLength
20145904 l     O .bss	00000004 USB_Uploadcount
20145900 l     O .bss	00000004 USB_Uploadpoint
201318b4 l     O .data	00000004 USBUploadaddr
20145908 l     O .bss	00000004 USB_LastMframeUploadLength
201458f8 l     O .bss	00000001 togGG.0
00000000 l    df *ABS*	00000000 uvcclassdes.c
00000000 l    df *ABS*	00000000 dvp.c
00000000 l    df *ABS*	00000000 ov2640.c
00000000 l    df *ABS*	00000000 ch32h417_usbhs_device.c
2010259e l     F .highcode	00000058 USBHS_RCC_Init.part.0
20145931 l     O .bss	00000001 format.1
20145930 l     O .bss	00000001 frame.0
00000000 l    df *ABS*	00000000 ch32h417_usbss_device.c
201030a8 l     F .highcode	00000034 USB_Timer_Start.part.0
201030dc l     F .highcode	0000001c USBSS_PLL_Init.part.0
201030f8 l     F .highcode	00000032 USBSS_RCC_Init.part.0
20145949 l     O .bss	00000001 link_low_power.0
2014594a l     O .bss	00000001 u3_first_count.1
00000000 l    df *ABS*	00000000 ch32h417_usbss_it.c
20145952 l     O .bss	00000001 format.1
20145951 l     O .bss	00000001 frame.0
00000000 l    df *ABS*	00000000 hardware.c
00000000 l    df *ABS*	00000000 _udivdi3.o
00000000 l    df *ABS*	00000000 lib_a-printf.o
00000000 l    df *ABS*	00000000 lib_a-puts.o
00000000 l    df *ABS*	00000000 lib_a-wbuf.o
00000000 l    df *ABS*	00000000 lib_a-wsetup.o
00000000 l    df *ABS*	00000000 lib_a-fflush.o
00000000 l    df *ABS*	00000000 lib_a-findfp.o
20104738 l     F .highcode	00000066 std
00000000 l    df *ABS*	00000000 lib_a-fwalk.o
00000000 l    df *ABS*	00000000 lib_a-lock.o
00000000 l    df *ABS*	00000000 lib_a-makebuf.o
00000000 l    df *ABS*	00000000 lib_a-nano-freer.o
00000000 l    df *ABS*	00000000 lib_a-nano-mallocr.o
20104b22 l     F .highcode	00000058 sbrk_aligned
00000000 l    df *ABS*	00000000 lib_a-nano-vfprintf.o
20104c82 l     F .highcode	00000028 __sfputc_r
00000000 l    df *ABS*	00000000 lib_a-sbrkr.o
00000000 l    df *ABS*	00000000 lib_a-stdio.o
00000000 l    df *ABS*	00000000 lib_a-writer.o
00000000 l    df *ABS*	00000000 lib_a-closer.o
00000000 l    df *ABS*	00000000 lib_a-fstatr.o
00000000 l    df *ABS*	00000000 lib_a-isattyr.o
00000000 l    df *ABS*	00000000 lib_a-lseekr.o
00000000 l    df *ABS*	00000000 lib_a-memchr.o
00000000 l    df *ABS*	00000000 lib_a-mlock.o
00000000 l    df *ABS*	00000000 lib_a-nano-vfprintf_i.o
00000000 l    df *ABS*	00000000 lib_a-readr.o
00000000 l    df *ABS*	00000000 close.o
00000000 l    df *ABS*	00000000 fstat.o
00000000 l    df *ABS*	00000000 isatty.o
00000000 l    df *ABS*	00000000 lseek.o
00000000 l    df *ABS*	00000000 read.o
00000000 l    df *ABS*	00000000 usb_desc.c
00000000 l    df *ABS*	00000000 lib_a-impure.o
2013182c l     O .data	00000060 impure_data
00000000 l    df *ABS*	00000000 ch32h417_exti.c
00000000 l    df *ABS*	00000000 core_riscv.c
20100758  w      .highcode	00000000 TIM8_TRG_COM_IRQHandler
201024aa g     F .highcode	00000024 OV2640_Speed_Mode
20102020 g     F .highcode	00000090 SCCB_WR_Byte
20100758  w      .highcode	00000000 TIM8_CC_IRQHandler
20100758  w      .highcode	00000000 USART_WKUP_IRQHandler
20105108 g     F .highcode	0000002e _isatty_r
20105c1c g     O .highcode	00000016 MySerNumInfo
201037dc g     F .highcode	00000040 USBSS_Endp_Set_Frature
201042ca g     F .highcode	00000104 _puts_r
20105136 g     F .highcode	00000032 _lseek_r
2010087a g     F .highcode	000001e8 GPIO_PinAFConfig
20100758  w      .highcode	00000000 SPI4_IRQHandler
20145944 g     O .bss	00000004 pUSBHS_Descr
20100758  w      .highcode	00000000 DFSDM0_IRQHandler
2010216c g     F .highcode	0000004e SCCB_RD_Reg
20101010 g     F .highcode	00000026 TIM9_12_TimeBaseInit
20104290 g     F .highcode	0000003a printf
20132090 g       .data	00000000 __global_pointer$
2010025c g     F .highcode	00000028 .hidden __riscv_save_8
20100758  w      .highcode	00000000 TIM1_CC_IRQHandler
20145956 g     O .bss	00000002 USBSS_SetupReqLen
20105042 g     F .highcode	0000002e __sseek
20104816 g     F .highcode	00000068 __sinit
201043d6 g     F .highcode	000000bc __swbuf_r
201002dc g     F .highcode	00000010 HardFault_Handler
20100758  w      .highcode	00000000 TIM10_IRQHandler
201047a8 g     F .highcode	00000046 __sfmoreglue
2010518c g     F .highcode	0000000c __malloc_unlock
20100758  w      .highcode	00000000 IPC_CH2_Handler
20100758  w      .highcode	00000000 USBPD_IRQHandler
201002a8 g     F .highcode	0000000c .hidden __riscv_restore_3
20100758  w      .highcode	00000000 TIM6_IRQHandler
20100758  w      .highcode	00000000 CAN3_RX1_IRQHandler
20100758  w      .highcode	00000000 I3C_ER_IRQHandler
20100758  w      .highcode	00000000 SDIO_IRQHandler
20145955 g     O .bss	00000001 USBSS_DevConfig
20145953 g     O .bss	00000001 USBSS_DevEnumStatus
20100294 g     F .highcode	00000020 .hidden __riscv_restore_10
201014ec g     F .highcode	0000003a HS_Endp1_Hander
20100758  w      .highcode	00000000 DMA2_Channel8_IRQHandler
201002da g     F .highcode	00000002 NMI_Handler
20103584 g     F .highcode	00000050 USBSS_CFG_MOD
20100758  w      .highcode	00000000 CAN2_RX1_IRQHandler
20100758  w      .highcode	00000000 HSEM_Handler
20145960 g     O .bss	00000004 pUSBSS_Descr
20105790 g     O .highcode	00000014 ov2640_YUVframe_resolution_USB20
2010025c g     F .highcode	00000028 .hidden __riscv_save_11
2014594c g     O .bss	00000004 Chip
201025f6 g     F .highcode	000000ba USB_TestMode_Deal
2010278c g     F .highcode	0000091c USBHS_IRQHandler
20100758  w      .highcode	00000000 LPTIM2_IRQHandler
20145934 g     O .bss	00000001 USBHS_DevSpeed
20103572 g     F .highcode	00000012 SET_Device_Address
201010e2 g     F .highcode	0000000a USART_GetFlagStatus
201050d8 g     F .highcode	00000030 _fstat_r
20145978 g     O .bss	00000004 errno
20131640 g     O .data	000001ec TAB_USB_FS_OSC_DESC
201458e0 g       .bss	00000000 _sbss
00000800 g       *ABS*	00000000 __stack_size
20101186 g     F .highcode	0000006e USART_Printf_Init
20100758  w      .highcode	00000000 USBFSWakeup_IRQHandler
20157bec g     O .bss	00000200 USBSS_EP0_Buf
20100758  w      .highcode	00000000 I2C3_ER_IRQHandler
20100758  w      .highcode	00000000 USBFS_IRQHandler
20101fa6 g     F .highcode	00000036 SCCB_Stop
201002a8 g     F .highcode	0000000c .hidden __riscv_restore_2
20147b90 g     O .bss	00000040 USBHS_EP0_Buf
201060b8 g     O .highcode	00000012 MyDevDescr
2010321c g     F .highcode	00000062 USB_Timer_Init
201002b4 g     F .highcode	00000016 memcpy
201021ba g     F .highcode	00000142 DVP_GPIO_Init
20100758  w      .highcode	00000000 USART8_IRQHandler
2010479e g     F .highcode	0000000a _cleanup_r
20100758  w      .highcode	00000000 I2C2_EV_IRQHandler
201043ce g     F .highcode	00000008 puts
20100758  w      .highcode	00000000 CAN1_RX0_IRQHandler
20102480 g     F .highcode	0000002a ov2640_speed_ctrl
2010075a g     F .highcode	00000036 FLASH_BOOT_GetMode
20131894 g     O .data	00000004 SystemCoreClock
20100758  w      .highcode	00000000 CAN3_SCE_IRQHandler
20145939 g     O .bss	00000001 USBHS_DevConfig
20131604 g     O .data	0000003c TAB_USB_HS_OSC_DESC
20105560 g     F .highcode	00000010 _fstat
00000008 g       .init	00000000 _einit
20100f94 g     F .highcode	00000012 RCC_USBHSPLLCLKConfig
20101004 g     F .highcode	0000000c TIM_ClearITPendingBit
20145940 g     O .bss	00000001 USBHS_SetupReqType
2010327e g     F .highcode	0000003e USB_Timer_Start
20100254 g     F .highcode	00000030 .hidden __riscv_save_12
20100758  w      .highcode	00000000 CAN2_SCE_IRQHandler
20100758  w      .highcode	00000000 ADC1_2_IRQHandler
2010079a g     F .highcode	000000e0 GPIO_Init
20100758  w      .highcode	00000000 Break_Point_Handler
20100758  w      .highcode	00000000 IPC_CH0_Handler
20100294 g     F .highcode	00000020 .hidden __riscv_restore_11
2010212a g     F .highcode	00000042 SCCB_WR_Reg
20100758  w      .highcode	00000000 SPI1_IRQHandler
20100758  w      .highcode	00000000 USART5_IRQHandler
201010c6 g     F .highcode	00000014 USART_Cmd
20105bf0 g     O .highcode	00000016 MyBOSDesc_SS
20104fa2 g     F .highcode	00000030 _sbrk_r
20100284 g     F .highcode	0000000c .hidden __riscv_save_1
201458e8 g     O .bss	00000004 WFE_WkupSource
201318cc g     O .data	00000004 MyLangDescr
20100790 g     F .highcode	0000000a FLASH_GetUserOptionByte
201002a8 g     F .highcode	0000000c .hidden __riscv_restore_0
20100758  w      .highcode	00000000 SysTick0_Handler
20100758  w      .highcode	00000000 EXTI7_0_IRQHandler
2010551e g     F .highcode	00000032 _read_r
201057b8 g     O .highcode	00000014 ov2640_JPEGframe_resolution_USB20
20101910 g     F .highcode	0000015a DVP_Hander
2010026a g     F .highcode	0000001a .hidden __riscv_save_7
20100758  w      .highcode	00000000 CAN2_RX0_IRQHandler
201458f4 g     O .bss	00000004 WFE_MASK
20100758  w      .highcode	00000000 TIM8_UP_IRQHandler
20145954 g     O .bss	00000001 USBSS_DevSleepStatus
20100758  w      .highcode	00000000 Ecall_M_Mode_Handler
20100758  w      .highcode	00000000 ECDC_IRQHandler
20100758  w      .highcode	00000000 SDMMC_IRQHandler
2017f800 g       .stack	00000000 _heap_end
20105570 g     F .highcode	00000010 _isatty
2014596c g     O .bss	00000001 __lock___sinit_recursive_mutex
2010111a g     F .highcode	00000036 Delay_Us
201318d0 g     O .data	00000004 _global_impure_ptr
2010029e g     F .highcode	00000016 .hidden __riscv_restore_5
20101f3e g     F .highcode	00000034 SCCB_Init
20100758  w      .highcode	00000000 USART7_IRQHandler
20100758  w      .highcode	00000000 DMA2_Channel2_IRQHandler
20103ef6 g     F .highcode	0000039a .hidden __udivdi3
20100758  w      .highcode	00000000 DMA1_Channel4_IRQHandler
2010122e g     F .highcode	0000002a _sbrk
20105c54 g     O .highcode	00000026 MyManuInfo
20100758  w      .highcode	00000000 USART6_IRQHandler
2014593e g     O .bss	00000002 USBHS_SetupReqValue
2014593c g     O .bss	00000002 USBHS_SetupReqIndex
20100758  w      .highcode	00000000 CAN3_RX0_IRQHandler
20145938 g     O .bss	00000001 USBHS_DevAddr
20100f04 g     F .highcode	0000001c RCC_HB2PeriphClockCmd
20100758  w      .highcode	00000000 HSADC_IRQHandler
2010029e g     F .highcode	00000016 .hidden __riscv_restore_6
2014fbec g     O .bss	00008000 USBSS_EP1_Tx_Buf
20100758  w      .highcode	00000000 USART3_IRQHandler
20145912 g     O .bss	00000002 Dvp_DataSize
20100758  w      .highcode	00000000 RTC_IRQHandler
20157dec g       .bss	00000000 _ebss
20100758  w      .highcode	00000000 DMA1_Channel7_IRQHandler
20100758  w      .highcode	00000000 CAN1_RX1_IRQHandler
201010ec g     F .highcode	0000002e Delay_Init
20101e4a g     F .highcode	00000006 DVP_IRQHandler
20145964 g     O .bss	00000001 __lock___malloc_recursive_mutex
20101258 g     F .highcode	0000013a SS_CtrlCamera
2010386e g     F .highcode	00000642 USBSS_IRQHandler
201022fc g     F .highcode	000000a6 OV2640_Init
20100a62 g     F .highcode	000001fa GPIO_IPD_Unused
201307c4 g     O .data	000002f4 ExtensionID1
20100758  w      .highcode	00000000 SWPMI_IRQHandler
2014595a g     O .bss	00000002 USBSS_SetupReqValue
20100758  w      .highcode	00000000 USBPDWakeUp_IRQHandler
20100758  w      .highcode	00000000 EXTI15_8_IRQHandler
20147990 g     O .bss	00000200 USBHS_EP1_Tx_Buf
20100758  w      .highcode	00000000 TIM4_IRQHandler
2010025c g     F .highcode	00000028 .hidden __riscv_save_9
20100758  w      .highcode	00000000 DMA2_Channel1_IRQHandler
20105868 g     O .highcode	00000010 ov2640_jpeg_reg_tbl
20100758  w      .highcode	00000000 SWPMI_WKUP_IRQHandler
201061cc g     O .highcode	00000020 __sf_fake_stderr
2010026a g     F .highcode	0000001a .hidden __riscv_save_4
20130180 g     O .data	0000001a Get_Curr
20100758  w      .highcode	00000000 I2C1_EV_IRQHandler
20104994 g     F .highcode	00000002 __retarget_lock_release_recursive
20100758  w      .highcode	00000000 USBSSWakeup_IRQHandler
20100758  w      .highcode	00000000 USART4_IRQHandler
20102706 g     F .highcode	00000038 USBHS_RCC_Init
20100fec g     F .highcode	00000018 TIM_GetITStatus
20100d46 g     F .highcode	000001a2 RCC_GetClocksFreq
20100758  w      .highcode	00000000 DMA1_Channel6_IRQHandler
20100fa6 g     F .highcode	00000012 RCC_USBHSPLLReferConfig
20104caa g     F .highcode	00000040 __sfputs_r
20100758  w      .highcode	00000000 DMA2_Channel4_IRQHandler
201047ee g     F .highcode	0000000a __sfp_lock_acquire
20105168 g     F .highcode	00000018 memchr
201314d0 g     O .data	000000fc VAICSID
20101036 g     F .highcode	00000090 USART_Init
20104a80 g     F .highcode	000000a2 _free_r
20100758  w      .highcode	00000000 TIM3_IRQHandler
20100758  w      .highcode	00000000 RCC_IRQHandler
20145941 g     O .bss	00000001 USBHS_SetupReqCode
20100284 g     F .highcode	0000000c .hidden __riscv_save_3
20105e84 g     O .highcode	0000000a MyQuaDesc
20100758  w      .highcode	00000000 TIM1_TRG_COM_IRQHandler
20100758  w      .highcode	00000000 DMA1_Channel1_IRQHandler
00000000 g       .init	00000000 _start
20100758  w      .highcode	00000000 DMA2_Channel7_IRQHandler
20103790 g     F .highcode	0000004c USBSS_Endp_Clear_Frature
20100ee8 g     F .highcode	0000001c RCC_HBPeriphClockCmd
20105580 g     F .highcode	00000010 _lseek
201062c0 g       .dtors	00000000 _highcode_vma_end1
20100758  w      .highcode	00000000 QSPI1_IRQHandler
201024ce g     F .highcode	000000d0 OV2640_Change_Resolution
20101526 g     F .highcode	00000254 HS_Endp1_ISOHander
2010381c g     F .highcode	00000052 USBSS_Get_Endp_Status
20103154 g     F .highcode	00000014 USBSS_Device_Endp_Deinit
20100000 g       .highcode	00000000 _highcode_vma_start
20101fdc g     F .highcode	00000044 SCCB_No_Ack
2014595c g     O .bss	00000001 USBSS_SetupReqCode
20100758  w      .highcode	00000000 DMA1_Channel8_IRQHandler
20100758  w      .highcode	00000000 IPC_CH3_Handler
20100758  w      .highcode	00000000 I3C_EV_IRQHandler
2013019c g     O .data	00000627 ExtensionID2
20100758  w      .highcode	00000000 I3C_WKUP_IRQHandler
201036c8 g     F .highcode	000000bc TIM12_IRQHandler
20100758  w      .highcode	00000000 TIM7_IRQHandler
20145950 g     O .bss	00000001 USB_Enum_Status
201050aa g     F .highcode	0000002e _close_r
20100758  w      .highcode	00000000 CAN2_TX_IRQHandler
20130100 g       .dalign	00000000 _data_vma
20100758  w      .highcode	00000000 TIM5_IRQHandler
20105ecc g     O .highcode	000001ec MyCfgDescr_HS
20100f20 g     F .highcode	0000001c RCC_HB1PeriphClockCmd
20100758  w      .highcode	00000000 I2C3_EV_IRQHandler
2010273e g     F .highcode	0000004e USBHS_Device_Init
20104492 g     F .highcode	000000ee __swsetup_r
20100758  w      .highcode	00000000 PIOC_IRQHandler
2010487e g     F .highcode	000000aa __sfp
20100758  w      .highcode	00000000 TIM9_IRQHandler
2010480c g     F .highcode	0000000a __sinit_lock_release
20100758  w      .highcode	00000000 LTDC_IRQHandler
20100758  w      .highcode	00000000 SAI_IRQHandler
2010025c g     F .highcode	00000028 .hidden __riscv_save_10
20104fd2 g     F .highcode	0000002a __sread
20100758  w      .highcode	00000000 ETH_WKUP_IRQHandler
20105180 g     F .highcode	0000000c __malloc_lock
2010029e g     F .highcode	00000016 .hidden __riscv_restore_4
20100294 g     F .highcode	00000020 .hidden __riscv_restore_8
201046b2 g     F .highcode	00000086 _fflush_r
2010026a g     F .highcode	0000001a .hidden __riscv_save_6
20100758  w      .highcode	00000000 SPI2_IRQHandler
20145936 g     O .bss	00000002 USBHS_DevMaxPackLen
2010620c g     O .highcode	00000020 __sf_fake_stdin
201458e4 g     O .bss	00000004 HCLKClock
20100c92 g     F .highcode	000000b4 PWR_EnterSTOPMode
20104992 g     F .highcode	00000002 __retarget_lock_acquire_recursive
20100758  w      .highcode	00000000 IPC_CH1_Handler
00006438 g       .highcodelalign1	00000000 _highcode_lma1
201002ca g     F .highcode	00000010 memset
20100294 g     F .highcode	00000020 .hidden __riscv_restore_9
2010029e g     F .highcode	00000016 .hidden __riscv_restore_7
201002ec g     F .highcode	00000144 main
20100758  w      .highcode	00000000 LPTIM1_WKUP_IRQHandler
201318b0 g     O .data	00000001 Formatchange_flag
20104990 g     F .highcode	00000002 __retarget_lock_init_recursive
201318e0 g     O .DMADATA	00014000 UVC_DMABuffer
201062c0 g       .fini	00000000 _highcode_vma_start1
20101c5a g     F .highcode	000001f0 USBSS_UVC_NonStandardReq
20100758  w      .highcode	00000000 CAN1_TX_IRQHandler
20105070 g     F .highcode	00000006 __sclose
201057cc g     O .highcode	00000014 ov2640_JPEGframe_resolution_USB30
20100f3c g     F .highcode	00000016 RCC_USBHS_PLLCmd
20100758  w      .highcode	00000000 DMA2_Channel5_IRQHandler
20104b7a g     F .highcode	00000108 _malloc_r
20100c5c g     F .highcode	00000028 HSEM_ITConfig
201031c6 g     F .highcode	00000056 USBSS_Reset_Init
2010312a g     F .highcode	0000002a USBSS_RCC_Init
20101ef2 g     F .highcode	0000004c Dvp_Row_Col_Set
20100758  w      .highcode	00000000 DMA1_Channel5_IRQHandler
20101150 g     F .highcode	00000036 Delay_Ms
20105c34 g     O .highcode	00000020 MyProdInfo
20105e90 g     O .highcode	0000003c MyCfgDescr_FS
201300ec g       .loadcode	00000000 _loadcode_vma_end
20100758  w      .highcode	00000000 QSPI2_IRQHandler
000000f4 g       .highcodelalign	00000000 _highcode_lma
20100430 g     F .highcode	000001b2 SystemInit
20103eb0 g     F .highcode	00000046 Hardware
20100758  w      .highcode	00000000 RNG_IRQHandler
2014593a g     O .bss	00000002 USBHS_SetupReqLen
201458fc g     O .bss	00000002 Resolution_width
20105e70 g     O .highcode	00000012 SS_DeviceDescriptor
20104290 g     F .highcode	0000003a iprintf
20145933 g     O .bss	00000001 USBHS_DevSleepStatus
201060cc g     O .highcode	00000100 .hidden __clz_tab
00000000 g       .init	00000000 _sinit
201318b8 g     O .data	00000004 Dvp_Recaddr
20105076 g     F .highcode	00000034 _write_r
201315cc g     O .data	00000035 IFTest_Buf
20100758  w      .highcode	00000000 DMA1_Channel3_IRQHandler
20105878 g     O .highcode	00000164 ov2640_uxga_init_reg_tbl
20100758  w      .highcode	00000000 ETH_IRQHandler
20105198 g     F .highcode	0000010a _printf_common
201318bc g     O .data	00000004 _impure_ptr
20100758  w      .highcode	00000000 TIM1_UP_IRQHandler
20104580 g     F .highcode	00000132 __sflush_r
20100c84 g     F .highcode	0000000e HSEM_ClearFlag
20100fd0 g     F .highcode	0000001c SWPMI_BypassCmd
20101f72 g     F .highcode	00000034 SCCB_Start
20147bec g     O .bss	00008000 USBSS_EP1_Rx_Buf
20100758  w      .highcode	00000000 WWDG_IRQHandler
20105c7c g     O .highcode	000001f2 SS_ConfigDescriptor
20101e50 g     F .highcode	000000a2 dvp_Init
20130ab8 g     O .data	000004ec ProcessID
20100758  w      .highcode	00000000 USBHSWakeup_IRQHandler
20100758  w      .highcode	00000000 Ecall_U_Mode_Handler
20100758  w      .highcode	00000000 I2C4_EV_IRQHandler
20100758  w      .highcode	00000000 CAN3_TX_IRQHandler
20100758  w      .highcode	00000000 DMA2_Channel6_IRQHandler
20100758  w      .highcode	00000000 TIM2_IRQHandler
20180000 g       .stack	00000000 _eusrstack
20100284 g     F .highcode	0000000c .hidden __riscv_save_2
20100758  w      .highcode	00000000 SW_Handler
20131898 g     O .data	00000004 SystemClock
20100758  w      .highcode	00000000 TIM1_BRK_IRQHandler
20104996 g     F .highcode	00000058 __swhatbuf_r
20100758  w      .highcode	00000000 GPHA_IRQHandler
20103168 g     F .highcode	0000005e USBSS_Device_Endp_Init
201010da g     F .highcode	00000008 USART_SendData
2010026a g     F .highcode	0000001a .hidden __riscv_save_5
201011f4 g     F .highcode	0000003a _write
201318d4 g       .data	00000000 _edata
20100f52 g     F .highcode	00000016 RCC_USBSS_PLLCmd
20130000 g       .loadcode	00000000 _loadcode_vma_start
20157dec g       .bss	00000000 _end
20100758  w      .highcode	00000000 LPTIM2_WKUP_IRQHandler
20105c08 g     O .highcode	00000012 OSStringDescriptor
201062c0 g       .highcode	00000000 _highcode_vma_end
20100758  w      .highcode	00000000 RTCAlarm_IRQHandler
2010241a g     F .highcode	00000066 OV2640_OutSize_Set
20100758  w      .highcode	00000000 TIM11_IRQHandler
201026b0 g     F .highcode	00000056 USBHS_Device_Endp_Init
00006438 g       .dlalign	00000000 _data_lma
20100f68 g     F .highcode	00000016 RCC_PIPECmd
20100758  w      .highcode	00000000 USART2_IRQHandler
20104ffc g     F .highcode	00000046 __swrite
20100f7e g     F .highcode	00000016 RCC_UTMIcmd
00000008 g       .loadcodelalign	00000000 _loadcode_lma
20100758  w      .highcode	00000000 UHSIF_IRQHandler
20104cea g     F .highcode	000002b8 _vfiprintf_r
20104928 g     F .highcode	00000068 _fwalk_reent
201005e2 g     F .highcode	00000176 SystemAndCoreClockUpdate
201059dc g     O .highcode	00000148 yuv_uxga
201032bc g     F .highcode	000002b6 USBSS_LINK_Handle
201458fa g     O .bss	00000002 Resolution_height
20100758  w      .highcode	00000000 I2C2_ER_IRQHandler
20100758  w      .highcode	00000000 DMA1_Channel2_IRQHandler
201047f8 g     F .highcode	0000000a __sfp_lock_release
201061ec g     O .highcode	00000020 __sf_fake_stdout
20100290 g     F .highcode	00000024 .hidden __riscv_restore_12
20100758  w      .highcode	00000000 TIM8_BRK_IRQHandler
2014595d g     O .bss	00000001 USBSS_SetupReqType
20105590 g     F .highcode	00000010 _read
000063b4  w      .text	00000000 handle_reset
20130fa4 g     O .data	0000052b CameraID
201057a4 g     O .highcode	00000014 ov2640_YUVframe_resolution_USB30
20100758  w      .highcode	00000000 CAN1_SCE_IRQHandler
20100284 g     F .highcode	0000000c .hidden __riscv_save_0
20100758  w      .highcode	00000000 FLASH_IRQHandler
20145990 g     O .bss	00002000 Data_Buffer
20145958 g     O .bss	00000002 USBSS_SetupReqIndex
20100758  w      .highcode	00000000 USART1_IRQHandler
201049ee g     F .highcode	00000092 __smakebuf_r
20100fb8 g     F .highcode	00000018 RCC_USBHSPLLClockSourceDivConfig
201052a2 g     F .highcode	0000027c _printf_i
20100758  w      .highcode	00000000 SPI3_IRQHandler
2010177a g     F .highcode	00000196 SS_Endp1_Hander
20145970 g     O .bss	00000004 __malloc_sbrk_start
20147bd0 g     O .bss	0000001c USBSS_Dev_Info
20100758  w      .highcode	00000000 I2C1_ER_IRQHandler
20100758  w      .highcode	00000000 FMC_IRQHandler
20100758  w      .highcode	00000000 SysTick1_Handler
201023a2 g     F .highcode	00000078 OV2640_Format_Mode
20145932 g     O .bss	00000001 USBHS_DevEnumStatus
201020b0 g     F .highcode	0000007a SCCB_RD_Byte
20145974 g     O .bss	00000004 __malloc_free_list
201002a8 g     F .highcode	0000000c .hidden __riscv_restore_1
20101392 g     F .highcode	0000015a HS_CtrlCamera
20100758  w      .highcode	00000000 LPTIM1_IRQHandler
20100758  w      .highcode	00000000 DFSDM1_IRQHandler
20104cea g     F .highcode	000002b8 _vfprintf_r
20100758  w      .highcode	00000000 I2C4_ER_IRQHandler
20100758  w      .highcode	00000000 SERDES_IRQHandler
2014597c g     O .bss	00000014 UVC
20103784 g     F .highcode	0000000c USBSS_LINK_IRQHandler
201035d4 g     F .highcode	000000f4 USBSS_Device_Init
20145968 g     O .bss	00000001 __lock___sfp_recursive_mutex
20105550 g     F .highcode	00000010 _close
20101a6a g     F .highcode	000001f0 USBHS_UVC_NonStandardReq
20104802 g     F .highcode	0000000a __sinit_lock_acquire
20100758  w      .highcode	00000000 DMA2_Channel3_IRQHandler
20145948 g     O .bss	00000001 USBHS_Test_Flag



Disassembly of section .init:

00000000 <_sinit>:
   0:	3b40606f          	j	63b4 <handle_reset>
   4:	0000                	unimp
	...

Disassembly of section .loadcode:

20130000 <_loadcode_vma_start>:
20130000:	400214b7          	lui	s1,0x40021
20130004:	40e00593          	li	a1,1038
20130008:	c48c                	sw	a1,8(s1)
2013000a:	0004a283          	lw	t0,0(s1) # 40021000 <_eusrstack+0x1fea1000>
2013000e:	01000337          	lui	t1,0x1000
20130012:	0062e2b3          	or	t0,t0,t1
20130016:	0054a023          	sw	t0,0(s1)
2013001a:	0004a383          	lw	t2,0(s1)
2013001e:	02000e37          	lui	t3,0x2000
20130022:	01c3f3b3          	and	t2,t2,t3
20130026:	fe038ae3          	beqz	t2,2013001a <_loadcode_vma_start+0x1a>
2013002a:	0084ae83          	lw	t4,8(s1)
2013002e:	80000f37          	lui	t5,0x80000
20130032:	01eeeeb3          	or	t4,t4,t5
20130036:	01d4a423          	sw	t4,8(s1)
2013003a:	4f89                	li	t6,2
2013003c:	01f4a223          	sw	t6,4(s1)
20130040:	0044a903          	lw	s2,4(s1)
20130044:	49a1                	li	s3,8
20130046:	01397933          	and	s2,s2,s3
2013004a:	fe090be3          	beqz	s2,20130040 <_loadcode_vma_start+0x40>
2013004e:	0f400513          	li	a0,244
20130052:	fffd0597          	auipc	a1,0xfffd0
20130056:	fae58593          	addi	a1,a1,-82 # 20100000 <_highcode_vma_start>
2013005a:	fffd6617          	auipc	a2,0xfffd6
2013005e:	26660613          	addi	a2,a2,614 # 201062c0 <_highcode_vma_end>
20130062:	00c5fa63          	bgeu	a1,a2,20130076 <_loadcode_vma_start+0x76>
20130066:	00052283          	lw	t0,0(a0)
2013006a:	0055a023          	sw	t0,0(a1)
2013006e:	0511                	addi	a0,a0,4
20130070:	0591                	addi	a1,a1,4
20130072:	fec5eae3          	bltu	a1,a2,20130066 <_loadcode_vma_start+0x66>
20130076:	dfed6517          	auipc	a0,0xdfed6
2013007a:	3c250513          	addi	a0,a0,962 # 6438 <_data_lma>
2013007e:	fffd6597          	auipc	a1,0xfffd6
20130082:	24258593          	addi	a1,a1,578 # 201062c0 <_highcode_vma_end>
20130086:	fffd6617          	auipc	a2,0xfffd6
2013008a:	23a60613          	addi	a2,a2,570 # 201062c0 <_highcode_vma_end>
2013008e:	00c5fa63          	bgeu	a1,a2,201300a2 <_loadcode_vma_start+0xa2>
20130092:	00052283          	lw	t0,0(a0)
20130096:	0055a023          	sw	t0,0(a1)
2013009a:	0511                	addi	a0,a0,4
2013009c:	0591                	addi	a1,a1,4
2013009e:	fec5eae3          	bltu	a1,a2,20130092 <_loadcode_vma_start+0x92>
201300a2:	dfed6517          	auipc	a0,0xdfed6
201300a6:	39650513          	addi	a0,a0,918 # 6438 <_data_lma>
201300aa:	00000597          	auipc	a1,0x0
201300ae:	05658593          	addi	a1,a1,86 # 20130100 <SERDESPLLMULTB>
201300b2:	84418613          	addi	a2,gp,-1980 # 201318d4 <_edata>
201300b6:	00c5fa63          	bgeu	a1,a2,201300ca <_loadcode_vma_start+0xca>
201300ba:	00052283          	lw	t0,0(a0)
201300be:	0055a023          	sw	t0,0(a1)
201300c2:	0511                	addi	a0,a0,4
201300c4:	0591                	addi	a1,a1,4
201300c6:	fec5eae3          	bltu	a1,a2,201300ba <_loadcode_vma_start+0xba>
201300ca:	00016517          	auipc	a0,0x16
201300ce:	81650513          	addi	a0,a0,-2026 # 201458e0 <gesture_counter.0>
201300d2:	00028597          	auipc	a1,0x28
201300d6:	d1a58593          	addi	a1,a1,-742 # 20157dec <_ebss>
201300da:	00b57763          	bgeu	a0,a1,201300e8 <_loadcode_vma_start+0xe8>
201300de:	00052023          	sw	zero,0(a0)
201300e2:	0511                	addi	a0,a0,4
201300e4:	feb56de3          	bltu	a0,a1,201300de <_loadcode_vma_start+0xde>
201300e8:	8082                	ret
	...

Disassembly of section .highcode:

20100000 <_highcode_vma_start>:
	...
20100008:	201002da          	.word	0x201002da
2010000c:	201002dc          	.word	0x201002dc
20100010:	00000000          	.word	0x00000000
20100014:	20100758          	.word	0x20100758
	...
20100020:	20100758          	.word	0x20100758
20100024:	20100758          	.word	0x20100758
	...
20100030:	20100758          	.word	0x20100758
20100034:	20100758          	.word	0x20100758
20100038:	20100758          	.word	0x20100758
2010003c:	00000000          	.word	0x00000000
20100040:	20100758          	.word	0x20100758
20100044:	20100758          	.word	0x20100758
20100048:	20100758          	.word	0x20100758
2010004c:	20100758          	.word	0x20100758
	...
20100070:	20100758          	.word	0x20100758
	...
20100080:	20100758          	.word	0x20100758
20100084:	20100758          	.word	0x20100758
20100088:	20100758          	.word	0x20100758
2010008c:	20100758          	.word	0x20100758
20100090:	20100758          	.word	0x20100758
20100094:	20100758          	.word	0x20100758
20100098:	20100758          	.word	0x20100758
2010009c:	20100758          	.word	0x20100758
201000a0:	20100758          	.word	0x20100758
201000a4:	20100758          	.word	0x20100758
201000a8:	20100758          	.word	0x20100758
201000ac:	20100758          	.word	0x20100758
201000b0:	20100758          	.word	0x20100758
201000b4:	20100758          	.word	0x20100758
201000b8:	20100758          	.word	0x20100758
201000bc:	20100758          	.word	0x20100758
201000c0:	20100758          	.word	0x20100758
201000c4:	20100758          	.word	0x20100758
201000c8:	20100758          	.word	0x20100758
201000cc:	20100758          	.word	0x20100758
201000d0:	20100758          	.word	0x20100758
201000d4:	20100758          	.word	0x20100758
201000d8:	20100758          	.word	0x20100758
201000dc:	20100758          	.word	0x20100758
201000e0:	2010278c          	.word	0x2010278c
201000e4:	20100758          	.word	0x20100758
201000e8:	20100758          	.word	0x20100758
201000ec:	20100758          	.word	0x20100758
201000f0:	20100758          	.word	0x20100758
201000f4:	20100758          	.word	0x20100758
201000f8:	2010386e          	.word	0x2010386e
201000fc:	20103784          	.word	0x20103784
20100100:	20100758          	.word	0x20100758
20100104:	20100758          	.word	0x20100758
20100108:	20100758          	.word	0x20100758
2010010c:	20100758          	.word	0x20100758
20100110:	20100758          	.word	0x20100758
20100114:	20100758          	.word	0x20100758
20100118:	20100758          	.word	0x20100758
2010011c:	20100758          	.word	0x20100758
20100120:	20100758          	.word	0x20100758
20100124:	20100758          	.word	0x20100758
20100128:	20100758          	.word	0x20100758
2010012c:	20100758          	.word	0x20100758
20100130:	20100758          	.word	0x20100758
20100134:	20100758          	.word	0x20100758
20100138:	20100758          	.word	0x20100758
2010013c:	20100758          	.word	0x20100758
20100140:	20100758          	.word	0x20100758
20100144:	20100758          	.word	0x20100758
20100148:	20100758          	.word	0x20100758
2010014c:	20100758          	.word	0x20100758
20100150:	20100758          	.word	0x20100758
20100154:	20100758          	.word	0x20100758
20100158:	20100758          	.word	0x20100758
2010015c:	20100758          	.word	0x20100758
20100160:	20100758          	.word	0x20100758
20100164:	20100758          	.word	0x20100758
20100168:	20100758          	.word	0x20100758
2010016c:	20100758          	.word	0x20100758
20100170:	20100758          	.word	0x20100758
20100174:	201036c8          	.word	0x201036c8
20100178:	20100758          	.word	0x20100758
2010017c:	20100758          	.word	0x20100758
20100180:	20100758          	.word	0x20100758
20100184:	20100758          	.word	0x20100758
20100188:	20100758          	.word	0x20100758
2010018c:	20100758          	.word	0x20100758
20100190:	20100758          	.word	0x20100758
20100194:	20100758          	.word	0x20100758
20100198:	20100758          	.word	0x20100758
2010019c:	20100758          	.word	0x20100758
201001a0:	20100758          	.word	0x20100758
201001a4:	20100758          	.word	0x20100758
201001a8:	20100758          	.word	0x20100758
201001ac:	20100758          	.word	0x20100758
201001b0:	20100758          	.word	0x20100758
201001b4:	20100758          	.word	0x20100758
201001b8:	20100758          	.word	0x20100758
201001bc:	20100758          	.word	0x20100758
201001c0:	20100758          	.word	0x20100758
201001c4:	20100758          	.word	0x20100758
201001c8:	20100758          	.word	0x20100758
201001cc:	20100758          	.word	0x20100758
201001d0:	20100758          	.word	0x20100758
201001d4:	20100758          	.word	0x20100758
201001d8:	20100758          	.word	0x20100758
201001dc:	20100758          	.word	0x20100758
201001e0:	20101e4a          	.word	0x20101e4a
201001e4:	20100758          	.word	0x20100758
201001e8:	20100758          	.word	0x20100758
201001ec:	20100758          	.word	0x20100758
201001f0:	20100758          	.word	0x20100758
201001f4:	20100758          	.word	0x20100758
201001f8:	00000000          	.word	0x00000000
201001fc:	20100758          	.word	0x20100758
20100200:	20100758          	.word	0x20100758
	...
2010020c:	20100758          	.word	0x20100758
	...
20100218:	20100758          	.word	0x20100758
2010021c:	20100758          	.word	0x20100758
20100220:	20100758          	.word	0x20100758
20100224:	20100758          	.word	0x20100758
20100228:	20100758          	.word	0x20100758
2010022c:	20100758          	.word	0x20100758
20100230:	20100758          	.word	0x20100758
20100234:	20100758          	.word	0x20100758
20100238:	20100758          	.word	0x20100758
2010023c:	20100758          	.word	0x20100758
20100240:	20100758          	.word	0x20100758
20100244:	20100758          	.word	0x20100758
20100248:	20100758          	.word	0x20100758
2010024c:	20100758          	.word	0x20100758
20100250:	20100758          	.word	0x20100758

20100254 <__riscv_save_12>:
20100254:	7139                	addi	sp,sp,-64
20100256:	4301                	li	t1,0
20100258:	c66e                	sw	s11,12(sp)
2010025a:	a019                	j	20100260 <__riscv_save_10+0x4>

2010025c <__riscv_save_10>:
2010025c:	7139                	addi	sp,sp,-64
2010025e:	5341                	li	t1,-16
20100260:	c86a                	sw	s10,16(sp)
20100262:	ca66                	sw	s9,20(sp)
20100264:	cc62                	sw	s8,24(sp)
20100266:	ce5e                	sw	s7,28(sp)
20100268:	a019                	j	2010026e <__riscv_save_4+0x4>

2010026a <__riscv_save_4>:
2010026a:	7139                	addi	sp,sp,-64
2010026c:	5301                	li	t1,-32
2010026e:	d05a                	sw	s6,32(sp)
20100270:	d256                	sw	s5,36(sp)
20100272:	d452                	sw	s4,40(sp)
20100274:	d64e                	sw	s3,44(sp)
20100276:	d84a                	sw	s2,48(sp)
20100278:	da26                	sw	s1,52(sp)
2010027a:	dc22                	sw	s0,56(sp)
2010027c:	de06                	sw	ra,60(sp)
2010027e:	40610133          	sub	sp,sp,t1
20100282:	8282                	jr	t0

20100284 <__riscv_save_0>:
20100284:	1141                	addi	sp,sp,-16
20100286:	c04a                	sw	s2,0(sp)
20100288:	c226                	sw	s1,4(sp)
2010028a:	c422                	sw	s0,8(sp)
2010028c:	c606                	sw	ra,12(sp)
2010028e:	8282                	jr	t0

20100290 <__riscv_restore_12>:
20100290:	4db2                	lw	s11,12(sp)
20100292:	0141                	addi	sp,sp,16

20100294 <__riscv_restore_10>:
20100294:	4d02                	lw	s10,0(sp)
20100296:	4c92                	lw	s9,4(sp)
20100298:	4c22                	lw	s8,8(sp)
2010029a:	4bb2                	lw	s7,12(sp)
2010029c:	0141                	addi	sp,sp,16

2010029e <__riscv_restore_4>:
2010029e:	4b02                	lw	s6,0(sp)
201002a0:	4a92                	lw	s5,4(sp)
201002a2:	4a22                	lw	s4,8(sp)
201002a4:	49b2                	lw	s3,12(sp)
201002a6:	0141                	addi	sp,sp,16

201002a8 <__riscv_restore_0>:
201002a8:	4902                	lw	s2,0(sp)
201002aa:	4492                	lw	s1,4(sp)
201002ac:	4422                	lw	s0,8(sp)
201002ae:	40b2                	lw	ra,12(sp)
201002b0:	0141                	addi	sp,sp,16
201002b2:	8082                	ret

201002b4 <memcpy>:
201002b4:	832a                	mv	t1,a0
201002b6:	ca09                	beqz	a2,201002c8 <memcpy+0x14>
201002b8:	00058383          	lb	t2,0(a1)
201002bc:	00730023          	sb	t2,0(t1) # 1000000 <_data_lma+0xff9bc8>
201002c0:	167d                	addi	a2,a2,-1
201002c2:	0305                	addi	t1,t1,1
201002c4:	0585                	addi	a1,a1,1
201002c6:	fa6d                	bnez	a2,201002b8 <memcpy+0x4>
201002c8:	8082                	ret

201002ca <memset>:
201002ca:	832a                	mv	t1,a0
201002cc:	c611                	beqz	a2,201002d8 <memset+0xe>
201002ce:	00b30023          	sb	a1,0(t1)
201002d2:	167d                	addi	a2,a2,-1
201002d4:	0305                	addi	t1,t1,1
201002d6:	fe65                	bnez	a2,201002ce <memset+0x4>
201002d8:	8082                	ret

201002da <NMI_Handler>:
201002da:	a001                	j	201002da <NMI_Handler>

201002dc <HardFault_Handler>:
201002dc:	beef07b7          	lui	a5,0xbeef0
201002e0:	e000e737          	lui	a4,0xe000e
201002e4:	08078793          	addi	a5,a5,128 # beef0080 <_eusrstack+0x9ed70080>
201002e8:	c73c                	sw	a5,72(a4)
201002ea:	a001                	j	201002ea <HardFault_Handler+0xe>

201002ec <main>:
201002ec:	f71ff2ef          	jal	t0,2010025c <__riscv_save_10>
201002f0:	7179                	addi	sp,sp,-48
201002f2:	2a3d                	jal	20100430 <SystemInit>
201002f4:	24fd                	jal	201005e2 <SystemAndCoreClockUpdate>
201002f6:	5f7000ef          	jal	ra,201010ec <Delay_Init>
201002fa:	6571                	lui	a0,0x1c
201002fc:	20050513          	addi	a0,a0,512 # 1c200 <_data_lma+0x15dc8>
20100300:	687000ef          	jal	ra,20101186 <USART_Printf_Init>
20100304:	20105537          	lui	a0,0x20105
20100308:	5c450513          	addi	a0,a0,1476 # 201055c4 <_read+0x34>
2010030c:	0c2040ef          	jal	ra,201043ce <puts>
20100310:	201327b7          	lui	a5,0x20132
20100314:	8947a583          	lw	a1,-1900(a5) # 20131894 <SystemCoreClock>
20100318:	20105537          	lui	a0,0x20105
2010031c:	5e850513          	addi	a0,a0,1512 # 201055e8 <_read+0x58>
20100320:	771030ef          	jal	ra,20104290 <iprintf>
20100324:	20105537          	lui	a0,0x20105
20100328:	5fc50513          	addi	a0,a0,1532 # 201055fc <_read+0x6c>
2010032c:	0a2040ef          	jal	ra,201043ce <puts>
20100330:	20105537          	lui	a0,0x20105
20100334:	63450513          	addi	a0,a0,1588 # 20105634 <_read+0xa4>
20100338:	096040ef          	jal	ra,201043ce <puts>
2010033c:	00030737          	lui	a4,0x30
20100340:	e000e7b7          	lui	a5,0xe000e
20100344:	e000f437          	lui	s0,0xe000f
20100348:	72e7a223          	sw	a4,1828(a5) # e000e724 <_eusrstack+0xbfe8e724>
2010034c:	d0040413          	addi	s0,s0,-768 # e000ed00 <_eusrstack+0xbfe8ed00>
20100350:	481c                	lw	a5,16(s0)
20100352:	4585                	li	a1,1
20100354:	4501                	li	a0,0
20100356:	0207e793          	ori	a5,a5,32
2010035a:	c81c                	sw	a5,16(s0)
2010035c:	101000ef          	jal	ra,20100c5c <HSEM_ITConfig>
20100360:	481c                	lw	a5,16(s0)
20100362:	4585                	li	a1,1
20100364:	10000537          	lui	a0,0x10000
20100368:	0107e793          	ori	a5,a5,16
2010036c:	c81c                	sw	a5,16(s0)
2010036e:	3b3000ef          	jal	ra,20100f20 <RCC_HB1PeriphClockCmd>
20100372:	20105537          	lui	a0,0x20105
20100376:	64c50513          	addi	a0,a0,1612 # 2010564c <_read+0xbc>
2010037a:	054040ef          	jal	ra,201043ce <puts>
2010037e:	4589                	li	a1,2
20100380:	4501                	li	a0,0
20100382:	111000ef          	jal	ra,20100c92 <PWR_EnterSTOPMode>
20100386:	20105537          	lui	a0,0x20105
2010038a:	67c50513          	addi	a0,a0,1660 # 2010567c <_read+0xec>
2010038e:	040040ef          	jal	ra,201043ce <puts>
20100392:	4501                	li	a0,0
20100394:	0f1000ef          	jal	ra,20100c84 <HSEM_ClearFlag>
20100398:	319030ef          	jal	ra,20103eb0 <Hardware>
2010039c:	20105537          	lui	a0,0x20105
201003a0:	6a450513          	addi	a0,a0,1700 # 201056a4 <_read+0x114>
201003a4:	02a040ef          	jal	ra,201043ce <puts>
201003a8:	20105537          	lui	a0,0x20105
201003ac:	6cc50513          	addi	a0,a0,1740 # 201056cc <_read+0x13c>
201003b0:	01e040ef          	jal	ra,201043ce <puts>
201003b4:	200c87b7          	lui	a5,0x200c8
201003b8:	4721                	li	a4,8
201003ba:	a398                	sb	a4,0(a5)
201003bc:	00000713          	li	a4,0
201003c0:	c3d8                	sw	a4,4(a5)
201003c2:	8381aa83          	lw	s5,-1992(gp) # 201318c8 <_impure_ptr+0xc>
201003c6:	8301a903          	lw	s2,-2000(gp) # 201318c0 <_impure_ptr+0x4>
201003ca:	8341a983          	lw	s3,-1996(gp) # 201318c4 <_impure_ptr+0x8>
201003ce:	201464b7          	lui	s1,0x20146
201003d2:	20105b37          	lui	s6,0x20105
201003d6:	20105bb7          	lui	s7,0x20105
201003da:	8281a783          	lw	a5,-2008(gp) # 201318b8 <Dvp_Recaddr>
201003de:	c7a9                	beqz	a5,20100428 <main+0x13c>
201003e0:	8e04a783          	lw	a5,-1824(s1) # 201458e0 <gesture_counter.0>
201003e4:	06400713          	li	a4,100
201003e8:	0785                	addi	a5,a5,1 # 200c8001 <_data_lma+0x200c1bc9>
201003ea:	02e7f6b3          	remu	a3,a5,a4
201003ee:	8ef4a023          	sw	a5,-1824(s1)
201003f2:	ea9d                	bnez	a3,20100428 <main+0x13c>
201003f4:	02e7d7b3          	divu	a5,a5,a4
201003f8:	02400613          	li	a2,36
201003fc:	5a0b0593          	addi	a1,s6,1440 # 201055a0 <_read+0x10>
20100400:	0068                	addi	a0,sp,12
20100402:	0077f413          	andi	s0,a5,7
20100406:	200c87b7          	lui	a5,0x200c8
2010040a:	a380                	sb	s0,0(a5)
2010040c:	0157a223          	sw	s5,4(a5) # 200c8004 <_data_lma+0x200c1bcc>
20100410:	3555                	jal	201002b4 <memcpy>
20100412:	181c                	addi	a5,sp,48
20100414:	20f44433          	sh2add	s0,s0,a5
20100418:	fdc42583          	lw	a1,-36(s0)
2010041c:	864a                	mv	a2,s2
2010041e:	86ce                	mv	a3,s3
20100420:	710b8513          	addi	a0,s7,1808 # 20105710 <_read+0x180>
20100424:	66d030ef          	jal	ra,20104290 <iprintf>
20100428:	4529                	li	a0,10
2010042a:	527000ef          	jal	ra,20101150 <Delay_Ms>
2010042e:	b775                	j	201003da <main+0xee>

20100430 <SystemInit>:
20100430:	e55ff2ef          	jal	t0,20100284 <__riscv_save_0>
20100434:	400217b7          	lui	a5,0x40021
20100438:	4398                	lw	a4,0(a5)
2010043a:	305c06b7          	lui	a3,0x305c0
2010043e:	1141                	addi	sp,sp,-16
20100440:	00176713          	ori	a4,a4,1
20100444:	c398                	sw	a4,0(a5)
20100446:	43d8                	lw	a4,4(a5)
20100448:	40021437          	lui	s0,0x40021
2010044c:	8f75                	and	a4,a4,a3
2010044e:	c3d8                	sw	a4,4(a5)
20100450:	405c                	lw	a5,4(s0)
20100452:	8bb1                	andi	a5,a5,12
20100454:	fff5                	bnez	a5,20100450 <SystemInit+0x20>
20100456:	405c                	lw	a5,4(s0)
20100458:	6aa70737          	lui	a4,0x6aa70
2010045c:	177d                	addi	a4,a4,-1 # 6aa6ffff <_eusrstack+0x4a8effff>
2010045e:	49679793          	bclri	a5,a5,0x16
20100462:	c05c                	sw	a5,4(s0)
20100464:	441c                	lw	a5,8(s0)
20100466:	49f79793          	bclri	a5,a5,0x1f
2010046a:	c41c                	sw	a5,8(s0)
2010046c:	401c                	lw	a5,0(s0)
2010046e:	8ff9                	and	a5,a5,a4
20100470:	c01c                	sw	a5,0(s0)
20100472:	401c                	lw	a5,0(s0)
20100474:	0fffc737          	lui	a4,0xfffc
20100478:	49279793          	bclri	a5,a5,0x12
2010047c:	c01c                	sw	a5,0(s0)
2010047e:	441c                	lw	a5,8(s0)
20100480:	8ff9                	and	a5,a5,a4
20100482:	c41c                	sw	a5,8(s0)
20100484:	441c                	lw	a5,8(s0)
20100486:	0c600737          	lui	a4,0xc600
2010048a:	0047e793          	ori	a5,a5,4
2010048e:	c41c                	sw	a5,8(s0)
20100490:	00ff07b7          	lui	a5,0xff0
20100494:	c45c                	sw	a5,12(s0)
20100496:	581c                	lw	a5,48(s0)
20100498:	8ff9                	and	a5,a5,a4
2010049a:	d81c                	sw	a5,48(s0)
2010049c:	585c                	lw	a5,52(s0)
2010049e:	fff0e737          	lui	a4,0xfff0e
201004a2:	08070713          	addi	a4,a4,128 # fff0e080 <_eusrstack+0xdfd8e080>
201004a6:	8ff9                	and	a5,a5,a4
201004a8:	d85c                	sw	a5,52(s0)
201004aa:	585c                	lw	a5,52(s0)
201004ac:	00080737          	lui	a4,0x80
201004b0:	02070713          	addi	a4,a4,32 # 80020 <_data_lma+0x79be8>
201004b4:	8fd9                	or	a5,a5,a4
201004b6:	d85c                	sw	a5,52(s0)
201004b8:	236d                	jal	20100a62 <GPIO_IPD_Unused>
201004ba:	c202                	sw	zero,4(sp)
201004bc:	c402                	sw	zero,8(sp)
201004be:	c602                	sw	zero,12(sp)
201004c0:	401c                	lw	a5,0(s0)
201004c2:	400216b7          	lui	a3,0x40021
201004c6:	00020637          	lui	a2,0x20
201004ca:	29079793          	bseti	a5,a5,0x10
201004ce:	01000737          	lui	a4,0x1000
201004d2:	c01c                	sw	a5,0(s0)
201004d4:	429c                	lw	a5,0(a3)
201004d6:	8ff1                	and	a5,a5,a2
201004d8:	c43e                	sw	a5,8(sp)
201004da:	4792                	lw	a5,4(sp)
201004dc:	0785                	addi	a5,a5,1 # ff0001 <_data_lma+0xfe9bc9>
201004de:	c23e                	sw	a5,4(sp)
201004e0:	47a2                	lw	a5,8(sp)
201004e2:	e781                	bnez	a5,201004ea <SystemInit+0xba>
201004e4:	4792                	lw	a5,4(sp)
201004e6:	fee797e3          	bne	a5,a4,201004d4 <SystemInit+0xa4>
201004ea:	400217b7          	lui	a5,0x40021
201004ee:	439c                	lw	a5,0(a5)
201004f0:	00020737          	lui	a4,0x20
201004f4:	8ff9                	and	a5,a5,a4
201004f6:	c7e5                	beqz	a5,201005de <SystemInit+0x1ae>
201004f8:	4785                	li	a5,1
201004fa:	c43e                	sw	a5,8(sp)
201004fc:	4722                	lw	a4,8(sp)
201004fe:	4785                	li	a5,1
20100500:	0cf71d63          	bne	a4,a5,201005da <SystemInit+0x1aa>
20100504:	400217b7          	lui	a5,0x40021
20100508:	4798                	lw	a4,8(a5)
2010050a:	76f1                	lui	a3,0xffffc
2010050c:	0ff68693          	addi	a3,a3,255 # ffffc0ff <_eusrstack+0xdfe7c0ff>
20100510:	9b01                	andi	a4,a4,-32
20100512:	c798                	sw	a4,8(a5)
20100514:	4798                	lw	a4,8(a5)
20100516:	01076713          	ori	a4,a4,16
2010051a:	c798                	sw	a4,8(a5)
2010051c:	4798                	lw	a4,8(a5)
2010051e:	8f75                	and	a4,a4,a3
20100520:	c798                	sw	a4,8(a5)
20100522:	4798                	lw	a4,8(a5)
20100524:	02000693          	li	a3,32
20100528:	c798                	sw	a4,8(a5)
2010052a:	4798                	lw	a4,8(a5)
2010052c:	f1f77713          	andi	a4,a4,-225
20100530:	c798                	sw	a4,8(a5)
20100532:	4798                	lw	a4,8(a5)
20100534:	02076713          	ori	a4,a4,32
20100538:	c798                	sw	a4,8(a5)
2010053a:	4798                	lw	a4,8(a5)
2010053c:	0e077713          	andi	a4,a4,224
20100540:	fed71de3          	bne	a4,a3,2010053a <SystemInit+0x10a>
20100544:	4398                	lw	a4,0(a5)
20100546:	020006b7          	lui	a3,0x2000
2010054a:	29871713          	bseti	a4,a4,0x18
2010054e:	c398                	sw	a4,0(a5)
20100550:	400217b7          	lui	a5,0x40021
20100554:	4398                	lw	a4,0(a5)
20100556:	8f75                	and	a4,a4,a3
20100558:	df75                	beqz	a4,20100554 <SystemInit+0x124>
2010055a:	4798                	lw	a4,8(a5)
2010055c:	900006b7          	lui	a3,0x90000
20100560:	16fd                	addi	a3,a3,-1 # 8fffffff <_eusrstack+0x6fe7ffff>
20100562:	49f71713          	bclri	a4,a4,0x1f
20100566:	c798                	sw	a4,8(a5)
20100568:	4798                	lw	a4,8(a5)
2010056a:	8f75                	and	a4,a4,a3
2010056c:	c798                	sw	a4,8(a5)
2010056e:	700006b7          	lui	a3,0x70000
20100572:	400217b7          	lui	a5,0x40021
20100576:	4798                	lw	a4,8(a5)
20100578:	8f75                	and	a4,a4,a3
2010057a:	ff75                	bnez	a4,20100576 <SystemInit+0x146>
2010057c:	43d8                	lw	a4,4(a5)
2010057e:	fffd06b7          	lui	a3,0xfffd0
20100582:	16fd                	addi	a3,a3,-1 # fffcffff <_eusrstack+0xdfe4ffff>
20100584:	f0f77713          	andi	a4,a4,-241
20100588:	c3d8                	sw	a4,4(a5)
2010058a:	43d8                	lw	a4,4(a5)
2010058c:	c3d8                	sw	a4,4(a5)
2010058e:	43d8                	lw	a4,4(a5)
20100590:	8f75                	and	a4,a4,a3
20100592:	c3d8                	sw	a4,4(a5)
20100594:	43d8                	lw	a4,4(a5)
20100596:	400226b7          	lui	a3,0x40022
2010059a:	29171713          	bseti	a4,a4,0x11
2010059e:	c3d8                	sw	a4,4(a5)
201005a0:	4298                	lw	a4,0(a3)
201005a2:	c63a                	sw	a4,12(sp)
201005a4:	4732                	lw	a4,12(sp)
201005a6:	9b71                	andi	a4,a4,-4
201005a8:	c63a                	sw	a4,12(sp)
201005aa:	4732                	lw	a4,12(sp)
201005ac:	00176713          	ori	a4,a4,1
201005b0:	c63a                	sw	a4,12(sp)
201005b2:	4732                	lw	a4,12(sp)
201005b4:	c298                	sw	a4,0(a3)
201005b6:	4798                	lw	a4,8(a5)
201005b8:	400216b7          	lui	a3,0x40021
201005bc:	29f71713          	bseti	a4,a4,0x1f
201005c0:	c798                	sw	a4,8(a5)
201005c2:	43d8                	lw	a4,4(a5)
201005c4:	9b71                	andi	a4,a4,-4
201005c6:	c3d8                	sw	a4,4(a5)
201005c8:	43d8                	lw	a4,4(a5)
201005ca:	00276713          	ori	a4,a4,2
201005ce:	c3d8                	sw	a4,4(a5)
201005d0:	4721                	li	a4,8
201005d2:	42dc                	lw	a5,4(a3)
201005d4:	8bb1                	andi	a5,a5,12
201005d6:	fee79ee3          	bne	a5,a4,201005d2 <SystemInit+0x1a2>
201005da:	0141                	addi	sp,sp,16
201005dc:	b1f1                	j	201002a8 <__riscv_restore_0>
201005de:	c402                	sw	zero,8(sp)
201005e0:	bf31                	j	201004fc <SystemInit+0xcc>

201005e2 <SystemAndCoreClockUpdate>:
201005e2:	400217b7          	lui	a5,0x40021
201005e6:	43d4                	lw	a3,4(a5)
201005e8:	4798                	lw	a4,8(a5)
201005ea:	4621                	li	a2,8
201005ec:	8ab1                	andi	a3,a3,12
201005ee:	02c69463          	bne	a3,a2,20100616 <SystemAndCoreClockUpdate+0x34>
201005f2:	700006b7          	lui	a3,0x70000
201005f6:	8f75                	and	a4,a4,a3
201005f8:	50000637          	lui	a2,0x50000
201005fc:	14c70963          	beq	a4,a2,2010074e <SystemAndCoreClockUpdate+0x16c>
20100600:	02e66063          	bltu	a2,a4,20100620 <SystemAndCoreClockUpdate+0x3e>
20100604:	c71d                	beqz	a4,20100632 <SystemAndCoreClockUpdate+0x50>
20100606:	1c9c47b7          	lui	a5,0x1c9c4
2010060a:	400006b7          	lui	a3,0x40000
2010060e:	80078793          	addi	a5,a5,-2048 # 1c9c3800 <_data_lma+0x1c9bd3c8>
20100612:	06d70763          	beq	a4,a3,20100680 <SystemAndCoreClockUpdate+0x9e>
20100616:	017d87b7          	lui	a5,0x17d8
2010061a:	84078793          	addi	a5,a5,-1984 # 17d7840 <_data_lma+0x17d1408>
2010061e:	a08d                	j	20100680 <SystemAndCoreClockUpdate+0x9e>
20100620:	60000637          	lui	a2,0x60000
20100624:	10c70663          	beq	a4,a2,20100730 <SystemAndCoreClockUpdate+0x14e>
20100628:	077367b7          	lui	a5,0x7736
2010062c:	94078793          	addi	a5,a5,-1728 # 7735940 <_data_lma+0x772f508>
20100630:	b7cd                	j	20100612 <SystemAndCoreClockUpdate+0x30>
20100632:	4790                	lw	a2,8(a5)
20100634:	4794                	lw	a3,8(a5)
20100636:	4798                	lw	a4,8(a5)
20100638:	0a000593          	li	a1,160
2010063c:	0e06f693          	andi	a3,a3,224
20100640:	8321                	srli	a4,a4,0x8
20100642:	03f77713          	andi	a4,a4,63
20100646:	8a7d                	andi	a2,a2,31
20100648:	0705                	addi	a4,a4,1 # 20001 <_data_lma+0x19bc9>
2010064a:	08b69863          	bne	a3,a1,201006da <SystemAndCoreClockUpdate+0xf8>
2010064e:	1dcd67b7          	lui	a5,0x1dcd6
20100652:	50078793          	addi	a5,a5,1280 # 1dcd6500 <_data_lma+0x1dcd00c8>
20100656:	02e7d733          	divu	a4,a5,a4
2010065a:	201307b7          	lui	a5,0x20130
2010065e:	12078793          	addi	a5,a5,288 # 20130120 <PLLMULTB>
20100662:	97b2                	add	a5,a5,a2
20100664:	239c                	lbu	a5,0(a5)
20100666:	4691                	li	a3,4
20100668:	02e787b3          	mul	a5,a5,a4
2010066c:	00d60963          	beq	a2,a3,2010067e <SystemAndCoreClockUpdate+0x9c>
20100670:	6685                	lui	a3,0x1
20100672:	54068693          	addi	a3,a3,1344 # 1540 <__stack_size+0xd40>
20100676:	00c6d6b3          	srl	a3,a3,a2
2010067a:	8a85                	andi	a3,a3,1
2010067c:	c291                	beqz	a3,20100680 <SystemAndCoreClockUpdate+0x9e>
2010067e:	8385                	srli	a5,a5,0x1
20100680:	20132737          	lui	a4,0x20132
20100684:	88f72c23          	sw	a5,-1896(a4) # 20131898 <SystemClock>
20100688:	40021637          	lui	a2,0x40021
2010068c:	4254                	lw	a3,4(a2)
2010068e:	20130737          	lui	a4,0x20130
20100692:	11070713          	addi	a4,a4,272 # 20130110 <HBPrescTB>
20100696:	8291                	srli	a3,a3,0x4
20100698:	8abd                	andi	a3,a3,15
2010069a:	9736                	add	a4,a4,a3
2010069c:	2318                	lbu	a4,0(a4)
2010069e:	201326b7          	lui	a3,0x20132
201006a2:	89068693          	addi	a3,a3,-1904 # 20131890 <FPRETB>
201006a6:	00e7d7b3          	srl	a5,a5,a4
201006aa:	4258                	lw	a4,4(a2)
201006ac:	6641                	lui	a2,0x10
201006ae:	8341                	srli	a4,a4,0x10
201006b0:	8b0d                	andi	a4,a4,3
201006b2:	9736                	add	a4,a4,a3
201006b4:	2318                	lbu	a4,0(a4)
201006b6:	201466b7          	lui	a3,0x20146
201006ba:	00e7d733          	srl	a4,a5,a4
201006be:	8ee6a223          	sw	a4,-1820(a3) # 201458e4 <HCLKClock>
201006c2:	e000f6b7          	lui	a3,0xe000f
201006c6:	d106a683          	lw	a3,-752(a3) # e000ed10 <_eusrstack+0xbfe8ed10>
201006ca:	8ef1                	and	a3,a3,a2
201006cc:	e291                	bnez	a3,201006d0 <SystemAndCoreClockUpdate+0xee>
201006ce:	87ba                	mv	a5,a4
201006d0:	20132737          	lui	a4,0x20132
201006d4:	88f72a23          	sw	a5,-1900(a4) # 20131894 <SystemCoreClock>
201006d8:	8082                	ret
201006da:	0e000593          	li	a1,224
201006de:	02b69263          	bne	a3,a1,20100702 <SystemAndCoreClockUpdate+0x120>
201006e2:	5bd4                	lw	a3,52(a5)
201006e4:	201307b7          	lui	a5,0x20130
201006e8:	10078793          	addi	a5,a5,256 # 20130100 <SERDESPLLMULTB>
201006ec:	82c1                	srli	a3,a3,0x10
201006ee:	97b6                	add	a5,a5,a3
201006f0:	239c                	lbu	a5,0(a5)
201006f2:	017d86b7          	lui	a3,0x17d8
201006f6:	84068693          	addi	a3,a3,-1984 # 17d7840 <_data_lma+0x17d1408>
201006fa:	02d787b3          	mul	a5,a5,a3
201006fe:	8385                	srli	a5,a5,0x1
20100700:	bf99                	j	20100656 <SystemAndCoreClockUpdate+0x74>
20100702:	08000793          	li	a5,128
20100706:	00f69763          	bne	a3,a5,20100714 <SystemAndCoreClockUpdate+0x132>
2010070a:	1c9c47b7          	lui	a5,0x1c9c4
2010070e:	80078793          	addi	a5,a5,-2048 # 1c9c3800 <_data_lma+0x1c9bd3c8>
20100712:	b791                	j	20100656 <SystemAndCoreClockUpdate+0x74>
20100714:	0c000793          	li	a5,192
20100718:	00f69763          	bne	a3,a5,20100726 <SystemAndCoreClockUpdate+0x144>
2010071c:	077367b7          	lui	a5,0x7736
20100720:	94078793          	addi	a5,a5,-1728 # 7735940 <_data_lma+0x772f508>
20100724:	bf0d                	j	20100656 <SystemAndCoreClockUpdate+0x74>
20100726:	017d87b7          	lui	a5,0x17d8
2010072a:	84078793          	addi	a5,a5,-1984 # 17d7840 <_data_lma+0x17d1408>
2010072e:	b725                	j	20100656 <SystemAndCoreClockUpdate+0x74>
20100730:	5bd8                	lw	a4,52(a5)
20100732:	201307b7          	lui	a5,0x20130
20100736:	10078793          	addi	a5,a5,256 # 20130100 <SERDESPLLMULTB>
2010073a:	8341                	srli	a4,a4,0x10
2010073c:	97ba                	add	a5,a5,a4
2010073e:	239c                	lbu	a5,0(a5)
20100740:	017d8737          	lui	a4,0x17d8
20100744:	84070713          	addi	a4,a4,-1984 # 17d7840 <_data_lma+0x17d1408>
20100748:	02e787b3          	mul	a5,a5,a4
2010074c:	bf0d                	j	2010067e <SystemAndCoreClockUpdate+0x9c>
2010074e:	1dcd67b7          	lui	a5,0x1dcd6
20100752:	50078793          	addi	a5,a5,1280 # 1dcd6500 <_data_lma+0x1dcd00c8>
20100756:	b72d                	j	20100680 <SystemAndCoreClockUpdate+0x9e>

20100758 <ADC1_2_IRQHandler>:
20100758:	a001                	j	20100758 <ADC1_2_IRQHandler>

2010075a <FLASH_BOOT_GetMode>:
2010075a:	1101                	addi	sp,sp,-32
2010075c:	ce06                	sw	ra,28(sp)
2010075e:	cc22                	sw	s0,24(sp)
20100760:	1000                	addi	s0,sp,32
20100762:	080007b7          	lui	a5,0x8000
20100766:	439c                	lw	a5,0(a5)
20100768:	fef42623          	sw	a5,-20(s0) # 40020fec <_eusrstack+0x1fea0fec>
2010076c:	2015                	jal	20100790 <FLASH_GetUserOptionByte>
2010076e:	87aa                	mv	a5,a0
20100770:	fef42623          	sw	a5,-20(s0)
20100774:	fec42783          	lw	a5,-20(s0)
20100778:	f007f793          	andi	a5,a5,-256
2010077c:	fef42623          	sw	a5,-20(s0)
20100780:	fec42783          	lw	a5,-20(s0)
20100784:	8399                	srli	a5,a5,0x6
20100786:	853e                	mv	a0,a5
20100788:	40f2                	lw	ra,28(sp)
2010078a:	4462                	lw	s0,24(sp)
2010078c:	6105                	addi	sp,sp,32
2010078e:	8082                	ret

20100790 <FLASH_GetUserOptionByte>:
20100790:	400227b7          	lui	a5,0x40022
20100794:	4fc8                	lw	a0,28(a5)
20100796:	8109                	srli	a0,a0,0x2
20100798:	8082                	ret

2010079a <GPIO_Init>:
2010079a:	459c                	lw	a5,8(a1)
2010079c:	0005d803          	lhu	a6,0(a1)
201007a0:	0107f713          	andi	a4,a5,16
201007a4:	00f7f893          	andi	a7,a5,15
201007a8:	cb1d                	beqz	a4,201007de <GPIO_Init+0x44>
201007aa:	4d58                	lw	a4,28(a0)
201007ac:	0018e893          	ori	a7,a7,1
201007b0:	4681                	li	a3,0
201007b2:	4e8d                	li	t4,3
201007b4:	4e41                	li	t3,16
201007b6:	28d01633          	bset	a2,zero,a3
201007ba:	00c87333          	and	t1,a6,a2
201007be:	00661c63          	bne	a2,t1,201007d6 <GPIO_Init+0x3c>
201007c2:	00169313          	slli	t1,a3,0x1
201007c6:	006e9633          	sll	a2,t4,t1
201007ca:	40c77733          	andn	a4,a4,a2
201007ce:	41d0                	lw	a2,4(a1)
201007d0:	00661633          	sll	a2,a2,t1
201007d4:	8f51                	or	a4,a4,a2
201007d6:	0685                	addi	a3,a3,1
201007d8:	fdc69fe3          	bne	a3,t3,201007b6 <GPIO_Init+0x1c>
201007dc:	cd58                	sw	a4,28(a0)
201007de:	0ff87713          	zext.b	a4,a6
201007e2:	cf1d                	beqz	a4,20100820 <GPIO_Init+0x86>
201007e4:	4118                	lw	a4,0(a0)
201007e6:	4681                	li	a3,0
201007e8:	02800313          	li	t1,40
201007ec:	4e3d                	li	t3,15
201007ee:	04800e93          	li	t4,72
201007f2:	45a1                	li	a1,8
201007f4:	28d01633          	bset	a2,zero,a3
201007f8:	00c87f33          	and	t5,a6,a2
201007fc:	01e61e63          	bne	a2,t5,20100818 <GPIO_Init+0x7e>
20100800:	06679563          	bne	a5,t1,2010086a <GPIO_Init+0xd0>
20100804:	c950                	sw	a2,20(a0)
20100806:	00269613          	slli	a2,a3,0x2
2010080a:	00ce1f33          	sll	t5,t3,a2
2010080e:	00c89633          	sll	a2,a7,a2
20100812:	41e77733          	andn	a4,a4,t5
20100816:	8f51                	or	a4,a4,a2
20100818:	0685                	addi	a3,a3,1
2010081a:	fcb69de3          	bne	a3,a1,201007f4 <GPIO_Init+0x5a>
2010081e:	c118                	sw	a4,0(a0)
20100820:	0ff00713          	li	a4,255
20100824:	05077263          	bgeu	a4,a6,20100868 <GPIO_Init+0xce>
20100828:	4154                	lw	a3,4(a0)
2010082a:	4601                	li	a2,0
2010082c:	02800e13          	li	t3,40
20100830:	04800e93          	li	t4,72
20100834:	4321                	li	t1,8
20100836:	00860713          	addi	a4,a2,8 # 10008 <_data_lma+0x9bd0>
2010083a:	28e01733          	bset	a4,zero,a4
2010083e:	00e875b3          	and	a1,a6,a4
20100842:	00b71f63          	bne	a4,a1,20100860 <GPIO_Init+0xc6>
20100846:	03c79663          	bne	a5,t3,20100872 <GPIO_Init+0xd8>
2010084a:	c958                	sw	a4,20(a0)
2010084c:	00261713          	slli	a4,a2,0x2
20100850:	45bd                	li	a1,15
20100852:	00e595b3          	sll	a1,a1,a4
20100856:	00e89733          	sll	a4,a7,a4
2010085a:	40b6f6b3          	andn	a3,a3,a1
2010085e:	8ed9                	or	a3,a3,a4
20100860:	0605                	addi	a2,a2,1
20100862:	fc661ae3          	bne	a2,t1,20100836 <GPIO_Init+0x9c>
20100866:	c154                	sw	a3,4(a0)
20100868:	8082                	ret
2010086a:	f9d79ee3          	bne	a5,t4,20100806 <GPIO_Init+0x6c>
2010086e:	c910                	sw	a2,16(a0)
20100870:	bf59                	j	20100806 <GPIO_Init+0x6c>
20100872:	fdd79de3          	bne	a5,t4,2010084c <GPIO_Init+0xb2>
20100876:	c918                	sw	a4,16(a0)
20100878:	bfd1                	j	2010084c <GPIO_Init+0xb2>

2010087a <GPIO_PinAFConfig>:
2010087a:	40011737          	lui	a4,0x40011
2010087e:	479d                	li	a5,7
20100880:	80070693          	addi	a3,a4,-2048 # 40010800 <_eusrstack+0x1fe90800>
20100884:	02b7f863          	bgeu	a5,a1,201008b4 <GPIO_PinAFConfig+0x3a>
20100888:	ff858793          	addi	a5,a1,-8
2010088c:	0ff7f793          	zext.b	a5,a5
20100890:	06d51a63          	bne	a0,a3,20100904 <GPIO_PinAFConfig+0x8a>
20100894:	400106b7          	lui	a3,0x40010
20100898:	468c                	lw	a1,8(a3)
2010089a:	078a                	slli	a5,a5,0x2
2010089c:	473d                	li	a4,15
2010089e:	00f71733          	sll	a4,a4,a5
201008a2:	40e5f733          	andn	a4,a1,a4
201008a6:	c698                	sw	a4,8(a3)
201008a8:	4698                	lw	a4,8(a3)
201008aa:	00f617b3          	sll	a5,a2,a5
201008ae:	8fd9                	or	a5,a5,a4
201008b0:	c69c                	sw	a5,8(a3)
201008b2:	8082                	ret
201008b4:	02d50863          	beq	a0,a3,201008e4 <GPIO_PinAFConfig+0x6a>
201008b8:	c0070793          	addi	a5,a4,-1024
201008bc:	08f50a63          	beq	a0,a5,20100950 <GPIO_PinAFConfig+0xd6>
201008c0:	16e51c63          	bne	a0,a4,20100a38 <GPIO_PinAFConfig+0x1be>
201008c4:	40010737          	lui	a4,0x40010
201008c8:	4b54                	lw	a3,20(a4)
201008ca:	058a                	slli	a1,a1,0x2
201008cc:	47bd                	li	a5,15
201008ce:	00b797b3          	sll	a5,a5,a1
201008d2:	40f6f7b3          	andn	a5,a3,a5
201008d6:	cb5c                	sw	a5,20(a4)
201008d8:	4b5c                	lw	a5,20(a4)
201008da:	00b615b3          	sll	a1,a2,a1
201008de:	8ddd                	or	a1,a1,a5
201008e0:	cb4c                	sw	a1,20(a4)
201008e2:	8082                	ret
201008e4:	40010737          	lui	a4,0x40010
201008e8:	4354                	lw	a3,4(a4)
201008ea:	058a                	slli	a1,a1,0x2
201008ec:	47bd                	li	a5,15
201008ee:	00b797b3          	sll	a5,a5,a1
201008f2:	40f6f7b3          	andn	a5,a3,a5
201008f6:	c35c                	sw	a5,4(a4)
201008f8:	435c                	lw	a5,4(a4)
201008fa:	00b615b3          	sll	a1,a2,a1
201008fe:	8ddd                	or	a1,a1,a5
20100900:	c34c                	sw	a1,4(a4)
20100902:	8082                	ret
20100904:	c0070693          	addi	a3,a4,-1024 # 4000fc00 <_eusrstack+0x1fe8fc00>
20100908:	02d50463          	beq	a0,a3,20100930 <GPIO_PinAFConfig+0xb6>
2010090c:	10e51263          	bne	a0,a4,20100a10 <GPIO_PinAFConfig+0x196>
20100910:	400106b7          	lui	a3,0x40010
20100914:	4e8c                	lw	a1,24(a3)
20100916:	078a                	slli	a5,a5,0x2
20100918:	473d                	li	a4,15
2010091a:	00f71733          	sll	a4,a4,a5
2010091e:	40e5f733          	andn	a4,a1,a4
20100922:	ce98                	sw	a4,24(a3)
20100924:	4e98                	lw	a4,24(a3)
20100926:	00f617b3          	sll	a5,a2,a5
2010092a:	8fd9                	or	a5,a5,a4
2010092c:	ce9c                	sw	a5,24(a3)
2010092e:	8082                	ret
20100930:	400106b7          	lui	a3,0x40010
20100934:	4a8c                	lw	a1,16(a3)
20100936:	078a                	slli	a5,a5,0x2
20100938:	473d                	li	a4,15
2010093a:	00f71733          	sll	a4,a4,a5
2010093e:	40e5f733          	andn	a4,a1,a4
20100942:	ca98                	sw	a4,16(a3)
20100944:	4a98                	lw	a4,16(a3)
20100946:	00f617b3          	sll	a5,a2,a5
2010094a:	8fd9                	or	a5,a5,a4
2010094c:	ca9c                	sw	a5,16(a3)
2010094e:	8082                	ret
20100950:	40010737          	lui	a4,0x40010
20100954:	4754                	lw	a3,12(a4)
20100956:	058a                	slli	a1,a1,0x2
20100958:	47bd                	li	a5,15
2010095a:	00b797b3          	sll	a5,a5,a1
2010095e:	40f6f7b3          	andn	a5,a3,a5
20100962:	c75c                	sw	a5,12(a4)
20100964:	475c                	lw	a5,12(a4)
20100966:	00b615b3          	sll	a1,a2,a1
2010096a:	8ddd                	or	a1,a1,a5
2010096c:	c74c                	sw	a1,12(a4)
2010096e:	8082                	ret
20100970:	40012737          	lui	a4,0x40012
20100974:	80070713          	addi	a4,a4,-2048 # 40011800 <_eusrstack+0x1fe91800>
20100978:	87ae                	mv	a5,a1
2010097a:	04e51863          	bne	a0,a4,201009ca <GPIO_PinAFConfig+0x150>
2010097e:	40010737          	lui	a4,0x40010
20100982:	5354                	lw	a3,36(a4)
20100984:	058a                	slli	a1,a1,0x2
20100986:	47bd                	li	a5,15
20100988:	00b797b3          	sll	a5,a5,a1
2010098c:	40f6f7b3          	andn	a5,a3,a5
20100990:	d35c                	sw	a5,36(a4)
20100992:	535c                	lw	a5,36(a4)
20100994:	00b615b3          	sll	a1,a2,a1
20100998:	8ddd                	or	a1,a1,a5
2010099a:	d34c                	sw	a1,36(a4)
2010099c:	8082                	ret
2010099e:	40012737          	lui	a4,0x40012
201009a2:	80070713          	addi	a4,a4,-2048 # 40011800 <_eusrstack+0x1fe91800>
201009a6:	02e51263          	bne	a0,a4,201009ca <GPIO_PinAFConfig+0x150>
201009aa:	400106b7          	lui	a3,0x40010
201009ae:	568c                	lw	a1,40(a3)
201009b0:	078a                	slli	a5,a5,0x2
201009b2:	473d                	li	a4,15
201009b4:	00f71733          	sll	a4,a4,a5
201009b8:	40e5f733          	andn	a4,a1,a4
201009bc:	d698                	sw	a4,40(a3)
201009be:	5698                	lw	a4,40(a3)
201009c0:	00f617b3          	sll	a5,a2,a5
201009c4:	8fd9                	or	a5,a5,a4
201009c6:	d69c                	sw	a5,40(a3)
201009c8:	8082                	ret
201009ca:	40012737          	lui	a4,0x40012
201009ce:	c0070713          	addi	a4,a4,-1024 # 40011c00 <_eusrstack+0x1fe91c00>
201009d2:	08e51763          	bne	a0,a4,20100a60 <GPIO_PinAFConfig+0x1e6>
201009d6:	078a                	slli	a5,a5,0x2
201009d8:	473d                	li	a4,15
201009da:	00f71733          	sll	a4,a4,a5
201009de:	00f61633          	sll	a2,a2,a5
201009e2:	479d                	li	a5,7
201009e4:	fff74713          	not	a4,a4
201009e8:	00b7fb63          	bgeu	a5,a1,201009fe <GPIO_PinAFConfig+0x184>
201009ec:	400107b7          	lui	a5,0x40010
201009f0:	5b94                	lw	a3,48(a5)
201009f2:	8f75                	and	a4,a4,a3
201009f4:	db98                	sw	a4,48(a5)
201009f6:	5b98                	lw	a4,48(a5)
201009f8:	8f51                	or	a4,a4,a2
201009fa:	db98                	sw	a4,48(a5)
201009fc:	8082                	ret
201009fe:	400107b7          	lui	a5,0x40010
20100a02:	57d4                	lw	a3,44(a5)
20100a04:	8f75                	and	a4,a4,a3
20100a06:	d7d8                	sw	a4,44(a5)
20100a08:	57d8                	lw	a4,44(a5)
20100a0a:	8f51                	or	a4,a4,a2
20100a0c:	d7d8                	sw	a4,44(a5)
20100a0e:	8082                	ret
20100a10:	40070713          	addi	a4,a4,1024
20100a14:	f8e515e3          	bne	a0,a4,2010099e <GPIO_PinAFConfig+0x124>
20100a18:	400106b7          	lui	a3,0x40010
20100a1c:	528c                	lw	a1,32(a3)
20100a1e:	078a                	slli	a5,a5,0x2
20100a20:	473d                	li	a4,15
20100a22:	00f71733          	sll	a4,a4,a5
20100a26:	40e5f733          	andn	a4,a1,a4
20100a2a:	d298                	sw	a4,32(a3)
20100a2c:	5298                	lw	a4,32(a3)
20100a2e:	00f617b3          	sll	a5,a2,a5
20100a32:	8fd9                	or	a5,a5,a4
20100a34:	d29c                	sw	a5,32(a3)
20100a36:	8082                	ret
20100a38:	40070713          	addi	a4,a4,1024
20100a3c:	f2e51ae3          	bne	a0,a4,20100970 <GPIO_PinAFConfig+0xf6>
20100a40:	40010737          	lui	a4,0x40010
20100a44:	4f54                	lw	a3,28(a4)
20100a46:	058a                	slli	a1,a1,0x2
20100a48:	47bd                	li	a5,15
20100a4a:	00b797b3          	sll	a5,a5,a1
20100a4e:	40f6f7b3          	andn	a5,a3,a5
20100a52:	cf5c                	sw	a5,28(a4)
20100a54:	4f5c                	lw	a5,28(a4)
20100a56:	00b615b3          	sll	a1,a2,a1
20100a5a:	8ddd                	or	a1,a1,a5
20100a5c:	cf4c                	sw	a1,28(a4)
20100a5e:	8082                	ret
20100a60:	8082                	ret

20100a62 <GPIO_IPD_Unused>:
20100a62:	823ff2ef          	jal	t0,20100284 <__riscv_save_0>
20100a66:	1141                	addi	sp,sp,-16
20100a68:	4585                	li	a1,1
20100a6a:	0fc00513          	li	a0,252
20100a6e:	c202                	sw	zero,4(sp)
20100a70:	c402                	sw	zero,8(sp)
20100a72:	c602                	sw	zero,12(sp)
20100a74:	2941                	jal	20100f04 <RCC_HB2PeriphClockCmd>
20100a76:	31d5                	jal	2010075a <FLASH_BOOT_GetMode>
20100a78:	1ffff7b7          	lui	a5,0x1ffff
20100a7c:	7047a783          	lw	a5,1796(a5) # 1ffff704 <_data_lma+0x1fff92cc>
20100a80:	0f07f793          	andi	a5,a5,240
20100a84:	e38d                	bnez	a5,20100aa6 <GPIO_IPD_Unused+0x44>
20100a86:	4585                	li	a1,1
20100a88:	80000537          	lui	a0,0x80000
20100a8c:	2951                	jal	20100f20 <RCC_HB1PeriphClockCmd>
20100a8e:	400087b7          	lui	a5,0x40008
20100a92:	40078793          	addi	a5,a5,1024 # 40008400 <_eusrstack+0x1fe88400>
20100a96:	53d8                	lw	a4,36(a5)
20100a98:	4581                	li	a1,0
20100a9a:	80000537          	lui	a0,0x80000
20100a9e:	00176713          	ori	a4,a4,1
20100aa2:	d3d8                	sw	a4,36(a5)
20100aa4:	29b5                	jal	20100f20 <RCC_HB1PeriphClockCmd>
20100aa6:	1ffff7b7          	lui	a5,0x1ffff
20100aaa:	7047a783          	lw	a5,1796(a5) # 1ffff704 <_data_lma+0x1fff92cc>
20100aae:	41710737          	lui	a4,0x41710
20100ab2:	50d70713          	addi	a4,a4,1293 # 4171050d <_eusrstack+0x2159050d>
20100ab6:	f0f7f793          	andi	a5,a5,-241
20100aba:	08e78063          	beq	a5,a4,20100b3a <GPIO_IPD_Unused+0xd8>
20100abe:	02f76163          	bltu	a4,a5,20100ae0 <GPIO_IPD_Unused+0x7e>
20100ac2:	41500737          	lui	a4,0x41500
20100ac6:	50d70713          	addi	a4,a4,1293 # 4150050d <_eusrstack+0x2138050d>
20100aca:	0ce78d63          	beq	a5,a4,20100ba4 <GPIO_IPD_Unused+0x142>
20100ace:	41600737          	lui	a4,0x41600
20100ad2:	50d70713          	addi	a4,a4,1293 # 4160050d <_eusrstack+0x2148050d>
20100ad6:	12e78563          	beq	a5,a4,20100c00 <GPIO_IPD_Unused+0x19e>
20100ada:	0141                	addi	sp,sp,16
20100adc:	fccff06f          	j	201002a8 <__riscv_restore_0>
20100ae0:	41720737          	lui	a4,0x41720
20100ae4:	50d70713          	addi	a4,a4,1293 # 4172050d <_eusrstack+0x215a050d>
20100ae8:	fee799e3          	bne	a5,a4,20100ada <GPIO_IPD_Unused+0x78>
20100aec:	6409                	lui	s0,0x2
20100aee:	fdf40793          	addi	a5,s0,-33 # 1fdf <__stack_size+0x17df>
20100af2:	400114b7          	lui	s1,0x40011
20100af6:	827c                	sh	a5,4(sp)
20100af8:	004c                	addi	a1,sp,4
20100afa:	02800793          	li	a5,40
20100afe:	80048513          	addi	a0,s1,-2048 # 40010800 <_eusrstack+0x1fe90800>
20100b02:	c63e                	sw	a5,12(sp)
20100b04:	3959                	jal	2010079a <GPIO_Init>
20100b06:	77e1                	lui	a5,0xffff8
20100b08:	0fc78793          	addi	a5,a5,252 # ffff80fc <_eusrstack+0xdfe780fc>
20100b0c:	004c                	addi	a1,sp,4
20100b0e:	c0048513          	addi	a0,s1,-1024
20100b12:	827c                	sh	a5,4(sp)
20100b14:	3159                	jal	2010079a <GPIO_Init>
20100b16:	77f9                	lui	a5,0xffffe
20100b18:	03078793          	addi	a5,a5,48 # ffffe030 <_eusrstack+0xdfe7e030>
20100b1c:	004c                	addi	a1,sp,4
20100b1e:	40011537          	lui	a0,0x40011
20100b22:	827c                	sh	a5,4(sp)
20100b24:	399d                	jal	2010079a <GPIO_Init>
20100b26:	30000793          	li	a5,768
20100b2a:	004c                	addi	a1,sp,4
20100b2c:	40048513          	addi	a0,s1,1024
20100b30:	1471                	addi	s0,s0,-4
20100b32:	827c                	sh	a5,4(sp)
20100b34:	319d                	jal	2010079a <GPIO_Init>
20100b36:	8260                	sh	s0,4(sp)
20100b38:	a0b9                	j	20100b86 <GPIO_IPD_Unused+0x124>
20100b3a:	40011437          	lui	s0,0x40011
20100b3e:	1ce00793          	li	a5,462
20100b42:	827c                	sh	a5,4(sp)
20100b44:	004c                	addi	a1,sp,4
20100b46:	02800793          	li	a5,40
20100b4a:	80040513          	addi	a0,s0,-2048 # 40010800 <_eusrstack+0x1fe90800>
20100b4e:	c63e                	sw	a5,12(sp)
20100b50:	31a9                	jal	2010079a <GPIO_Init>
20100b52:	77e1                	lui	a5,0xffff8
20100b54:	0e478793          	addi	a5,a5,228 # ffff80e4 <_eusrstack+0xdfe780e4>
20100b58:	004c                	addi	a1,sp,4
20100b5a:	c0040513          	addi	a0,s0,-1024
20100b5e:	827c                	sh	a5,4(sp)
20100b60:	392d                	jal	2010079a <GPIO_Init>
20100b62:	77f9                	lui	a5,0xffffe
20100b64:	03078793          	addi	a5,a5,48 # ffffe030 <_eusrstack+0xdfe7e030>
20100b68:	004c                	addi	a1,sp,4
20100b6a:	40011537          	lui	a0,0x40011
20100b6e:	827c                	sh	a5,4(sp)
20100b70:	312d                	jal	2010079a <GPIO_Init>
20100b72:	30000793          	li	a5,768
20100b76:	004c                	addi	a1,sp,4
20100b78:	40040513          	addi	a0,s0,1024
20100b7c:	827c                	sh	a5,4(sp)
20100b7e:	3931                	jal	2010079a <GPIO_Init>
20100b80:	38400793          	li	a5,900
20100b84:	827c                	sh	a5,4(sp)
20100b86:	40012437          	lui	s0,0x40012
20100b8a:	004c                	addi	a1,sp,4
20100b8c:	80040513          	addi	a0,s0,-2048 # 40011800 <_eusrstack+0x1fe91800>
20100b90:	3129                	jal	2010079a <GPIO_Init>
20100b92:	6791                	lui	a5,0x4
20100b94:	fc078793          	addi	a5,a5,-64 # 3fc0 <__stack_size+0x37c0>
20100b98:	004c                	addi	a1,sp,4
20100b9a:	c0040513          	addi	a0,s0,-1024
20100b9e:	827c                	sh	a5,4(sp)
20100ba0:	3eed                	jal	2010079a <GPIO_Init>
20100ba2:	bf25                	j	20100ada <GPIO_IPD_Unused+0x78>
20100ba4:	40011437          	lui	s0,0x40011
20100ba8:	10000793          	li	a5,256
20100bac:	80040513          	addi	a0,s0,-2048 # 40010800 <_eusrstack+0x1fe90800>
20100bb0:	827c                	sh	a5,4(sp)
20100bb2:	004c                	addi	a1,sp,4
20100bb4:	02800793          	li	a5,40
20100bb8:	c63e                	sw	a5,12(sp)
20100bba:	36c5                	jal	2010079a <GPIO_Init>
20100bbc:	02400793          	li	a5,36
20100bc0:	c0040513          	addi	a0,s0,-1024
20100bc4:	004c                	addi	a1,sp,4
20100bc6:	827c                	sh	a5,4(sp)
20100bc8:	3ec9                	jal	2010079a <GPIO_Init>
20100bca:	77f9                	lui	a5,0xffffe
20100bcc:	02078793          	addi	a5,a5,32 # ffffe020 <_eusrstack+0xdfe7e020>
20100bd0:	004c                	addi	a1,sp,4
20100bd2:	40011537          	lui	a0,0x40011
20100bd6:	827c                	sh	a5,4(sp)
20100bd8:	36c9                	jal	2010079a <GPIO_Init>
20100bda:	57dd                	li	a5,-9
20100bdc:	40040513          	addi	a0,s0,1024
20100be0:	004c                	addi	a1,sp,4
20100be2:	827c                	sh	a5,4(sp)
20100be4:	40012437          	lui	s0,0x40012
20100be8:	3e4d                	jal	2010079a <GPIO_Init>
20100bea:	78700793          	li	a5,1927
20100bee:	004c                	addi	a1,sp,4
20100bf0:	80040513          	addi	a0,s0,-2048 # 40011800 <_eusrstack+0x1fe91800>
20100bf4:	827c                	sh	a5,4(sp)
20100bf6:	3655                	jal	2010079a <GPIO_Init>
20100bf8:	77e1                	lui	a5,0xffff8
20100bfa:	fc77c793          	xori	a5,a5,-57
20100bfe:	bf69                	j	20100b98 <GPIO_IPD_Unused+0x136>
20100c00:	40011437          	lui	s0,0x40011
20100c04:	70000793          	li	a5,1792
20100c08:	80040513          	addi	a0,s0,-2048 # 40010800 <_eusrstack+0x1fe90800>
20100c0c:	827c                	sh	a5,4(sp)
20100c0e:	004c                	addi	a1,sp,4
20100c10:	02800793          	li	a5,40
20100c14:	c63e                	sw	a5,12(sp)
20100c16:	3651                	jal	2010079a <GPIO_Init>
20100c18:	c0400793          	li	a5,-1020
20100c1c:	c0040513          	addi	a0,s0,-1024
20100c20:	004c                	addi	a1,sp,4
20100c22:	827c                	sh	a5,4(sp)
20100c24:	3e9d                	jal	2010079a <GPIO_Init>
20100c26:	77f9                	lui	a5,0xffffe
20100c28:	004c                	addi	a1,sp,4
20100c2a:	40011537          	lui	a0,0x40011
20100c2e:	827c                	sh	a5,4(sp)
20100c30:	36ad                	jal	2010079a <GPIO_Init>
20100c32:	9f300793          	li	a5,-1549
20100c36:	40040513          	addi	a0,s0,1024
20100c3a:	004c                	addi	a1,sp,4
20100c3c:	827c                	sh	a5,4(sp)
20100c3e:	3eb1                	jal	2010079a <GPIO_Init>
20100c40:	77e1                	lui	a5,0xffff8
20100c42:	40012437          	lui	s0,0x40012
20100c46:	dff7c793          	xori	a5,a5,-513
20100c4a:	004c                	addi	a1,sp,4
20100c4c:	80040513          	addi	a0,s0,-2048 # 40011800 <_eusrstack+0x1fe91800>
20100c50:	827c                	sh	a5,4(sp)
20100c52:	36a1                	jal	2010079a <GPIO_Init>
20100c54:	6795                	lui	a5,0x5
20100c56:	83f78793          	addi	a5,a5,-1985 # 483f <__stack_size+0x403f>
20100c5a:	bf3d                	j	20100b98 <GPIO_IPD_Unused+0x136>

20100c5c <HSEM_ITConfig>:
20100c5c:	28a01533          	bset	a0,zero,a0
20100c60:	c989                	beqz	a1,20100c72 <HSEM_ITConfig+0x16>
20100c62:	e000c737          	lui	a4,0xe000c
20100c66:	30072783          	lw	a5,768(a4) # e000c300 <_eusrstack+0xbfe8c300>
20100c6a:	8fc9                	or	a5,a5,a0
20100c6c:	30f72023          	sw	a5,768(a4)
20100c70:	8082                	ret
20100c72:	e000c7b7          	lui	a5,0xe000c
20100c76:	3007a703          	lw	a4,768(a5) # e000c300 <_eusrstack+0xbfe8c300>
20100c7a:	40a77533          	andn	a0,a4,a0
20100c7e:	30a7a023          	sw	a0,768(a5)
20100c82:	8082                	ret

20100c84 <HSEM_ClearFlag>:
20100c84:	e000c7b7          	lui	a5,0xe000c
20100c88:	28a01533          	bset	a0,zero,a0
20100c8c:	30a7a423          	sw	a0,776(a5) # e000c308 <_eusrstack+0xbfe8c308>
20100c90:	8082                	ret

20100c92 <PWR_EnterSTOPMode>:
20100c92:	40007737          	lui	a4,0x40007
20100c96:	431c                	lw	a5,0(a4)
20100c98:	9bf9                	andi	a5,a5,-2
20100c9a:	8fc9                	or	a5,a5,a0
20100c9c:	c31c                	sw	a5,0(a4)
20100c9e:	e000f737          	lui	a4,0xe000f
20100ca2:	d1072783          	lw	a5,-752(a4) # e000ed10 <_eusrstack+0xbfe8ed10>
20100ca6:	0047e793          	ori	a5,a5,4
20100caa:	d0f72823          	sw	a5,-752(a4)
20100cae:	4785                	li	a5,1
20100cb0:	02f59163          	bne	a1,a5,20100cd2 <PWR_EnterSTOPMode+0x40>
20100cb4:	d1072783          	lw	a5,-752(a4)
20100cb8:	9bdd                	andi	a5,a5,-9
20100cba:	d0f72823          	sw	a5,-752(a4)
20100cbe:	10500073          	wfi
20100cc2:	e000f737          	lui	a4,0xe000f
20100cc6:	d1072783          	lw	a5,-752(a4) # e000ed10 <_eusrstack+0xbfe8ed10>
20100cca:	9bed                	andi	a5,a5,-5
20100ccc:	d0f72823          	sw	a5,-752(a4)
20100cd0:	8082                	ret
20100cd2:	400107b7          	lui	a5,0x40010
20100cd6:	40078593          	addi	a1,a5,1024 # 40010400 <_eusrstack+0x1fe90400>
20100cda:	201466b7          	lui	a3,0x20146
20100cde:	8f46a603          	lw	a2,-1804(a3) # 201458f4 <WFE_MASK>
20100ce2:	4188                	lw	a0,0(a1)
20100ce4:	8e49                	or	a2,a2,a0
20100ce6:	c190                	sw	a2,0(a1)
20100ce8:	201465b7          	lui	a1,0x20146
20100cec:	8e05a423          	sw	zero,-1816(a1) # 201458e8 <WFE_WkupSource>
20100cf0:	567d                	li	a2,-1
20100cf2:	c8c72223          	sw	a2,-892(a4)
20100cf6:	d1072603          	lw	a2,-752(a4)
20100cfa:	00866613          	ori	a2,a2,8
20100cfe:	d0c72823          	sw	a2,-752(a4)
20100d02:	10500073          	wfi
20100d06:	41478793          	addi	a5,a5,1044
20100d0a:	4398                	lw	a4,0(a5)
20100d0c:	8f46a603          	lw	a2,-1804(a3)
20100d10:	8f71                	and	a4,a4,a2
20100d12:	e719                	bnez	a4,20100d20 <PWR_EnterSTOPMode+0x8e>
20100d14:	8f46a703          	lw	a4,-1804(a3)
20100d18:	c701                	beqz	a4,20100d20 <PWR_EnterSTOPMode+0x8e>
20100d1a:	10500073          	wfi
20100d1e:	b7f5                	j	20100d0a <PWR_EnterSTOPMode+0x78>
20100d20:	4398                	lw	a4,0(a5)
20100d22:	8ee5a423          	sw	a4,-1816(a1)
20100d26:	40010737          	lui	a4,0x40010
20100d2a:	40070713          	addi	a4,a4,1024 # 40010400 <_eusrstack+0x1fe90400>
20100d2e:	8f46a603          	lw	a2,-1804(a3)
20100d32:	430c                	lw	a1,0(a4)
20100d34:	40c5f633          	andn	a2,a1,a2
20100d38:	c310                	sw	a2,0(a4)
20100d3a:	8f46a703          	lw	a4,-1804(a3)
20100d3e:	4394                	lw	a3,0(a5)
20100d40:	8f55                	or	a4,a4,a3
20100d42:	c398                	sw	a4,0(a5)
20100d44:	bfbd                	j	20100cc2 <PWR_EnterSTOPMode+0x30>

20100d46 <RCC_GetClocksFreq>:
20100d46:	400217b7          	lui	a5,0x40021
20100d4a:	43d4                	lw	a3,4(a5)
20100d4c:	4798                	lw	a4,8(a5)
20100d4e:	4621                	li	a2,8
20100d50:	8ab1                	andi	a3,a3,12
20100d52:	02c69463          	bne	a3,a2,20100d7a <RCC_GetClocksFreq+0x34>
20100d56:	700006b7          	lui	a3,0x70000
20100d5a:	8f75                	and	a4,a4,a3
20100d5c:	50000637          	lui	a2,0x50000
20100d60:	14c70e63          	beq	a4,a2,20100ebc <RCC_GetClocksFreq+0x176>
20100d64:	02e66063          	bltu	a2,a4,20100d84 <RCC_GetClocksFreq+0x3e>
20100d68:	c71d                	beqz	a4,20100d96 <RCC_GetClocksFreq+0x50>
20100d6a:	1c9c47b7          	lui	a5,0x1c9c4
20100d6e:	400006b7          	lui	a3,0x40000
20100d72:	80078793          	addi	a5,a5,-2048 # 1c9c3800 <_data_lma+0x1c9bd3c8>
20100d76:	06d70763          	beq	a4,a3,20100de4 <RCC_GetClocksFreq+0x9e>
20100d7a:	017d87b7          	lui	a5,0x17d8
20100d7e:	84078793          	addi	a5,a5,-1984 # 17d7840 <_data_lma+0x17d1408>
20100d82:	a08d                	j	20100de4 <RCC_GetClocksFreq+0x9e>
20100d84:	60000637          	lui	a2,0x60000
20100d88:	10c70b63          	beq	a4,a2,20100e9e <RCC_GetClocksFreq+0x158>
20100d8c:	077367b7          	lui	a5,0x7736
20100d90:	94078793          	addi	a5,a5,-1728 # 7735940 <_data_lma+0x772f508>
20100d94:	b7cd                	j	20100d76 <RCC_GetClocksFreq+0x30>
20100d96:	4790                	lw	a2,8(a5)
20100d98:	4794                	lw	a3,8(a5)
20100d9a:	4798                	lw	a4,8(a5)
20100d9c:	0a000593          	li	a1,160
20100da0:	0e06f693          	andi	a3,a3,224
20100da4:	8321                	srli	a4,a4,0x8
20100da6:	03f77713          	andi	a4,a4,63
20100daa:	8a7d                	andi	a2,a2,31
20100dac:	0705                	addi	a4,a4,1
20100dae:	08b69d63          	bne	a3,a1,20100e48 <RCC_GetClocksFreq+0x102>
20100db2:	1dcd67b7          	lui	a5,0x1dcd6
20100db6:	50078793          	addi	a5,a5,1280 # 1dcd6500 <_data_lma+0x1dcd00c8>
20100dba:	02e7d733          	divu	a4,a5,a4
20100dbe:	201307b7          	lui	a5,0x20130
20100dc2:	16078793          	addi	a5,a5,352 # 20130160 <PLLMULTable>
20100dc6:	97b2                	add	a5,a5,a2
20100dc8:	239c                	lbu	a5,0(a5)
20100dca:	4691                	li	a3,4
20100dcc:	02e787b3          	mul	a5,a5,a4
20100dd0:	00d60963          	beq	a2,a3,20100de2 <RCC_GetClocksFreq+0x9c>
20100dd4:	6685                	lui	a3,0x1
20100dd6:	54068693          	addi	a3,a3,1344 # 1540 <__stack_size+0xd40>
20100dda:	00c6d6b3          	srl	a3,a3,a2
20100dde:	8a85                	andi	a3,a3,1
20100de0:	c291                	beqz	a3,20100de4 <RCC_GetClocksFreq+0x9e>
20100de2:	8385                	srli	a5,a5,0x1
20100de4:	c11c                	sw	a5,0(a0)
20100de6:	40021637          	lui	a2,0x40021
20100dea:	4254                	lw	a3,4(a2)
20100dec:	20130737          	lui	a4,0x20130
20100df0:	15070713          	addi	a4,a4,336 # 20130150 <HBPrescTable>
20100df4:	8291                	srli	a3,a3,0x4
20100df6:	8abd                	andi	a3,a3,15
20100df8:	9736                	add	a4,a4,a3
20100dfa:	2318                	lbu	a4,0(a4)
20100dfc:	81818693          	addi	a3,gp,-2024 # 201318a8 <FPRETable>
20100e00:	00e7d7b3          	srl	a5,a5,a4
20100e04:	4258                	lw	a4,4(a2)
20100e06:	6641                	lui	a2,0x10
20100e08:	8341                	srli	a4,a4,0x10
20100e0a:	8b0d                	andi	a4,a4,3
20100e0c:	9736                	add	a4,a4,a3
20100e0e:	2318                	lbu	a4,0(a4)
20100e10:	e000f6b7          	lui	a3,0xe000f
20100e14:	00e7d733          	srl	a4,a5,a4
20100e18:	c158                	sw	a4,4(a0)
20100e1a:	d106a683          	lw	a3,-752(a3) # e000ed10 <_eusrstack+0xbfe8ed10>
20100e1e:	8ef1                	and	a3,a3,a2
20100e20:	e291                	bnez	a3,20100e24 <RCC_GetClocksFreq+0xde>
20100e22:	87ba                	mv	a5,a4
20100e24:	c51c                	sw	a5,8(a0)
20100e26:	40021637          	lui	a2,0x40021
20100e2a:	425c                	lw	a5,4(a2)
20100e2c:	0807dd63          	bgez	a5,20100ec6 <RCC_GetClocksFreq+0x180>
20100e30:	425c                	lw	a5,4(a2)
20100e32:	1c9c4737          	lui	a4,0x1c9c4
20100e36:	80070713          	addi	a4,a4,-2048 # 1c9c3800 <_data_lma+0x1c9bd3c8>
20100e3a:	83ad                	srli	a5,a5,0xb
20100e3c:	8bfd                	andi	a5,a5,31
20100e3e:	0795                	addi	a5,a5,5
20100e40:	02f75733          	divu	a4,a4,a5
20100e44:	c558                	sw	a4,12(a0)
20100e46:	8082                	ret
20100e48:	0e000593          	li	a1,224
20100e4c:	02b69263          	bne	a3,a1,20100e70 <RCC_GetClocksFreq+0x12a>
20100e50:	5bd4                	lw	a3,52(a5)
20100e52:	201307b7          	lui	a5,0x20130
20100e56:	14078793          	addi	a5,a5,320 # 20130140 <SERDESPLLMULTable>
20100e5a:	82c1                	srli	a3,a3,0x10
20100e5c:	97b6                	add	a5,a5,a3
20100e5e:	239c                	lbu	a5,0(a5)
20100e60:	017d86b7          	lui	a3,0x17d8
20100e64:	84068693          	addi	a3,a3,-1984 # 17d7840 <_data_lma+0x17d1408>
20100e68:	02d787b3          	mul	a5,a5,a3
20100e6c:	8385                	srli	a5,a5,0x1
20100e6e:	b7b1                	j	20100dba <RCC_GetClocksFreq+0x74>
20100e70:	08000793          	li	a5,128
20100e74:	00f69763          	bne	a3,a5,20100e82 <RCC_GetClocksFreq+0x13c>
20100e78:	1c9c47b7          	lui	a5,0x1c9c4
20100e7c:	80078793          	addi	a5,a5,-2048 # 1c9c3800 <_data_lma+0x1c9bd3c8>
20100e80:	bf2d                	j	20100dba <RCC_GetClocksFreq+0x74>
20100e82:	0c000793          	li	a5,192
20100e86:	00f69763          	bne	a3,a5,20100e94 <RCC_GetClocksFreq+0x14e>
20100e8a:	077367b7          	lui	a5,0x7736
20100e8e:	94078793          	addi	a5,a5,-1728 # 7735940 <_data_lma+0x772f508>
20100e92:	b725                	j	20100dba <RCC_GetClocksFreq+0x74>
20100e94:	017d87b7          	lui	a5,0x17d8
20100e98:	84078793          	addi	a5,a5,-1984 # 17d7840 <_data_lma+0x17d1408>
20100e9c:	bf39                	j	20100dba <RCC_GetClocksFreq+0x74>
20100e9e:	5bd8                	lw	a4,52(a5)
20100ea0:	201307b7          	lui	a5,0x20130
20100ea4:	14078793          	addi	a5,a5,320 # 20130140 <SERDESPLLMULTable>
20100ea8:	8341                	srli	a4,a4,0x10
20100eaa:	97ba                	add	a5,a5,a4
20100eac:	239c                	lbu	a5,0(a5)
20100eae:	017d8737          	lui	a4,0x17d8
20100eb2:	84070713          	addi	a4,a4,-1984 # 17d7840 <_data_lma+0x17d1408>
20100eb6:	02e787b3          	mul	a5,a5,a4
20100eba:	b725                	j	20100de2 <RCC_GetClocksFreq+0x9c>
20100ebc:	1dcd67b7          	lui	a5,0x1dcd6
20100ec0:	50078793          	addi	a5,a5,1280 # 1dcd6500 <_data_lma+0x1dcd00c8>
20100ec4:	b705                	j	20100de4 <RCC_GetClocksFreq+0x9e>
20100ec6:	4254                	lw	a3,4(a2)
20100ec8:	81018793          	addi	a5,gp,-2032 # 201318a0 <PPRE2Table>
20100ecc:	82ad                	srli	a3,a3,0xb
20100ece:	8a9d                	andi	a3,a3,7
20100ed0:	97b6                	add	a5,a5,a3
20100ed2:	238c                	lbu	a1,0(a5)
20100ed4:	425c                	lw	a5,4(a2)
20100ed6:	80c18693          	addi	a3,gp,-2036 # 2013189c <ADCPRETable>
20100eda:	83b9                	srli	a5,a5,0xe
20100edc:	8b8d                	andi	a5,a5,3
20100ede:	97b6                	add	a5,a5,a3
20100ee0:	239c                	lbu	a5,0(a5)
20100ee2:	00b75733          	srl	a4,a4,a1
20100ee6:	bfa9                	j	20100e40 <RCC_GetClocksFreq+0xfa>

20100ee8 <RCC_HBPeriphClockCmd>:
20100ee8:	c599                	beqz	a1,20100ef6 <RCC_HBPeriphClockCmd+0xe>
20100eea:	40021737          	lui	a4,0x40021
20100eee:	4f1c                	lw	a5,24(a4)
20100ef0:	8fc9                	or	a5,a5,a0
20100ef2:	cf1c                	sw	a5,24(a4)
20100ef4:	8082                	ret
20100ef6:	400217b7          	lui	a5,0x40021
20100efa:	4f98                	lw	a4,24(a5)
20100efc:	40a77533          	andn	a0,a4,a0
20100f00:	cf88                	sw	a0,24(a5)
20100f02:	8082                	ret

20100f04 <RCC_HB2PeriphClockCmd>:
20100f04:	c599                	beqz	a1,20100f12 <RCC_HB2PeriphClockCmd+0xe>
20100f06:	40021737          	lui	a4,0x40021
20100f0a:	4f5c                	lw	a5,28(a4)
20100f0c:	8fc9                	or	a5,a5,a0
20100f0e:	cf5c                	sw	a5,28(a4)
20100f10:	8082                	ret
20100f12:	400217b7          	lui	a5,0x40021
20100f16:	4fd8                	lw	a4,28(a5)
20100f18:	40a77533          	andn	a0,a4,a0
20100f1c:	cfc8                	sw	a0,28(a5)
20100f1e:	8082                	ret

20100f20 <RCC_HB1PeriphClockCmd>:
20100f20:	c599                	beqz	a1,20100f2e <RCC_HB1PeriphClockCmd+0xe>
20100f22:	40021737          	lui	a4,0x40021
20100f26:	531c                	lw	a5,32(a4)
20100f28:	8fc9                	or	a5,a5,a0
20100f2a:	d31c                	sw	a5,32(a4)
20100f2c:	8082                	ret
20100f2e:	400217b7          	lui	a5,0x40021
20100f32:	5398                	lw	a4,32(a5)
20100f34:	40a77533          	andn	a0,a4,a0
20100f38:	d388                	sw	a0,32(a5)
20100f3a:	8082                	ret

20100f3c <RCC_USBHS_PLLCmd>:
20100f3c:	40021737          	lui	a4,0x40021
20100f40:	431c                	lw	a5,0(a4)
20100f42:	c509                	beqz	a0,20100f4c <RCC_USBHS_PLLCmd+0x10>
20100f44:	29479793          	bseti	a5,a5,0x14
20100f48:	c31c                	sw	a5,0(a4)
20100f4a:	8082                	ret
20100f4c:	49479793          	bclri	a5,a5,0x14
20100f50:	bfe5                	j	20100f48 <RCC_USBHS_PLLCmd+0xc>

20100f52 <RCC_USBSS_PLLCmd>:
20100f52:	40021737          	lui	a4,0x40021
20100f56:	431c                	lw	a5,0(a4)
20100f58:	c509                	beqz	a0,20100f62 <RCC_USBSS_PLLCmd+0x10>
20100f5a:	29679793          	bseti	a5,a5,0x16
20100f5e:	c31c                	sw	a5,0(a4)
20100f60:	8082                	ret
20100f62:	49679793          	bclri	a5,a5,0x16
20100f66:	bfe5                	j	20100f5e <RCC_USBSS_PLLCmd+0xc>

20100f68 <RCC_PIPECmd>:
20100f68:	40021737          	lui	a4,0x40021
20100f6c:	435c                	lw	a5,4(a4)
20100f6e:	c509                	beqz	a0,20100f78 <RCC_PIPECmd+0x10>
20100f70:	29679793          	bseti	a5,a5,0x16
20100f74:	c35c                	sw	a5,4(a4)
20100f76:	8082                	ret
20100f78:	49679793          	bclri	a5,a5,0x16
20100f7c:	bfe5                	j	20100f74 <RCC_PIPECmd+0xc>

20100f7e <RCC_UTMIcmd>:
20100f7e:	40021737          	lui	a4,0x40021
20100f82:	435c                	lw	a5,4(a4)
20100f84:	c509                	beqz	a0,20100f8e <RCC_UTMIcmd+0x10>
20100f86:	29779793          	bseti	a5,a5,0x17
20100f8a:	c35c                	sw	a5,4(a4)
20100f8c:	8082                	ret
20100f8e:	49779793          	bclri	a5,a5,0x17
20100f92:	bfe5                	j	20100f8a <RCC_UTMIcmd+0xc>

20100f94 <RCC_USBHSPLLCLKConfig>:
20100f94:	400217b7          	lui	a5,0x40021
20100f98:	5bd8                	lw	a4,52(a5)
20100f9a:	9b71                	andi	a4,a4,-4
20100f9c:	dbd8                	sw	a4,52(a5)
20100f9e:	5bd8                	lw	a4,52(a5)
20100fa0:	8f49                	or	a4,a4,a0
20100fa2:	dbd8                	sw	a4,52(a5)
20100fa4:	8082                	ret

20100fa6 <RCC_USBHSPLLReferConfig>:
20100fa6:	400217b7          	lui	a5,0x40021
20100faa:	5bd8                	lw	a4,52(a5)
20100fac:	9b4d                	andi	a4,a4,-13
20100fae:	dbd8                	sw	a4,52(a5)
20100fb0:	5bd8                	lw	a4,52(a5)
20100fb2:	8f49                	or	a4,a4,a0
20100fb4:	dbd8                	sw	a4,52(a5)
20100fb6:	8082                	ret

20100fb8 <RCC_USBHSPLLClockSourceDivConfig>:
20100fb8:	400217b7          	lui	a5,0x40021
20100fbc:	5bd8                	lw	a4,52(a5)
20100fbe:	76f9                	lui	a3,0xffffe
20100fc0:	0ff68693          	addi	a3,a3,255 # ffffe0ff <_eusrstack+0xdfe7e0ff>
20100fc4:	8f75                	and	a4,a4,a3
20100fc6:	dbd8                	sw	a4,52(a5)
20100fc8:	5bd8                	lw	a4,52(a5)
20100fca:	8f49                	or	a4,a4,a0
20100fcc:	dbd8                	sw	a4,52(a5)
20100fce:	8082                	ret

20100fd0 <SWPMI_BypassCmd>:
20100fd0:	400087b7          	lui	a5,0x40008
20100fd4:	40078793          	addi	a5,a5,1024 # 40008400 <_eusrstack+0x1fe88400>
20100fd8:	c511                	beqz	a0,20100fe4 <SWPMI_BypassCmd+0x14>
20100fda:	53d8                	lw	a4,36(a5)
20100fdc:	00176713          	ori	a4,a4,1
20100fe0:	d3d8                	sw	a4,36(a5)
20100fe2:	8082                	ret
20100fe4:	4398                	lw	a4,0(a5)
20100fe6:	9b79                	andi	a4,a4,-2
20100fe8:	c398                	sw	a4,0(a5)
20100fea:	8082                	ret

20100fec <TIM_GetITStatus>:
20100fec:	291e                	lhu	a5,16(a0)
20100fee:	254a                	lhu	a0,12(a0)
20100ff0:	8fed                	and	a5,a5,a1
20100ff2:	08054533          	zext.h	a0,a0
20100ff6:	c789                	beqz	a5,20101000 <TIM_GetITStatus+0x14>
20100ff8:	8d6d                	and	a0,a0,a1
20100ffa:	00a03533          	snez	a0,a0
20100ffe:	8082                	ret
20101000:	4501                	li	a0,0
20101002:	8082                	ret

20101004 <TIM_ClearITPendingBit>:
20101004:	fff5c593          	not	a1,a1
20101008:	0805c5b3          	zext.h	a1,a1
2010100c:	a90e                	sh	a1,16(a0)
2010100e:	8082                	ret

20101010 <TIM9_12_TimeBaseInit>:
20101010:	211e                	lhu	a5,0(a0)
20101012:	21ba                	lhu	a4,2(a1)
20101014:	0807c7b3          	zext.h	a5,a5
20101018:	f8f7f793          	andi	a5,a5,-113
2010101c:	8fd9                	or	a5,a5,a4
2010101e:	259a                	lhu	a4,8(a1)
20101020:	cff7f793          	andi	a5,a5,-769
20101024:	8fd9                	or	a5,a5,a4
20101026:	a11e                	sh	a5,0(a0)
20101028:	41dc                	lw	a5,4(a1)
2010102a:	d55c                	sw	a5,44(a0)
2010102c:	219e                	lhu	a5,0(a1)
2010102e:	b51e                	sh	a5,40(a0)
20101030:	4785                	li	a5,1
20101032:	a95e                	sh	a5,20(a0)
20101034:	8082                	ret

20101036 <USART_Init>:
20101036:	a4eff2ef          	jal	t0,20100284 <__riscv_save_0>
2010103a:	291a                	lhu	a4,16(a0)
2010103c:	77f5                	lui	a5,0xffffd
2010103e:	17fd                	addi	a5,a5,-1 # ffffcfff <_eusrstack+0xdfe7cfff>
20101040:	8f7d                	and	a4,a4,a5
20101042:	21fe                	lhu	a5,6(a1)
20101044:	2596                	lhu	a3,8(a1)
20101046:	1141                	addi	sp,sp,-16
20101048:	8fd9                	or	a5,a5,a4
2010104a:	a91e                	sh	a5,16(a0)
2010104c:	21de                	lhu	a5,4(a1)
2010104e:	255a                	lhu	a4,12(a0)
20101050:	842a                	mv	s0,a0
20101052:	8fd5                	or	a5,a5,a3
20101054:	25b6                	lhu	a3,10(a1)
20101056:	84ae                	mv	s1,a1
20101058:	8fd5                	or	a5,a5,a3
2010105a:	668d                	lui	a3,0x3
2010105c:	9f368693          	addi	a3,a3,-1549 # 29f3 <__stack_size+0x21f3>
20101060:	8f75                	and	a4,a4,a3
20101062:	8fd9                	or	a5,a5,a4
20101064:	a55e                	sh	a5,12(a0)
20101066:	295e                	lhu	a5,20(a0)
20101068:	25da                	lhu	a4,12(a1)
2010106a:	0807c7b3          	zext.h	a5,a5
2010106e:	cff7f793          	andi	a5,a5,-769
20101072:	8fd9                	or	a5,a5,a4
20101074:	a95e                	sh	a5,20(a0)
20101076:	850a                	mv	a0,sp
20101078:	31f9                	jal	20100d46 <RCC_GetClocksFreq>
2010107a:	4792                	lw	a5,4(sp)
2010107c:	4565                	li	a0,25
2010107e:	4090                	lw	a2,0(s1)
20101080:	02f535b3          	mulhu	a1,a0,a5
20101084:	4681                	li	a3,0
20101086:	060a                	slli	a2,a2,0x2
20101088:	02f50533          	mul	a0,a0,a5
2010108c:	66b020ef          	jal	ra,20103ef6 <__udivdi3>
20101090:	06400693          	li	a3,100
20101094:	02d557b3          	divu	a5,a0,a3
20101098:	63f00613          	li	a2,1599
2010109c:	00479713          	slli	a4,a5,0x4
201010a0:	02d577b3          	remu	a5,a0,a3
201010a4:	0792                	slli	a5,a5,0x4
201010a6:	03278793          	addi	a5,a5,50
201010aa:	00f67a63          	bgeu	a2,a5,201010be <USART_Init+0x88>
201010ae:	01070793          	addi	a5,a4,16 # 40021010 <_eusrstack+0x1fea1010>
201010b2:	0807c7b3          	zext.h	a5,a5
201010b6:	a41e                	sh	a5,8(s0)
201010b8:	0141                	addi	sp,sp,16
201010ba:	9eeff06f          	j	201002a8 <__riscv_restore_0>
201010be:	02d7d7b3          	divu	a5,a5,a3
201010c2:	8fd9                	or	a5,a5,a4
201010c4:	b7fd                	j	201010b2 <USART_Init+0x7c>

201010c6 <USART_Cmd>:
201010c6:	255e                	lhu	a5,12(a0)
201010c8:	c589                	beqz	a1,201010d2 <USART_Cmd+0xc>
201010ca:	28d79793          	bseti	a5,a5,0xd
201010ce:	a55e                	sh	a5,12(a0)
201010d0:	8082                	ret
201010d2:	7779                	lui	a4,0xffffe
201010d4:	177d                	addi	a4,a4,-1 # ffffdfff <_eusrstack+0xdfe7dfff>
201010d6:	8ff9                	and	a5,a5,a4
201010d8:	bfdd                	j	201010ce <USART_Cmd+0x8>

201010da <USART_SendData>:
201010da:	1ff5f593          	andi	a1,a1,511
201010de:	a14e                	sh	a1,4(a0)
201010e0:	8082                	ret

201010e2 <USART_GetFlagStatus>:
201010e2:	210a                	lhu	a0,0(a0)
201010e4:	8d6d                	and	a0,a0,a1
201010e6:	00a03533          	snez	a0,a0
201010ea:	8082                	ret

201010ec <Delay_Init>:
201010ec:	201467b7          	lui	a5,0x20146
201010f0:	8e47a783          	lw	a5,-1820(a5) # 201458e4 <HCLKClock>
201010f4:	000f4737          	lui	a4,0xf4
201010f8:	24070713          	addi	a4,a4,576 # f4240 <_data_lma+0xede08>
201010fc:	02e7d7b3          	divu	a5,a5,a4
20101100:	20146737          	lui	a4,0x20146
20101104:	8ef71823          	sh	a5,-1808(a4) # 201458f0 <p_us>
20101108:	3e800713          	li	a4,1000
2010110c:	02e787b3          	mul	a5,a5,a4
20101110:	20146737          	lui	a4,0x20146
20101114:	8ef72623          	sw	a5,-1812(a4) # 201458ec <p_ms>
20101118:	8082                	ret

2010111a <Delay_Us>:
2010111a:	e000f7b7          	lui	a5,0xe000f
2010111e:	43d8                	lw	a4,4(a5)
20101120:	9b79                	andi	a4,a4,-2
20101122:	c3d8                	sw	a4,4(a5)
20101124:	20146737          	lui	a4,0x20146
20101128:	8f075703          	lhu	a4,-1808(a4) # 201458f0 <p_us>
2010112c:	0007a423          	sw	zero,8(a5) # e000f008 <_eusrstack+0xbfe8f008>
20101130:	02a70733          	mul	a4,a4,a0
20101134:	cb98                	sw	a4,16(a5)
20101136:	4711                	li	a4,4
20101138:	c398                	sw	a4,0(a5)
2010113a:	4398                	lw	a4,0(a5)
2010113c:	00176713          	ori	a4,a4,1
20101140:	c398                	sw	a4,0(a5)
20101142:	43d8                	lw	a4,4(a5)
20101144:	8b05                	andi	a4,a4,1
20101146:	df75                	beqz	a4,20101142 <Delay_Us+0x28>
20101148:	4398                	lw	a4,0(a5)
2010114a:	9b79                	andi	a4,a4,-2
2010114c:	c398                	sw	a4,0(a5)
2010114e:	8082                	ret

20101150 <Delay_Ms>:
20101150:	e000f7b7          	lui	a5,0xe000f
20101154:	43d8                	lw	a4,4(a5)
20101156:	9b79                	andi	a4,a4,-2
20101158:	c3d8                	sw	a4,4(a5)
2010115a:	20146737          	lui	a4,0x20146
2010115e:	8ec72703          	lw	a4,-1812(a4) # 201458ec <p_ms>
20101162:	0007a423          	sw	zero,8(a5) # e000f008 <_eusrstack+0xbfe8f008>
20101166:	02e50533          	mul	a0,a0,a4
2010116a:	4711                	li	a4,4
2010116c:	cb88                	sw	a0,16(a5)
2010116e:	c398                	sw	a4,0(a5)
20101170:	4398                	lw	a4,0(a5)
20101172:	00176713          	ori	a4,a4,1
20101176:	c398                	sw	a4,0(a5)
20101178:	43d8                	lw	a4,4(a5)
2010117a:	8b05                	andi	a4,a4,1
2010117c:	df75                	beqz	a4,20101178 <Delay_Ms+0x28>
2010117e:	4398                	lw	a4,0(a5)
20101180:	9b79                	andi	a4,a4,-2
20101182:	c398                	sw	a4,0(a5)
20101184:	8082                	ret

20101186 <USART_Printf_Init>:
20101186:	8feff2ef          	jal	t0,20100284 <__riscv_save_0>
2010118a:	842a                	mv	s0,a0
2010118c:	6511                	lui	a0,0x4
2010118e:	1101                	addi	sp,sp,-32
20101190:	4585                	li	a1,1
20101192:	0515                	addi	a0,a0,5 # 4005 <__stack_size+0x3805>
20101194:	400114b7          	lui	s1,0x40011
20101198:	c202                	sw	zero,4(sp)
2010119a:	c402                	sw	zero,8(sp)
2010119c:	c602                	sw	zero,12(sp)
2010119e:	c802                	sw	zero,16(sp)
201011a0:	ca02                	sw	zero,20(sp)
201011a2:	cc02                	sw	zero,24(sp)
201011a4:	ce02                	sw	zero,28(sp)
201011a6:	3bb9                	jal	20100f04 <RCC_HB2PeriphClockCmd>
201011a8:	461d                	li	a2,7
201011aa:	80048513          	addi	a0,s1,-2048 # 40010800 <_eusrstack+0x1fe90800>
201011ae:	45a5                	li	a1,9
201011b0:	ecaff0ef          	jal	ra,2010087a <GPIO_PinAFConfig>
201011b4:	20000793          	li	a5,512
201011b8:	827c                	sh	a5,4(sp)
201011ba:	478d                	li	a5,3
201011bc:	c43e                	sw	a5,8(sp)
201011be:	004c                	addi	a1,sp,4
201011c0:	47e1                	li	a5,24
201011c2:	80048513          	addi	a0,s1,-2048
201011c6:	c63e                	sw	a5,12(sp)
201011c8:	dd2ff0ef          	jal	ra,2010079a <GPIO_Init>
201011cc:	c822                	sw	s0,16(sp)
201011ce:	40014437          	lui	s0,0x40014
201011d2:	000807b7          	lui	a5,0x80
201011d6:	080c                	addi	a1,sp,16
201011d8:	80040513          	addi	a0,s0,-2048 # 40013800 <_eusrstack+0x1fe93800>
201011dc:	cc3e                	sw	a5,24(sp)
201011de:	ca02                	sw	zero,20(sp)
201011e0:	00011e23          	sh	zero,28(sp)
201011e4:	3d89                	jal	20101036 <USART_Init>
201011e6:	4585                	li	a1,1
201011e8:	80040513          	addi	a0,s0,-2048
201011ec:	3de9                	jal	201010c6 <USART_Cmd>
201011ee:	6105                	addi	sp,sp,32
201011f0:	8b8ff06f          	j	201002a8 <__riscv_restore_0>

201011f4 <_write>:
201011f4:	876ff2ef          	jal	t0,2010026a <__riscv_save_4>
201011f8:	40014937          	lui	s2,0x40014
201011fc:	89ae                	mv	s3,a1
201011fe:	8432                	mv	s0,a2
20101200:	4481                	li	s1,0
20101202:	80090913          	addi	s2,s2,-2048 # 40013800 <_eusrstack+0x1fe93800>
20101206:	0084c563          	blt	s1,s0,20101210 <_write+0x1c>
2010120a:	8522                	mv	a0,s0
2010120c:	892ff06f          	j	2010029e <__riscv_restore_4>
20101210:	04000593          	li	a1,64
20101214:	854a                	mv	a0,s2
20101216:	35f1                	jal	201010e2 <USART_GetFlagStatus>
20101218:	dd65                	beqz	a0,20101210 <_write+0x1c>
2010121a:	009987b3          	add	a5,s3,s1
2010121e:	00078583          	lb	a1,0(a5) # 80000 <_data_lma+0x79bc8>
20101222:	854a                	mv	a0,s2
20101224:	0485                	addi	s1,s1,1
20101226:	0805c5b3          	zext.h	a1,a1
2010122a:	3d45                	jal	201010da <USART_SendData>
2010122c:	bfe9                	j	20101206 <_write+0x12>

2010122e <_sbrk>:
2010122e:	87aa                	mv	a5,a0
20101230:	81c1a503          	lw	a0,-2020(gp) # 201318ac <curbrk.0>
20101234:	20158737          	lui	a4,0x20158
20101238:	dec70713          	addi	a4,a4,-532 # 20157dec <_ebss>
2010123c:	97aa                	add	a5,a5,a0
2010123e:	00e7eb63          	bltu	a5,a4,20101254 <_sbrk+0x26>
20101242:	20180737          	lui	a4,0x20180
20101246:	80070713          	addi	a4,a4,-2048 # 2017f800 <_heap_end>
2010124a:	00f76563          	bltu	a4,a5,20101254 <_sbrk+0x26>
2010124e:	80f1ae23          	sw	a5,-2020(gp) # 201318ac <curbrk.0>
20101252:	8082                	ret
20101254:	557d                	li	a0,-1
20101256:	8082                	ret

20101258 <SS_CtrlCamera>:
20101258:	82cff2ef          	jal	t0,20100284 <__riscv_save_0>
2010125c:	201467b7          	lui	a5,0x20146
20101260:	4405                	li	s0,1
20101262:	9287a623          	sw	s0,-1748(a5) # 2014592c <Dvp_Class>
20101266:	201467b7          	lui	a5,0x20146
2010126a:	95a7d783          	lhu	a5,-1702(a5) # 2014595a <USBSS_SetupReqValue>
2010126e:	201466b7          	lui	a3,0x20146
20101272:	0ff7f793          	zext.b	a5,a5
20101276:	c3ed                	beqz	a5,20101358 <SS_CtrlCamera+0x100>
20101278:	201465b7          	lui	a1,0x20146
2010127c:	670d                	lui	a4,0x3
2010127e:	97c58793          	addi	a5,a1,-1668 # 2014597c <UVC>
20101282:	6e570713          	addi	a4,a4,1765 # 36e5 <__stack_size+0x2ee5>
20101286:	a3fa                	sh	a4,6(a5)
20101288:	a782                	sh	s0,8(a5)
2010128a:	e000f737          	lui	a4,0xe000f
2010128e:	4718                	lw	a4,8(a4)
20101290:	44c1                	li	s1,16
20101292:	9086ae23          	sw	s0,-1764(a3) # 2014591c <UVC_DvpStart>
20101296:	a3ba                	sh	a4,2(a5)
20101298:	8341                	srli	a4,a4,0x10
2010129a:	a3da                	sh	a4,4(a5)
2010129c:	4dd00713          	li	a4,1245
201012a0:	a7ba                	sh	a4,10(a5)
201012a2:	cb84                	sw	s1,16(a5)
201012a4:	0007a623          	sw	zero,12(a5)
201012a8:	201467b7          	lui	a5,0x20146
201012ac:	9207a423          	sw	zero,-1752(a5) # 20145928 <Dvp_Addrcount>
201012b0:	201467b7          	lui	a5,0x20146
201012b4:	9207a223          	sw	zero,-1756(a5) # 20145924 <Dvp_Start>
201012b8:	201467b7          	lui	a5,0x20146
201012bc:	9207a023          	sw	zero,-1760(a5) # 20145920 <Dvp_End>
201012c0:	201467b7          	lui	a5,0x20146
201012c4:	9007ac23          	sw	zero,-1768(a5) # 20145918 <Dvp_Reclength>
201012c8:	201467b7          	lui	a5,0x20146
201012cc:	9007aa23          	sw	zero,-1772(a5) # 20145914 <DVP_Recaddpoint>
201012d0:	201467b7          	lui	a5,0x20146
201012d4:	90078823          	sb	zero,-1776(a5) # 20145910 <USB_Uploadflg>
201012d8:	201467b7          	lui	a5,0x20146
201012dc:	9007a623          	sw	zero,-1780(a5) # 2014590c <USB_MframeUploadLength>
201012e0:	201467b7          	lui	a5,0x20146
201012e4:	9007a223          	sw	zero,-1788(a5) # 20145904 <USB_Uploadcount>
201012e8:	7765                	lui	a4,0xffff9
201012ea:	201467b7          	lui	a5,0x20146
201012ee:	c1070713          	addi	a4,a4,-1008 # ffff8c10 <_eusrstack+0xdfe78c10>
201012f2:	9007a023          	sw	zero,-1792(a5) # 20145900 <USB_Uploadpoint>
201012f6:	201327b7          	lui	a5,0x20132
201012fa:	96e59e23          	sh	a4,-1668(a1)
201012fe:	90078793          	addi	a5,a5,-1792 # 20131900 <UVC_DMABuffer+0x20>
20101302:	82f1a423          	sw	a5,-2008(gp) # 201318b8 <Dvp_Recaddr>
20101306:	20150537          	lui	a0,0x20150
2010130a:	201327b7          	lui	a5,0x20132
2010130e:	8f078793          	addi	a5,a5,-1808 # 201318f0 <UVC_DMABuffer+0x10>
20101312:	bec50913          	addi	s2,a0,-1044 # 2014fbec <USBSS_EP1_Tx_Buf>
20101316:	4641                	li	a2,16
20101318:	97c58593          	addi	a1,a1,-1668
2010131c:	bec50513          	addi	a0,a0,-1044
20101320:	82f1a223          	sw	a5,-2012(gp) # 201318b4 <USBUploadaddr>
20101324:	f91fe0ef          	jal	ra,201002b4 <memcpy>
20101328:	400347b7          	lui	a5,0x40034
2010132c:	0d27a623          	sw	s2,204(a5) # 400340cc <_eusrstack+0x1feb40cc>
20101330:	0c979323          	sh	s1,198(a5)
20101334:	0c878423          	sb	s0,200(a5)
20101338:	40026737          	lui	a4,0x40026
2010133c:	80074783          	lbu	a5,-2048(a4) # 40025800 <_eusrstack+0x1fea5800>
20101340:	0017e793          	ori	a5,a5,1
20101344:	80f70023          	sb	a5,-2048(a4)
20101348:	e000e7b7          	lui	a5,0xe000e
2010134c:	01000737          	lui	a4,0x1000
20101350:	10e7a623          	sw	a4,268(a5) # e000e10c <_eusrstack+0xbfe8e10c>
20101354:	f55fe06f          	j	201002a8 <__riscv_restore_0>
20101358:	9006ae23          	sw	zero,-1764(a3)
2010135c:	40026737          	lui	a4,0x40026
20101360:	80074683          	lbu	a3,-2048(a4) # 40025800 <_eusrstack+0x1fea5800>
20101364:	80070793          	addi	a5,a4,-2048
20101368:	0fe6f693          	andi	a3,a3,254
2010136c:	80d70023          	sb	a3,-2048(a4)
20101370:	e000e737          	lui	a4,0xe000e
20101374:	010006b7          	lui	a3,0x1000
20101378:	18d72623          	sw	a3,396(a4) # e000e18c <_eusrstack+0xbfe8e18c>
2010137c:	0000100f          	fence.i
20101380:	3398                	lbu	a4,1(a5)
20101382:	00676713          	ori	a4,a4,6
20101386:	b398                	sb	a4,1(a5)
20101388:	3398                	lbu	a4,1(a5)
2010138a:	0f977713          	andi	a4,a4,249
2010138e:	b398                	sb	a4,1(a5)
20101390:	b7d1                	j	20101354 <SS_CtrlCamera+0xfc>

20101392 <HS_CtrlCamera>:
20101392:	201467b7          	lui	a5,0x20146
20101396:	4605                	li	a2,1
20101398:	92c7a623          	sw	a2,-1748(a5) # 2014592c <Dvp_Class>
2010139c:	201467b7          	lui	a5,0x20146
201013a0:	93e7d783          	lhu	a5,-1730(a5) # 2014593e <USBHS_SetupReqValue>
201013a4:	201466b7          	lui	a3,0x20146
201013a8:	0ff7f793          	zext.b	a5,a5
201013ac:	0e078f63          	beqz	a5,201014aa <HS_CtrlCamera+0x118>
201013b0:	ed5fe2ef          	jal	t0,20100284 <__riscv_save_0>
201013b4:	e000f737          	lui	a4,0xe000f
201013b8:	57fd                	li	a5,-1
201013ba:	cb1c                	sw	a5,16(a4)
201013bc:	201465b7          	lui	a1,0x20146
201013c0:	47b5                	li	a5,13
201013c2:	c31c                	sw	a5,0(a4)
201013c4:	97c58793          	addi	a5,a1,-1668 # 2014597c <UVC>
201013c8:	00079323          	sh	zero,6(a5)
201013cc:	00079423          	sh	zero,8(a5)
201013d0:	4718                	lw	a4,8(a4)
201013d2:	4441                	li	s0,16
201013d4:	90c6ae23          	sw	a2,-1764(a3) # 2014591c <UVC_DvpStart>
201013d8:	a3ba                	sh	a4,2(a5)
201013da:	8341                	srli	a4,a4,0x10
201013dc:	a3da                	sh	a4,4(a5)
201013de:	cb80                	sw	s0,16(a5)
201013e0:	00079523          	sh	zero,10(a5)
201013e4:	0007a623          	sw	zero,12(a5)
201013e8:	201467b7          	lui	a5,0x20146
201013ec:	9207a423          	sw	zero,-1752(a5) # 20145928 <Dvp_Addrcount>
201013f0:	201467b7          	lui	a5,0x20146
201013f4:	9207a223          	sw	zero,-1756(a5) # 20145924 <Dvp_Start>
201013f8:	201467b7          	lui	a5,0x20146
201013fc:	9207a023          	sw	zero,-1760(a5) # 20145920 <Dvp_End>
20101400:	201467b7          	lui	a5,0x20146
20101404:	9007ac23          	sw	zero,-1768(a5) # 20145918 <Dvp_Reclength>
20101408:	201467b7          	lui	a5,0x20146
2010140c:	9007aa23          	sw	zero,-1772(a5) # 20145914 <DVP_Recaddpoint>
20101410:	201467b7          	lui	a5,0x20146
20101414:	90078823          	sb	zero,-1776(a5) # 20145910 <USB_Uploadflg>
20101418:	201467b7          	lui	a5,0x20146
2010141c:	9007a623          	sw	zero,-1780(a5) # 2014590c <USB_MframeUploadLength>
20101420:	201467b7          	lui	a5,0x20146
20101424:	9007a423          	sw	zero,-1784(a5) # 20145908 <USB_LastMframeUploadLength>
20101428:	201467b7          	lui	a5,0x20146
2010142c:	9007a223          	sw	zero,-1788(a5) # 20145904 <USB_Uploadcount>
20101430:	7765                	lui	a4,0xffff9
20101432:	201467b7          	lui	a5,0x20146
20101436:	c1070713          	addi	a4,a4,-1008 # ffff8c10 <_eusrstack+0xdfe78c10>
2010143a:	9007a023          	sw	zero,-1792(a5) # 20145900 <USB_Uploadpoint>
2010143e:	201327b7          	lui	a5,0x20132
20101442:	96e59e23          	sh	a4,-1668(a1)
20101446:	90078793          	addi	a5,a5,-1792 # 20131900 <UVC_DMABuffer+0x20>
2010144a:	82f1a423          	sw	a5,-2008(gp) # 201318b8 <Dvp_Recaddr>
2010144e:	20148537          	lui	a0,0x20148
20101452:	201327b7          	lui	a5,0x20132
20101456:	8f078793          	addi	a5,a5,-1808 # 201318f0 <UVC_DMABuffer+0x10>
2010145a:	99050493          	addi	s1,a0,-1648 # 20147990 <USBHS_EP1_Tx_Buf>
2010145e:	4641                	li	a2,16
20101460:	97c58593          	addi	a1,a1,-1668
20101464:	99050513          	addi	a0,a0,-1648
20101468:	82f1a223          	sw	a5,-2012(gp) # 201318b4 <USBUploadaddr>
2010146c:	e49fe0ef          	jal	ra,201002b4 <memcpy>
20101470:	40030737          	lui	a4,0x40030
20101474:	c324                	sw	s1,64(a4)
20101476:	0a871023          	sh	s0,160(a4) # 400300a0 <_eusrstack+0x1feb00a0>
2010147a:	0a274783          	lbu	a5,162(a4)
2010147e:	0fc7f793          	andi	a5,a5,252
20101482:	0027e793          	ori	a5,a5,2
20101486:	0af70123          	sb	a5,162(a4)
2010148a:	40026737          	lui	a4,0x40026
2010148e:	80074783          	lbu	a5,-2048(a4) # 40025800 <_eusrstack+0x1fea5800>
20101492:	0017e793          	ori	a5,a5,1
20101496:	80f70023          	sb	a5,-2048(a4)
2010149a:	e000e7b7          	lui	a5,0xe000e
2010149e:	01000737          	lui	a4,0x1000
201014a2:	10e7a623          	sw	a4,268(a5) # e000e10c <_eusrstack+0xbfe8e10c>
201014a6:	e03fe06f          	j	201002a8 <__riscv_restore_0>
201014aa:	9006ae23          	sw	zero,-1764(a3)
201014ae:	e000f7b7          	lui	a5,0xe000f
201014b2:	0007a023          	sw	zero,0(a5) # e000f000 <_eusrstack+0xbfe8f000>
201014b6:	40026737          	lui	a4,0x40026
201014ba:	80074683          	lbu	a3,-2048(a4) # 40025800 <_eusrstack+0x1fea5800>
201014be:	80070793          	addi	a5,a4,-2048
201014c2:	0fe6f693          	andi	a3,a3,254
201014c6:	80d70023          	sb	a3,-2048(a4)
201014ca:	e000e737          	lui	a4,0xe000e
201014ce:	010006b7          	lui	a3,0x1000
201014d2:	18d72623          	sw	a3,396(a4) # e000e18c <_eusrstack+0xbfe8e18c>
201014d6:	0000100f          	fence.i
201014da:	3398                	lbu	a4,1(a5)
201014dc:	00676713          	ori	a4,a4,6
201014e0:	b398                	sb	a4,1(a5)
201014e2:	3398                	lbu	a4,1(a5)
201014e4:	0f977713          	andi	a4,a4,249
201014e8:	b398                	sb	a4,1(a5)
201014ea:	8082                	ret

201014ec <HS_Endp1_Hander>:
201014ec:	d99fe2ef          	jal	t0,20100284 <__riscv_save_0>
201014f0:	201467b7          	lui	a5,0x20146
201014f4:	90c7a783          	lw	a5,-1780(a5) # 2014590c <USB_MframeUploadLength>
201014f8:	e789                	bnez	a5,20101502 <HS_Endp1_Hander+0x16>
201014fa:	201467b7          	lui	a5,0x20146
201014fe:	90078823          	sb	zero,-1776(a5) # 20145910 <USB_Uploadflg>
20101502:	8241a503          	lw	a0,-2012(gp) # 201318b4 <USBUploadaddr>
20101506:	201465b7          	lui	a1,0x20146
2010150a:	97c58413          	addi	s0,a1,-1668 # 2014597c <UVC>
2010150e:	4641                	li	a2,16
20101510:	97c58593          	addi	a1,a1,-1668
20101514:	da1fe0ef          	jal	ra,201002b4 <memcpy>
20101518:	301c                	lbu	a5,1(s0)
2010151a:	9bf5                	andi	a5,a5,-3
2010151c:	b01c                	sb	a5,1(s0)
2010151e:	47c1                	li	a5,16
20101520:	c81c                	sw	a5,16(s0)
20101522:	d87fe06f          	j	201002a8 <__riscv_restore_0>

20101526 <HS_Endp1_ISOHander>:
20101526:	201466b7          	lui	a3,0x20146
2010152a:	92c6a783          	lw	a5,-1748(a3) # 2014592c <Dvp_Class>
2010152e:	20146737          	lui	a4,0x20146
20101532:	97c70593          	addi	a1,a4,-1668 # 2014597c <UVC>
20101536:	0785                	addi	a5,a5,1
20101538:	92f6a623          	sw	a5,-1748(a3)
2010153c:	e000f7b7          	lui	a5,0xe000f
20101540:	479c                	lw	a5,8(a5)
20101542:	97c70713          	addi	a4,a4,-1668
20101546:	fff7c613          	not	a2,a5
2010154a:	01065793          	srli	a5,a2,0x10
2010154e:	a59e                	sh	a5,8(a1)
20101550:	92c6a783          	lw	a5,-1748(a3)
20101554:	a1f2                	sh	a2,6(a1)
20101556:	8b9d                	andi	a5,a5,7
20101558:	e791                	bnez	a5,20101564 <HS_Endp1_ISOHander+0x3e>
2010155a:	273e                	lhu	a5,10(a4)
2010155c:	0785                	addi	a5,a5,1 # e000f001 <_eusrstack+0xbfe8f001>
2010155e:	7ff7f793          	andi	a5,a5,2047
20101562:	a73e                	sh	a5,10(a4)
20101564:	20146537          	lui	a0,0x20146
20101568:	91255783          	lhu	a5,-1774(a0) # 20145912 <Dvp_DataSize>
2010156c:	201466b7          	lui	a3,0x20146
20101570:	9186a603          	lw	a2,-1768(a3) # 20145918 <Dvp_Reclength>
20101574:	0792                	slli	a5,a5,0x4
20101576:	00f66c63          	bltu	a2,a5,2010158e <HS_Endp1_ISOHander+0x68>
2010157a:	9006ac23          	sw	zero,-1768(a3)
2010157e:	201467b7          	lui	a5,0x20146
20101582:	9007aa23          	sw	zero,-1772(a5) # 20145914 <DVP_Recaddpoint>
20101586:	201467b7          	lui	a5,0x20146
2010158a:	9007a023          	sw	zero,-1792(a5) # 20145900 <USB_Uploadpoint>
2010158e:	9186a603          	lw	a2,-1768(a3)
20101592:	201467b7          	lui	a5,0x20146
20101596:	ce49                	beqz	a2,20101630 <HS_Endp1_ISOHander+0x10a>
20101598:	20146637          	lui	a2,0x20146
2010159c:	91064583          	lbu	a1,-1776(a2) # 20145910 <USB_Uploadflg>
201015a0:	e9c1                	bnez	a1,20101630 <HS_Endp1_ISOHander+0x10a>
201015a2:	4585                	li	a1,1
201015a4:	90b60823          	sb	a1,-1776(a2)
201015a8:	20146637          	lui	a2,0x20146
201015ac:	90062583          	lw	a1,-1792(a2) # 20145900 <USB_Uploadpoint>
201015b0:	20132837          	lui	a6,0x20132
201015b4:	8e080813          	addi	a6,a6,-1824 # 201318e0 <UVC_DMABuffer>
201015b8:	05c1                	addi	a1,a1,16
201015ba:	95c2                	add	a1,a1,a6
201015bc:	82b1a223          	sw	a1,-2012(gp) # 201318b4 <USBUploadaddr>
201015c0:	9186a803          	lw	a6,-1768(a3)
201015c4:	90062883          	lw	a7,-1792(a2)
201015c8:	91255583          	lhu	a1,-1774(a0)
201015cc:	9846                	add	a6,a6,a7
201015ce:	0592                	slli	a1,a1,0x4
201015d0:	0cb86363          	bltu	a6,a1,20101696 <HS_Endp1_ISOHander+0x170>
201015d4:	91255583          	lhu	a1,-1774(a0)
201015d8:	90062803          	lw	a6,-1792(a2)
201015dc:	0592                	slli	a1,a1,0x4
201015de:	410585b3          	sub	a1,a1,a6
201015e2:	05c1                	addi	a1,a1,16
201015e4:	90b7a623          	sw	a1,-1780(a5) # 2014590c <USB_MframeUploadLength>
201015e8:	90c7a883          	lw	a7,-1780(a5)
201015ec:	6585                	lui	a1,0x1
201015ee:	bff58813          	addi	a6,a1,-1025 # bff <__stack_size+0x3ff>
201015f2:	01187663          	bgeu	a6,a7,201015fe <HS_Endp1_ISOHander+0xd8>
201015f6:	c0058593          	addi	a1,a1,-1024
201015fa:	90b7a623          	sw	a1,-1780(a5)
201015fe:	90c7a583          	lw	a1,-1780(a5)
20101602:	90062803          	lw	a6,-1792(a2)
20101606:	95c2                	add	a1,a1,a6
20101608:	15c1                	addi	a1,a1,-16
2010160a:	90b62023          	sw	a1,-1792(a2)
2010160e:	91255583          	lhu	a1,-1774(a0)
20101612:	90062503          	lw	a0,-1792(a2)
20101616:	0592                	slli	a1,a1,0x4
20101618:	00b56463          	bltu	a0,a1,20101620 <HS_Endp1_ISOHander+0xfa>
2010161c:	90062023          	sw	zero,-1792(a2)
20101620:	90c7a583          	lw	a1,-1780(a5)
20101624:	9186a603          	lw	a2,-1768(a3)
20101628:	0641                	addi	a2,a2,16
2010162a:	8e0d                	sub	a2,a2,a1
2010162c:	90c6ac23          	sw	a2,-1768(a3)
20101630:	90c7a683          	lw	a3,-1780(a5)
20101634:	10068e63          	beqz	a3,20101750 <HS_Endp1_ISOHander+0x22a>
20101638:	90c7a683          	lw	a3,-1780(a5)
2010163c:	28b01513          	bseti	a0,zero,0xb
20101640:	08d57a63          	bgeu	a0,a3,201016d4 <HS_Endp1_ISOHander+0x1ae>
20101644:	90c7a603          	lw	a2,-1780(a5)
20101648:	6685                	lui	a3,0x1
2010164a:	c0068693          	addi	a3,a3,-1024 # c00 <__stack_size+0x400>
2010164e:	08c6e363          	bltu	a3,a2,201016d4 <HS_Endp1_ISOHander+0x1ae>
20101652:	201466b7          	lui	a3,0x20146
20101656:	8f86c603          	lbu	a2,-1800(a3) # 201458f8 <togGG.0>
2010165a:	4589                	li	a1,2
2010165c:	04b61063          	bne	a2,a1,2010169c <HS_Endp1_ISOHander+0x176>
20101660:	4785                	li	a5,1
20101662:	8ef68c23          	sb	a5,-1800(a3)
20101666:	8241a783          	lw	a5,-2012(gp) # 201318b4 <USBUploadaddr>
2010166a:	400306b7          	lui	a3,0x40030
2010166e:	40078793          	addi	a5,a5,1024
20101672:	c2bc                	sw	a5,64(a3)
20101674:	40000793          	li	a5,1024
20101678:	cb1c                	sw	a5,16(a4)
2010167a:	2b1e                	lhu	a5,16(a4)
2010167c:	40030737          	lui	a4,0x40030
20101680:	0af71023          	sh	a5,160(a4) # 400300a0 <_eusrstack+0x1feb00a0>
20101684:	0a274783          	lbu	a5,162(a4)
20101688:	0fc7f793          	andi	a5,a5,252
2010168c:	0027e793          	ori	a5,a5,2
20101690:	0af70123          	sb	a5,162(a4)
20101694:	8082                	ret
20101696:	9186a583          	lw	a1,-1768(a3) # 4002f918 <_eusrstack+0x1feaf918>
2010169a:	b7a1                	j	201015e2 <HS_Endp1_ISOHander+0xbc>
2010169c:	4805                	li	a6,1
2010169e:	03061263          	bne	a2,a6,201016c2 <HS_Endp1_ISOHander+0x19c>
201016a2:	8e068c23          	sb	zero,-1800(a3)
201016a6:	8241a683          	lw	a3,-2012(gp) # 201318b4 <USBUploadaddr>
201016aa:	40030637          	lui	a2,0x40030
201016ae:	96aa                	add	a3,a3,a0
201016b0:	c234                	sw	a3,64(a2)
201016b2:	90c7a683          	lw	a3,-1780(a5)
201016b6:	80068693          	addi	a3,a3,-2048
201016ba:	cb14                	sw	a3,16(a4)
201016bc:	9007a623          	sw	zero,-1780(a5)
201016c0:	bf6d                	j	2010167a <HS_Endp1_ISOHander+0x154>
201016c2:	fe45                	bnez	a2,2010167a <HS_Endp1_ISOHander+0x154>
201016c4:	8eb68c23          	sb	a1,-1800(a3)
201016c8:	8241a683          	lw	a3,-2012(gp) # 201318b4 <USBUploadaddr>
201016cc:	400307b7          	lui	a5,0x40030
201016d0:	c3b4                	sw	a3,64(a5)
201016d2:	b74d                	j	20101674 <HS_Endp1_ISOHander+0x14e>
201016d4:	90c7a683          	lw	a3,-1780(a5) # 4002f90c <_eusrstack+0x1feaf90c>
201016d8:	40000613          	li	a2,1024
201016dc:	04d67763          	bgeu	a2,a3,2010172a <HS_Endp1_ISOHander+0x204>
201016e0:	90c7a583          	lw	a1,-1780(a5)
201016e4:	28b01693          	bseti	a3,zero,0xb
201016e8:	04b6e163          	bltu	a3,a1,2010172a <HS_Endp1_ISOHander+0x204>
201016ec:	201466b7          	lui	a3,0x20146
201016f0:	8f86c503          	lbu	a0,-1800(a3) # 201458f8 <togGG.0>
201016f4:	4585                	li	a1,1
201016f6:	02b51063          	bne	a0,a1,20101716 <HS_Endp1_ISOHander+0x1f0>
201016fa:	8e068c23          	sb	zero,-1800(a3)
201016fe:	8241a683          	lw	a3,-2012(gp) # 201318b4 <USBUploadaddr>
20101702:	40030637          	lui	a2,0x40030
20101706:	40068693          	addi	a3,a3,1024
2010170a:	c234                	sw	a3,64(a2)
2010170c:	90c7a683          	lw	a3,-1780(a5)
20101710:	c0068693          	addi	a3,a3,-1024
20101714:	b75d                	j	201016ba <HS_Endp1_ISOHander+0x194>
20101716:	f135                	bnez	a0,2010167a <HS_Endp1_ISOHander+0x154>
20101718:	8eb68c23          	sb	a1,-1800(a3)
2010171c:	8241a683          	lw	a3,-2012(gp) # 201318b4 <USBUploadaddr>
20101720:	400307b7          	lui	a5,0x40030
20101724:	c3b4                	sw	a3,64(a5)
20101726:	cb10                	sw	a2,16(a4)
20101728:	bf89                	j	2010167a <HS_Endp1_ISOHander+0x154>
2010172a:	90c7a603          	lw	a2,-1780(a5) # 4002f90c <_eusrstack+0x1feaf90c>
2010172e:	40000693          	li	a3,1024
20101732:	f4c6e4e3          	bltu	a3,a2,2010167a <HS_Endp1_ISOHander+0x154>
20101736:	8241a603          	lw	a2,-2012(gp) # 201318b4 <USBUploadaddr>
2010173a:	400306b7          	lui	a3,0x40030
2010173e:	c2b0                	sw	a2,64(a3)
20101740:	90c7a683          	lw	a3,-1780(a5)
20101744:	cb14                	sw	a3,16(a4)
20101746:	201466b7          	lui	a3,0x20146
2010174a:	8e068c23          	sb	zero,-1800(a3) # 201458f8 <togGG.0>
2010174e:	b7bd                	j	201016bc <HS_Endp1_ISOHander+0x196>
20101750:	201466b7          	lui	a3,0x20146
20101754:	9206a603          	lw	a2,-1760(a3) # 20145920 <Dvp_End>
20101758:	4785                	li	a5,1
2010175a:	00f61863          	bne	a2,a5,2010176a <HS_Endp1_ISOHander+0x244>
2010175e:	331c                	lbu	a5,1(a4)
20101760:	9206a023          	sw	zero,-1760(a3)
20101764:	0027e793          	ori	a5,a5,2
20101768:	b31c                	sb	a5,1(a4)
2010176a:	47c1                	li	a5,16
2010176c:	cb1c                	sw	a5,16(a4)
2010176e:	8241a683          	lw	a3,-2012(gp) # 201318b4 <USBUploadaddr>
20101772:	40030737          	lui	a4,0x40030
20101776:	c334                	sw	a3,64(a4)
20101778:	b721                	j	20101680 <HS_Endp1_ISOHander+0x15a>

2010177a <SS_Endp1_Hander>:
2010177a:	20146737          	lui	a4,0x20146
2010177e:	92c72783          	lw	a5,-1748(a4) # 2014592c <Dvp_Class>
20101782:	201465b7          	lui	a1,0x20146
20101786:	97c58613          	addi	a2,a1,-1668 # 2014597c <UVC>
2010178a:	0785                	addi	a5,a5,1
2010178c:	92f72623          	sw	a5,-1748(a4)
20101790:	e000f7b7          	lui	a5,0xe000f
20101794:	479c                	lw	a5,8(a5)
20101796:	fff7c693          	not	a3,a5
2010179a:	0106d793          	srli	a5,a3,0x10
2010179e:	a61e                	sh	a5,8(a2)
201017a0:	92c72783          	lw	a5,-1748(a4)
201017a4:	a276                	sh	a3,6(a2)
201017a6:	97c58713          	addi	a4,a1,-1668
201017aa:	8b9d                	andi	a5,a5,7
201017ac:	e791                	bnez	a5,201017b8 <SS_Endp1_Hander+0x3e>
201017ae:	273e                	lhu	a5,10(a4)
201017b0:	0785                	addi	a5,a5,1 # e000f001 <_eusrstack+0xbfe8f001>
201017b2:	7ff7f793          	andi	a5,a5,2047
201017b6:	a73e                	sh	a5,10(a4)
201017b8:	20146837          	lui	a6,0x20146
201017bc:	91285783          	lhu	a5,-1774(a6) # 20145912 <Dvp_DataSize>
201017c0:	201466b7          	lui	a3,0x20146
201017c4:	9186a603          	lw	a2,-1768(a3) # 20145918 <Dvp_Reclength>
201017c8:	0792                	slli	a5,a5,0x4
201017ca:	00f66c63          	bltu	a2,a5,201017e2 <SS_Endp1_Hander+0x68>
201017ce:	9006ac23          	sw	zero,-1768(a3)
201017d2:	201467b7          	lui	a5,0x20146
201017d6:	9007aa23          	sw	zero,-1772(a5) # 20145914 <DVP_Recaddpoint>
201017da:	201467b7          	lui	a5,0x20146
201017de:	9007a023          	sw	zero,-1792(a5) # 20145900 <USB_Uploadpoint>
201017e2:	9186a783          	lw	a5,-1768(a3)
201017e6:	201468b7          	lui	a7,0x20146
201017ea:	cbe1                	beqz	a5,201018ba <SS_Endp1_Hander+0x140>
201017ec:	9108c783          	lbu	a5,-1776(a7) # 20145910 <USB_Uploadflg>
201017f0:	e7e9                	bnez	a5,201018ba <SS_Endp1_Hander+0x140>
201017f2:	20146637          	lui	a2,0x20146
201017f6:	90062783          	lw	a5,-1792(a2) # 20145900 <USB_Uploadpoint>
201017fa:	20132537          	lui	a0,0x20132
201017fe:	8e050513          	addi	a0,a0,-1824 # 201318e0 <UVC_DMABuffer>
20101802:	07c1                	addi	a5,a5,16
20101804:	97aa                	add	a5,a5,a0
20101806:	82f1a223          	sw	a5,-2012(gp) # 201318b4 <USBUploadaddr>
2010180a:	9186a503          	lw	a0,-1768(a3)
2010180e:	90062e03          	lw	t3,-1792(a2)
20101812:	91285783          	lhu	a5,-1774(a6)
20101816:	9572                	add	a0,a0,t3
20101818:	0792                	slli	a5,a5,0x4
2010181a:	08f56d63          	bltu	a0,a5,201018b4 <SS_Endp1_Hander+0x13a>
2010181e:	91285783          	lhu	a5,-1774(a6)
20101822:	90062503          	lw	a0,-1792(a2)
20101826:	0792                	slli	a5,a5,0x4
20101828:	8f89                	sub	a5,a5,a0
2010182a:	90062503          	lw	a0,-1792(a2)
2010182e:	07c1                	addi	a5,a5,16
20101830:	cb1c                	sw	a5,16(a4)
20101832:	1541                	addi	a0,a0,-16
20101834:	953e                	add	a0,a0,a5
20101836:	90a62023          	sw	a0,-1792(a2)
2010183a:	91285503          	lhu	a0,-1774(a6)
2010183e:	90062803          	lw	a6,-1792(a2)
20101842:	0512                	slli	a0,a0,0x4
20101844:	00a86463          	bltu	a6,a0,2010184c <SS_Endp1_Hander+0xd2>
20101848:	90062023          	sw	zero,-1792(a2)
2010184c:	20146637          	lui	a2,0x20146
20101850:	90f62623          	sw	a5,-1780(a2) # 2014590c <USB_MframeUploadLength>
20101854:	90c62603          	lw	a2,-1780(a2)
20101858:	201467b7          	lui	a5,0x20146
2010185c:	90c7a423          	sw	a2,-1784(a5) # 20145908 <USB_LastMframeUploadLength>
20101860:	8241a503          	lw	a0,-2012(gp) # 201318b4 <USBUploadaddr>
20101864:	40034837          	lui	a6,0x40034
20101868:	20146e37          	lui	t3,0x20146
2010186c:	0ca82623          	sw	a0,204(a6) # 400340cc <_eusrstack+0x1feb40cc>
20101870:	01072303          	lw	t1,16(a4)
20101874:	3ff37613          	andi	a2,t1,1023
20101878:	00a35793          	srli	a5,t1,0xa
2010187c:	ce39                	beqz	a2,201018da <SS_Endp1_Hander+0x160>
2010187e:	08064633          	zext.h	a2,a2
20101882:	0785                	addi	a5,a5,1
20101884:	0cc81323          	sh	a2,198(a6)
20101888:	0ff7f613          	zext.b	a2,a5
2010188c:	0cc80423          	sb	a2,200(a6)
20101890:	90fe2223          	sw	a5,-1788(t3) # 20145904 <USB_Uploadcount>
20101894:	47c1                	li	a5,16
20101896:	0467fa63          	bgeu	a5,t1,201018ea <SS_Endp1_Hander+0x170>
2010189a:	4785                	li	a5,1
2010189c:	90f88823          	sb	a5,-1776(a7)
201018a0:	47c1                	li	a5,16
201018a2:	cb1c                	sw	a5,16(a4)
201018a4:	331c                	lbu	a5,1(a4)
201018a6:	4641                	li	a2,16
201018a8:	97c58593          	addi	a1,a1,-1668
201018ac:	9bf5                	andi	a5,a5,-3
201018ae:	b31c                	sb	a5,1(a4)
201018b0:	a05fe06f          	j	201002b4 <memcpy>
201018b4:	9186a783          	lw	a5,-1768(a3)
201018b8:	bf8d                	j	2010182a <SS_Endp1_Hander+0xb0>
201018ba:	20146637          	lui	a2,0x20146
201018be:	92062503          	lw	a0,-1760(a2) # 20145920 <Dvp_End>
201018c2:	4785                	li	a5,1
201018c4:	00f51863          	bne	a0,a5,201018d4 <SS_Endp1_Hander+0x15a>
201018c8:	331c                	lbu	a5,1(a4)
201018ca:	92062023          	sw	zero,-1760(a2)
201018ce:	0027e793          	ori	a5,a5,2
201018d2:	b31c                	sb	a5,1(a4)
201018d4:	47c1                	li	a5,16
201018d6:	cb1c                	sw	a5,16(a4)
201018d8:	b761                	j	20101860 <SS_Endp1_Hander+0xe6>
201018da:	20146637          	lui	a2,0x20146
201018de:	90c62603          	lw	a2,-1780(a2) # 2014590c <USB_MframeUploadLength>
201018e2:	8229                	srli	a2,a2,0xa
201018e4:	0ff67613          	zext.b	a2,a2
201018e8:	b755                	j	2010188c <SS_Endp1_Hander+0x112>
201018ea:	20146637          	lui	a2,0x20146
201018ee:	90862783          	lw	a5,-1784(a2) # 20145908 <USB_LastMframeUploadLength>
201018f2:	cf81                	beqz	a5,2010190a <SS_Endp1_Hander+0x190>
201018f4:	90862803          	lw	a6,-1784(a2)
201018f8:	9186a783          	lw	a5,-1768(a3)
201018fc:	07c1                	addi	a5,a5,16
201018fe:	410787b3          	sub	a5,a5,a6
20101902:	90f6ac23          	sw	a5,-1768(a3)
20101906:	90062423          	sw	zero,-1784(a2)
2010190a:	90088823          	sb	zero,-1776(a7)
2010190e:	bf49                	j	201018a0 <SS_Endp1_Hander+0x126>

20101910 <DVP_Hander>:
20101910:	40026737          	lui	a4,0x40026
20101914:	81074783          	lbu	a5,-2032(a4) # 40025810 <_eusrstack+0x1fea5810>
20101918:	80070713          	addi	a4,a4,-2048
2010191c:	8b89                	andi	a5,a5,2
2010191e:	c3c9                	beqz	a5,201019a0 <DVP_Hander+0x90>
20101920:	2376                	lhu	a3,6(a4)
20101922:	201467b7          	lui	a5,0x20146
20101926:	0806c6b3          	zext.h	a3,a3
2010192a:	90d79923          	sh	a3,-1774(a5) # 20145912 <Dvp_DataSize>
2010192e:	4689                	li	a3,2
20101930:	ab14                	sb	a3,16(a4)
20101932:	201466b7          	lui	a3,0x20146
20101936:	9127d703          	lhu	a4,-1774(a5)
2010193a:	9186a603          	lw	a2,-1768(a3) # 20145918 <Dvp_Reclength>
2010193e:	9732                	add	a4,a4,a2
20101940:	90e6ac23          	sw	a4,-1768(a3)
20101944:	20146737          	lui	a4,0x20146
20101948:	9127d683          	lhu	a3,-1774(a5)
2010194c:	91472603          	lw	a2,-1772(a4) # 20145914 <DVP_Recaddpoint>
20101950:	96b2                	add	a3,a3,a2
20101952:	90d72a23          	sw	a3,-1772(a4)
20101956:	9127d683          	lhu	a3,-1774(a5)
2010195a:	91472603          	lw	a2,-1772(a4)
2010195e:	0692                	slli	a3,a3,0x4
20101960:	00d66463          	bltu	a2,a3,20101968 <DVP_Hander+0x58>
20101964:	90072a23          	sw	zero,-1772(a4)
20101968:	20146637          	lui	a2,0x20146
2010196c:	92862583          	lw	a1,-1752(a2) # 20145928 <Dvp_Addrcount>
20101970:	9127d503          	lhu	a0,-1774(a5)
20101974:	91472803          	lw	a6,-1772(a4)
20101978:	8985                	andi	a1,a1,1
2010197a:	8281a683          	lw	a3,-2008(gp) # 201318b8 <Dvp_Recaddr>
2010197e:	cdd5                	beqz	a1,20101a3a <DVP_Hander+0x12a>
20101980:	9127d583          	lhu	a1,-1774(a5)
20101984:	9542                	add	a0,a0,a6
20101986:	0592                	slli	a1,a1,0x4
20101988:	08b56d63          	bltu	a0,a1,20101a22 <DVP_Hander+0x112>
2010198c:	400267b7          	lui	a5,0x40026
20101990:	80078793          	addi	a5,a5,-2048 # 40025800 <_eusrstack+0x1fea5800>
20101994:	c7d4                	sw	a3,12(a5)
20101996:	92862783          	lw	a5,-1752(a2)
2010199a:	0785                	addi	a5,a5,1
2010199c:	92f62423          	sw	a5,-1752(a2)
201019a0:	400267b7          	lui	a5,0x40026
201019a4:	8107c703          	lbu	a4,-2032(a5) # 40025810 <_eusrstack+0x1fea5810>
201019a8:	80078793          	addi	a5,a5,-2048
201019ac:	8b11                	andi	a4,a4,4
201019ae:	c319                	beqz	a4,201019b4 <DVP_Hander+0xa4>
201019b0:	4711                	li	a4,4
201019b2:	ab98                	sb	a4,16(a5)
201019b4:	2b98                	lbu	a4,16(a5)
201019b6:	8b05                	andi	a4,a4,1
201019b8:	cb1d                	beqz	a4,201019ee <DVP_Hander+0xde>
201019ba:	4705                	li	a4,1
201019bc:	ab98                	sb	a4,16(a5)
201019be:	201467b7          	lui	a5,0x20146
201019c2:	91c7a783          	lw	a5,-1764(a5) # 2014591c <UVC_DvpStart>
201019c6:	8b85                	andi	a5,a5,1
201019c8:	c39d                	beqz	a5,201019ee <DVP_Hander+0xde>
201019ca:	e000f7b7          	lui	a5,0xe000f
201019ce:	4798                	lw	a4,8(a5)
201019d0:	201467b7          	lui	a5,0x20146
201019d4:	97c78793          	addi	a5,a5,-1668 # 2014597c <UVC>
201019d8:	a3ba                	sh	a4,2(a5)
201019da:	8341                	srli	a4,a4,0x10
201019dc:	a3da                	sh	a4,4(a5)
201019de:	20146737          	lui	a4,0x20146
201019e2:	92072423          	sw	zero,-1752(a4) # 20145928 <Dvp_Addrcount>
201019e6:	3398                	lbu	a4,1(a5)
201019e8:	00174713          	xori	a4,a4,1
201019ec:	b398                	sb	a4,1(a5)
201019ee:	400267b7          	lui	a5,0x40026
201019f2:	8107c703          	lbu	a4,-2032(a5) # 40025810 <_eusrstack+0x1fea5810>
201019f6:	80078793          	addi	a5,a5,-2048
201019fa:	8b41                	andi	a4,a4,16
201019fc:	cb01                	beqz	a4,20101a0c <DVP_Hander+0xfc>
201019fe:	4741                	li	a4,16
20101a00:	ab98                	sb	a4,16(a5)
20101a02:	201467b7          	lui	a5,0x20146
20101a06:	4705                	li	a4,1
20101a08:	92e7a023          	sw	a4,-1760(a5) # 20145920 <Dvp_End>
20101a0c:	400267b7          	lui	a5,0x40026
20101a10:	8107c703          	lbu	a4,-2032(a5) # 40025810 <_eusrstack+0x1fea5810>
20101a14:	80078793          	addi	a5,a5,-2048
20101a18:	8b21                	andi	a4,a4,8
20101a1a:	c319                	beqz	a4,20101a20 <DVP_Hander+0x110>
20101a1c:	4721                	li	a4,8
20101a1e:	ab98                	sb	a4,16(a5)
20101a20:	8082                	ret
20101a22:	91472703          	lw	a4,-1772(a4)
20101a26:	9127d783          	lhu	a5,-1774(a5)
20101a2a:	97b6                	add	a5,a5,a3
20101a2c:	97ba                	add	a5,a5,a4
20101a2e:	40026737          	lui	a4,0x40026
20101a32:	80070713          	addi	a4,a4,-2048 # 40025800 <_eusrstack+0x1fea5800>
20101a36:	c75c                	sw	a5,12(a4)
20101a38:	bfb9                	j	20101996 <DVP_Hander+0x86>
20101a3a:	9127d583          	lhu	a1,-1774(a5)
20101a3e:	9542                	add	a0,a0,a6
20101a40:	0592                	slli	a1,a1,0x4
20101a42:	00b56863          	bltu	a0,a1,20101a52 <DVP_Hander+0x142>
20101a46:	400267b7          	lui	a5,0x40026
20101a4a:	80078793          	addi	a5,a5,-2048 # 40025800 <_eusrstack+0x1fea5800>
20101a4e:	c794                	sw	a3,8(a5)
20101a50:	b799                	j	20101996 <DVP_Hander+0x86>
20101a52:	91472703          	lw	a4,-1772(a4)
20101a56:	9127d783          	lhu	a5,-1774(a5)
20101a5a:	97b6                	add	a5,a5,a3
20101a5c:	97ba                	add	a5,a5,a4
20101a5e:	40026737          	lui	a4,0x40026
20101a62:	80070713          	addi	a4,a4,-2048 # 40025800 <_eusrstack+0x1fea5800>
20101a66:	c71c                	sw	a5,8(a4)
20101a68:	b73d                	j	20101996 <DVP_Hander+0x86>

20101a6a <USBHS_UVC_NonStandardReq>:
20101a6a:	201467b7          	lui	a5,0x20146
20101a6e:	9407c703          	lbu	a4,-1728(a5) # 20145940 <USBHS_SetupReqType>
20101a72:	0a100793          	li	a5,161
20101a76:	00f70463          	beq	a4,a5,20101a7e <USBHS_UVC_NonStandardReq+0x14>
20101a7a:	4501                	li	a0,0
20101a7c:	8082                	ret
20101a7e:	201466b7          	lui	a3,0x20146
20101a82:	93c6d783          	lhu	a5,-1732(a3) # 2014593c <USBHS_SetupReqIndex>
20101a86:	4719                	li	a4,6
20101a88:	83a1                	srli	a5,a5,0x8
20101a8a:	04f76b63          	bltu	a4,a5,20101ae0 <USBHS_UVC_NonStandardReq+0x76>
20101a8e:	20105737          	lui	a4,0x20105
20101a92:	7e070713          	addi	a4,a4,2016 # 201057e0 <ov2640_JPEGframe_resolution_USB30+0x14>
20101a96:	20e7c7b3          	sh2add	a5,a5,a4
20101a9a:	439c                	lw	a5,0(a5)
20101a9c:	8782                	jr	a5
20101a9e:	93c6d783          	lhu	a5,-1732(a3)
20101aa2:	0ff7f793          	zext.b	a5,a5
20101aa6:	c3a1                	beqz	a5,20101ae6 <USBHS_UVC_NonStandardReq+0x7c>
20101aa8:	4705                	li	a4,1
20101aaa:	06e78763          	beq	a5,a4,20101b18 <USBHS_UVC_NonStandardReq+0xae>
20101aae:	93c6d783          	lhu	a5,-1732(a3)
20101ab2:	4705                	li	a4,1
20101ab4:	83a1                	srli	a5,a5,0x8
20101ab6:	fce792e3          	bne	a5,a4,20101a7a <USBHS_UVC_NonStandardReq+0x10>
20101aba:	20146737          	lui	a4,0x20146
20101abe:	93e75783          	lhu	a5,-1730(a4) # 2014593e <USBHS_SetupReqValue>
20101ac2:	46d1                	li	a3,20
20101ac4:	83a1                	srli	a5,a5,0x8
20101ac6:	00d78863          	beq	a5,a3,20101ad6 <USBHS_UVC_NonStandardReq+0x6c>
20101aca:	93e75783          	lhu	a5,-1730(a4)
20101ace:	4725                	li	a4,9
20101ad0:	83a1                	srli	a5,a5,0x8
20101ad2:	fae794e3          	bne	a5,a4,20101a7a <USBHS_UVC_NonStandardReq+0x10>
20101ad6:	201317b7          	lui	a5,0x20131
20101ada:	4719                	li	a4,6
20101adc:	56e78ca3          	sb	a4,1401(a5) # 20131579 <VAICSID+0xa9>
20101ae0:	0ff00513          	li	a0,255
20101ae4:	8082                	ret
20101ae6:	201467b7          	lui	a5,0x20146
20101aea:	9417c703          	lbu	a4,-1727(a5) # 20145941 <USBHS_SetupReqCode>
20101aee:	08100793          	li	a5,129
20101af2:	faf71ee3          	bne	a4,a5,20101aae <USBHS_UVC_NonStandardReq+0x44>
20101af6:	201467b7          	lui	a5,0x20146
20101afa:	93e7d783          	lhu	a5,-1730(a5) # 2014593e <USBHS_SetupReqValue>
20101afe:	03f00713          	li	a4,63
20101b02:	83a1                	srli	a5,a5,0x8
20101b04:	02e787b3          	mul	a5,a5,a4
20101b08:	20131737          	lui	a4,0x20131
20101b0c:	4d070713          	addi	a4,a4,1232 # 201314d0 <VAICSID>
20101b10:	02b78793          	addi	a5,a5,43
20101b14:	97ba                	add	a5,a5,a4
20101b16:	a831                	j	20101b32 <USBHS_UVC_NonStandardReq+0xc8>
20101b18:	201467b7          	lui	a5,0x20146
20101b1c:	9417c783          	lbu	a5,-1727(a5) # 20145941 <USBHS_SetupReqCode>
20101b20:	4719                	li	a4,6
20101b22:	f7f78793          	addi	a5,a5,-129
20101b26:	f8f764e3          	bltu	a4,a5,20101aae <USBHS_UVC_NonStandardReq+0x44>
20101b2a:	201307b7          	lui	a5,0x20130
20101b2e:	18078793          	addi	a5,a5,384 # 20130180 <Get_Curr>
20101b32:	c11c                	sw	a5,0(a0)
20101b34:	bfad                	j	20101aae <USBHS_UVC_NonStandardReq+0x44>
20101b36:	201467b7          	lui	a5,0x20146
20101b3a:	9417c783          	lbu	a5,-1727(a5) # 20145941 <USBHS_SetupReqCode>
20101b3e:	4719                	li	a4,6
20101b40:	07f78793          	addi	a5,a5,127
20101b44:	0ff7f793          	zext.b	a5,a5
20101b48:	f6f763e3          	bltu	a4,a5,20101aae <USBHS_UVC_NonStandardReq+0x44>
20101b4c:	20105737          	lui	a4,0x20105
20101b50:	7fc70713          	addi	a4,a4,2044 # 201057fc <ov2640_JPEGframe_resolution_USB30+0x30>
20101b54:	20e7c7b3          	sh2add	a5,a5,a4
20101b58:	4390                	lw	a2,0(a5)
20101b5a:	201317b7          	lui	a5,0x20131
20101b5e:	20146737          	lui	a4,0x20146
20101b62:	fa478793          	addi	a5,a5,-92 # 20130fa4 <CameraID>
20101b66:	93e75703          	lhu	a4,-1730(a4) # 2014593e <USBHS_SetupReqValue>
20101b6a:	8321                	srli	a4,a4,0x8
20101b6c:	8602                	jr	a2
20101b6e:	201467b7          	lui	a5,0x20146
20101b72:	9417c783          	lbu	a5,-1727(a5) # 20145941 <USBHS_SetupReqCode>
20101b76:	4719                	li	a4,6
20101b78:	07f78793          	addi	a5,a5,127
20101b7c:	0ff7f793          	zext.b	a5,a5
20101b80:	f2f767e3          	bltu	a4,a5,20101aae <USBHS_UVC_NonStandardReq+0x44>
20101b84:	20105737          	lui	a4,0x20105
20101b88:	7fc70713          	addi	a4,a4,2044 # 201057fc <ov2640_JPEGframe_resolution_USB30+0x30>
20101b8c:	20e7c7b3          	sh2add	a5,a5,a4
20101b90:	4390                	lw	a2,0(a5)
20101b92:	201317b7          	lui	a5,0x20131
20101b96:	20146737          	lui	a4,0x20146
20101b9a:	ab878793          	addi	a5,a5,-1352 # 20130ab8 <ProcessID>
20101b9e:	b7e1                	j	20101b66 <USBHS_UVC_NonStandardReq+0xfc>
20101ba0:	201467b7          	lui	a5,0x20146
20101ba4:	9417c783          	lbu	a5,-1727(a5) # 20145941 <USBHS_SetupReqCode>
20101ba8:	4719                	li	a4,6
20101baa:	07f78793          	addi	a5,a5,127
20101bae:	0ff7f793          	zext.b	a5,a5
20101bb2:	eef76ee3          	bltu	a4,a5,20101aae <USBHS_UVC_NonStandardReq+0x44>
20101bb6:	20105737          	lui	a4,0x20105
20101bba:	7fc70713          	addi	a4,a4,2044 # 201057fc <ov2640_JPEGframe_resolution_USB30+0x30>
20101bbe:	20e7c7b3          	sh2add	a5,a5,a4
20101bc2:	4390                	lw	a2,0(a5)
20101bc4:	201307b7          	lui	a5,0x20130
20101bc8:	20146737          	lui	a4,0x20146
20101bcc:	7c478793          	addi	a5,a5,1988 # 201307c4 <ExtensionID1>
20101bd0:	bf59                	j	20101b66 <USBHS_UVC_NonStandardReq+0xfc>
20101bd2:	201467b7          	lui	a5,0x20146
20101bd6:	9417c783          	lbu	a5,-1727(a5) # 20145941 <USBHS_SetupReqCode>
20101bda:	4719                	li	a4,6
20101bdc:	07f78793          	addi	a5,a5,127
20101be0:	0ff7f793          	zext.b	a5,a5
20101be4:	ecf765e3          	bltu	a4,a5,20101aae <USBHS_UVC_NonStandardReq+0x44>
20101be8:	20105737          	lui	a4,0x20105
20101bec:	7fc70713          	addi	a4,a4,2044 # 201057fc <ov2640_JPEGframe_resolution_USB30+0x30>
20101bf0:	20e7c7b3          	sh2add	a5,a5,a4
20101bf4:	4390                	lw	a2,0(a5)
20101bf6:	201307b7          	lui	a5,0x20130
20101bfa:	20146737          	lui	a4,0x20146
20101bfe:	19c78793          	addi	a5,a5,412 # 2013019c <ExtensionID2>
20101c02:	b795                	j	20101b66 <USBHS_UVC_NonStandardReq+0xfc>
20101c04:	03f00613          	li	a2,63
20101c08:	02c70733          	mul	a4,a4,a2
20101c0c:	02b70713          	addi	a4,a4,43 # 2014602b <Data_Buffer+0x69b>
20101c10:	b711                	j	20101b14 <USBHS_UVC_NonStandardReq+0xaa>
20101c12:	03f00613          	li	a2,63
20101c16:	02c70733          	mul	a4,a4,a2
20101c1a:	070d                	addi	a4,a4,3
20101c1c:	bde5                	j	20101b14 <USBHS_UVC_NonStandardReq+0xaa>
20101c1e:	03f00613          	li	a2,63
20101c22:	02c70733          	mul	a4,a4,a2
20101c26:	0735                	addi	a4,a4,13
20101c28:	b5f5                	j	20101b14 <USBHS_UVC_NonStandardReq+0xaa>
20101c2a:	03f00613          	li	a2,63
20101c2e:	02c70733          	mul	a4,a4,a2
20101c32:	075d                	addi	a4,a4,23
20101c34:	b5c5                	j	20101b14 <USBHS_UVC_NonStandardReq+0xaa>
20101c36:	03f00613          	li	a2,63
20101c3a:	02c70733          	mul	a4,a4,a2
20101c3e:	0705                	addi	a4,a4,1
20101c40:	bdd1                	j	20101b14 <USBHS_UVC_NonStandardReq+0xaa>
20101c42:	03f00613          	li	a2,63
20101c46:	02c70733          	mul	a4,a4,a2
20101c4a:	b5e9                	j	20101b14 <USBHS_UVC_NonStandardReq+0xaa>
20101c4c:	03f00613          	li	a2,63
20101c50:	02c70733          	mul	a4,a4,a2
20101c54:	02170713          	addi	a4,a4,33
20101c58:	bd75                	j	20101b14 <USBHS_UVC_NonStandardReq+0xaa>

20101c5a <USBSS_UVC_NonStandardReq>:
20101c5a:	201467b7          	lui	a5,0x20146
20101c5e:	95d7c783          	lbu	a5,-1699(a5) # 2014595d <USBSS_SetupReqType>
20101c62:	4705                	li	a4,1
20101c64:	8bfd                	andi	a5,a5,31
20101c66:	00e78463          	beq	a5,a4,20101c6e <USBSS_UVC_NonStandardReq+0x14>
20101c6a:	4501                	li	a0,0
20101c6c:	8082                	ret
20101c6e:	201466b7          	lui	a3,0x20146
20101c72:	9586d783          	lhu	a5,-1704(a3) # 20145958 <USBSS_SetupReqIndex>
20101c76:	4719                	li	a4,6
20101c78:	83a1                	srli	a5,a5,0x8
20101c7a:	02f76263          	bltu	a4,a5,20101c9e <USBSS_UVC_NonStandardReq+0x44>
20101c7e:	20106737          	lui	a4,0x20106
20101c82:	81870713          	addi	a4,a4,-2024 # 20105818 <ov2640_JPEGframe_resolution_USB30+0x4c>
20101c86:	20e7c7b3          	sh2add	a5,a5,a4
20101c8a:	439c                	lw	a5,0(a5)
20101c8c:	8782                	jr	a5
20101c8e:	9586d783          	lhu	a5,-1704(a3)
20101c92:	0ff7f793          	zext.b	a5,a5
20101c96:	c3a1                	beqz	a5,20101cd6 <USBSS_UVC_NonStandardReq+0x7c>
20101c98:	4705                	li	a4,1
20101c9a:	06e78763          	beq	a5,a4,20101d08 <USBSS_UVC_NonStandardReq+0xae>
20101c9e:	9586d783          	lhu	a5,-1704(a3)
20101ca2:	4705                	li	a4,1
20101ca4:	83a1                	srli	a5,a5,0x8
20101ca6:	fce792e3          	bne	a5,a4,20101c6a <USBSS_UVC_NonStandardReq+0x10>
20101caa:	20146737          	lui	a4,0x20146
20101cae:	95a75783          	lhu	a5,-1702(a4) # 2014595a <USBSS_SetupReqValue>
20101cb2:	46d1                	li	a3,20
20101cb4:	83a1                	srli	a5,a5,0x8
20101cb6:	00d78863          	beq	a5,a3,20101cc6 <USBSS_UVC_NonStandardReq+0x6c>
20101cba:	95a75783          	lhu	a5,-1702(a4)
20101cbe:	4725                	li	a4,9
20101cc0:	83a1                	srli	a5,a5,0x8
20101cc2:	fae794e3          	bne	a5,a4,20101c6a <USBSS_UVC_NonStandardReq+0x10>
20101cc6:	201317b7          	lui	a5,0x20131
20101cca:	4719                	li	a4,6
20101ccc:	56e78ca3          	sb	a4,1401(a5) # 20131579 <VAICSID+0xa9>
20101cd0:	0ff00513          	li	a0,255
20101cd4:	8082                	ret
20101cd6:	201467b7          	lui	a5,0x20146
20101cda:	95c7c703          	lbu	a4,-1700(a5) # 2014595c <USBSS_SetupReqCode>
20101cde:	08100793          	li	a5,129
20101ce2:	faf71ee3          	bne	a4,a5,20101c9e <USBSS_UVC_NonStandardReq+0x44>
20101ce6:	201467b7          	lui	a5,0x20146
20101cea:	95a7d783          	lhu	a5,-1702(a5) # 2014595a <USBSS_SetupReqValue>
20101cee:	03f00713          	li	a4,63
20101cf2:	83a1                	srli	a5,a5,0x8
20101cf4:	02e787b3          	mul	a5,a5,a4
20101cf8:	20131737          	lui	a4,0x20131
20101cfc:	4d070713          	addi	a4,a4,1232 # 201314d0 <VAICSID>
20101d00:	02b78793          	addi	a5,a5,43
20101d04:	97ba                	add	a5,a5,a4
20101d06:	a831                	j	20101d22 <USBSS_UVC_NonStandardReq+0xc8>
20101d08:	201467b7          	lui	a5,0x20146
20101d0c:	95c7c783          	lbu	a5,-1700(a5) # 2014595c <USBSS_SetupReqCode>
20101d10:	4719                	li	a4,6
20101d12:	f7f78793          	addi	a5,a5,-129
20101d16:	f8f764e3          	bltu	a4,a5,20101c9e <USBSS_UVC_NonStandardReq+0x44>
20101d1a:	201307b7          	lui	a5,0x20130
20101d1e:	18078793          	addi	a5,a5,384 # 20130180 <Get_Curr>
20101d22:	c11c                	sw	a5,0(a0)
20101d24:	bfad                	j	20101c9e <USBSS_UVC_NonStandardReq+0x44>
20101d26:	201467b7          	lui	a5,0x20146
20101d2a:	95c7c783          	lbu	a5,-1700(a5) # 2014595c <USBSS_SetupReqCode>
20101d2e:	4719                	li	a4,6
20101d30:	07f78793          	addi	a5,a5,127
20101d34:	0ff7f793          	zext.b	a5,a5
20101d38:	f6f763e3          	bltu	a4,a5,20101c9e <USBSS_UVC_NonStandardReq+0x44>
20101d3c:	20106737          	lui	a4,0x20106
20101d40:	83470713          	addi	a4,a4,-1996 # 20105834 <ov2640_JPEGframe_resolution_USB30+0x68>
20101d44:	20e7c7b3          	sh2add	a5,a5,a4
20101d48:	4390                	lw	a2,0(a5)
20101d4a:	201317b7          	lui	a5,0x20131
20101d4e:	20146737          	lui	a4,0x20146
20101d52:	fa478793          	addi	a5,a5,-92 # 20130fa4 <CameraID>
20101d56:	95a75703          	lhu	a4,-1702(a4) # 2014595a <USBSS_SetupReqValue>
20101d5a:	8321                	srli	a4,a4,0x8
20101d5c:	8602                	jr	a2
20101d5e:	201467b7          	lui	a5,0x20146
20101d62:	95c7c783          	lbu	a5,-1700(a5) # 2014595c <USBSS_SetupReqCode>
20101d66:	4719                	li	a4,6
20101d68:	07f78793          	addi	a5,a5,127
20101d6c:	0ff7f793          	zext.b	a5,a5
20101d70:	f2f767e3          	bltu	a4,a5,20101c9e <USBSS_UVC_NonStandardReq+0x44>
20101d74:	20106737          	lui	a4,0x20106
20101d78:	83470713          	addi	a4,a4,-1996 # 20105834 <ov2640_JPEGframe_resolution_USB30+0x68>
20101d7c:	20e7c7b3          	sh2add	a5,a5,a4
20101d80:	4390                	lw	a2,0(a5)
20101d82:	201317b7          	lui	a5,0x20131
20101d86:	20146737          	lui	a4,0x20146
20101d8a:	ab878793          	addi	a5,a5,-1352 # 20130ab8 <ProcessID>
20101d8e:	b7e1                	j	20101d56 <USBSS_UVC_NonStandardReq+0xfc>
20101d90:	201467b7          	lui	a5,0x20146
20101d94:	95c7c783          	lbu	a5,-1700(a5) # 2014595c <USBSS_SetupReqCode>
20101d98:	4719                	li	a4,6
20101d9a:	07f78793          	addi	a5,a5,127
20101d9e:	0ff7f793          	zext.b	a5,a5
20101da2:	eef76ee3          	bltu	a4,a5,20101c9e <USBSS_UVC_NonStandardReq+0x44>
20101da6:	20106737          	lui	a4,0x20106
20101daa:	83470713          	addi	a4,a4,-1996 # 20105834 <ov2640_JPEGframe_resolution_USB30+0x68>
20101dae:	20e7c7b3          	sh2add	a5,a5,a4
20101db2:	4390                	lw	a2,0(a5)
20101db4:	201307b7          	lui	a5,0x20130
20101db8:	20146737          	lui	a4,0x20146
20101dbc:	7c478793          	addi	a5,a5,1988 # 201307c4 <ExtensionID1>
20101dc0:	bf59                	j	20101d56 <USBSS_UVC_NonStandardReq+0xfc>
20101dc2:	201467b7          	lui	a5,0x20146
20101dc6:	95c7c783          	lbu	a5,-1700(a5) # 2014595c <USBSS_SetupReqCode>
20101dca:	4719                	li	a4,6
20101dcc:	07f78793          	addi	a5,a5,127
20101dd0:	0ff7f793          	zext.b	a5,a5
20101dd4:	ecf765e3          	bltu	a4,a5,20101c9e <USBSS_UVC_NonStandardReq+0x44>
20101dd8:	20106737          	lui	a4,0x20106
20101ddc:	83470713          	addi	a4,a4,-1996 # 20105834 <ov2640_JPEGframe_resolution_USB30+0x68>
20101de0:	20e7c7b3          	sh2add	a5,a5,a4
20101de4:	4390                	lw	a2,0(a5)
20101de6:	201307b7          	lui	a5,0x20130
20101dea:	20146737          	lui	a4,0x20146
20101dee:	19c78793          	addi	a5,a5,412 # 2013019c <ExtensionID2>
20101df2:	b795                	j	20101d56 <USBSS_UVC_NonStandardReq+0xfc>
20101df4:	03f00613          	li	a2,63
20101df8:	02c70733          	mul	a4,a4,a2
20101dfc:	02b70713          	addi	a4,a4,43 # 2014602b <Data_Buffer+0x69b>
20101e00:	b711                	j	20101d04 <USBSS_UVC_NonStandardReq+0xaa>
20101e02:	03f00613          	li	a2,63
20101e06:	02c70733          	mul	a4,a4,a2
20101e0a:	070d                	addi	a4,a4,3
20101e0c:	bde5                	j	20101d04 <USBSS_UVC_NonStandardReq+0xaa>
20101e0e:	03f00613          	li	a2,63
20101e12:	02c70733          	mul	a4,a4,a2
20101e16:	0735                	addi	a4,a4,13
20101e18:	b5f5                	j	20101d04 <USBSS_UVC_NonStandardReq+0xaa>
20101e1a:	03f00613          	li	a2,63
20101e1e:	02c70733          	mul	a4,a4,a2
20101e22:	075d                	addi	a4,a4,23
20101e24:	b5c5                	j	20101d04 <USBSS_UVC_NonStandardReq+0xaa>
20101e26:	03f00613          	li	a2,63
20101e2a:	02c70733          	mul	a4,a4,a2
20101e2e:	0705                	addi	a4,a4,1
20101e30:	bdd1                	j	20101d04 <USBSS_UVC_NonStandardReq+0xaa>
20101e32:	03f00613          	li	a2,63
20101e36:	02c70733          	mul	a4,a4,a2
20101e3a:	b5e9                	j	20101d04 <USBSS_UVC_NonStandardReq+0xaa>
20101e3c:	03f00613          	li	a2,63
20101e40:	02c70733          	mul	a4,a4,a2
20101e44:	02170713          	addi	a4,a4,33
20101e48:	bd75                	j	20101d04 <USBSS_UVC_NonStandardReq+0xaa>

20101e4a <DVP_IRQHandler>:
20101e4a:	34d9                	jal	20101910 <DVP_Hander>
20101e4c:	30200073          	mret

20101e50 <dvp_Init>:
20101e50:	c34fe2ef          	jal	t0,20100284 <__riscv_save_0>
20101e54:	4585                	li	a1,1
20101e56:	6509                	lui	a0,0x2
20101e58:	890ff0ef          	jal	ra,20100ee8 <RCC_HBPeriphClockCmd>
20101e5c:	40026737          	lui	a4,0x40026
20101e60:	80074683          	lbu	a3,-2048(a4) # 40025800 <_eusrstack+0x1fea5800>
20101e64:	80070793          	addi	a5,a4,-2048
20101e68:	0cf6f693          	andi	a3,a3,207
20101e6c:	80d70023          	sb	a3,-2048(a4)
20101e70:	80074683          	lbu	a3,-2048(a4)
20101e74:	0026e693          	ori	a3,a3,2
20101e78:	80d70023          	sb	a3,-2048(a4)
20101e7c:	80174683          	lbu	a3,-2047(a4)
20101e80:	0f96f693          	andi	a3,a3,249
20101e84:	80d700a3          	sb	a3,-2047(a4)
20101e88:	8281a603          	lw	a2,-2008(gp) # 201318b8 <Dvp_Recaddr>
20101e8c:	201466b7          	lui	a3,0x20146
20101e90:	c790                	sw	a2,8(a5)
20101e92:	9126d683          	lhu	a3,-1774(a3) # 20145912 <Dvp_DataSize>
20101e96:	96b2                	add	a3,a3,a2
20101e98:	c7d4                	sw	a3,12(a5)
20101e9a:	80274683          	lbu	a3,-2046(a4)
20101e9e:	0106e693          	ori	a3,a3,16
20101ea2:	80d70123          	sb	a3,-2046(a4)
20101ea6:	80274683          	lbu	a3,-2046(a4)
20101eaa:	0046e693          	ori	a3,a3,4
20101eae:	80d70123          	sb	a3,-2046(a4)
20101eb2:	80274683          	lbu	a3,-2046(a4)
20101eb6:	0026e693          	ori	a3,a3,2
20101eba:	80d70123          	sb	a3,-2046(a4)
20101ebe:	80274683          	lbu	a3,-2046(a4)
20101ec2:	0016e693          	ori	a3,a3,1
20101ec6:	80d70123          	sb	a3,-2046(a4)
20101eca:	80274683          	lbu	a3,-2046(a4)
20101ece:	0086e693          	ori	a3,a3,8
20101ed2:	80d70123          	sb	a3,-2046(a4)
20101ed6:	80174683          	lbu	a3,-2047(a4)
20101eda:	0016e693          	ori	a3,a3,1
20101ede:	80d700a3          	sb	a3,-2047(a4)
20101ee2:	80074783          	lbu	a5,-2048(a4)
20101ee6:	0017e793          	ori	a5,a5,1
20101eea:	80f70023          	sb	a5,-2048(a4)
20101eee:	bbafe06f          	j	201002a8 <__riscv_restore_0>

20101ef2 <Dvp_Row_Col_Set>:
20101ef2:	8201c783          	lbu	a5,-2016(gp) # 201318b0 <Formatchange_flag>
20101ef6:	4685                	li	a3,1
20101ef8:	0ff7f713          	zext.b	a4,a5
20101efc:	00d78663          	beq	a5,a3,20101f08 <Dvp_Row_Col_Set+0x16>
20101f00:	4789                	li	a5,2
20101f02:	02f70063          	beq	a4,a5,20101f22 <Dvp_Row_Col_Set+0x30>
20101f06:	8082                	ret
20101f08:	400267b7          	lui	a5,0x40026
20101f0c:	80079223          	sh	zero,-2044(a5) # 40025804 <_eusrstack+0x1fea5804>
20101f10:	20000713          	li	a4,512
20101f14:	80e79323          	sh	a4,-2042(a5)
20101f18:	201467b7          	lui	a5,0x20146
20101f1c:	90e79923          	sh	a4,-1774(a5) # 20145912 <Dvp_DataSize>
20101f20:	8082                	ret
20101f22:	400267b7          	lui	a5,0x40026
20101f26:	80b79223          	sh	a1,-2044(a5) # 40025804 <_eusrstack+0x1fea5804>
20101f2a:	0506                	slli	a0,a0,0x1
20101f2c:	08054533          	zext.h	a0,a0
20101f30:	80a79323          	sh	a0,-2042(a5)
20101f34:	201467b7          	lui	a5,0x20146
20101f38:	90a79923          	sh	a0,-1774(a5) # 20145912 <Dvp_DataSize>
20101f3c:	8082                	ret

20101f3e <SCCB_Init>:
20101f3e:	400117b7          	lui	a5,0x40011
20101f42:	c0078793          	addi	a5,a5,-1024 # 40010c00 <_eusrstack+0x1fe90c00>
20101f46:	43d8                	lw	a4,4(a5)
20101f48:	76fd                	lui	a3,0xfffff
20101f4a:	0ff68693          	addi	a3,a3,255 # fffff0ff <_eusrstack+0xdfe7f0ff>
20101f4e:	8f75                	and	a4,a4,a3
20101f50:	30076713          	ori	a4,a4,768
20101f54:	c3d8                	sw	a4,4(a5)
20101f56:	43d8                	lw	a4,4(a5)
20101f58:	76c5                	lui	a3,0xffff1
20101f5a:	16fd                	addi	a3,a3,-1 # ffff0fff <_eusrstack+0xdfe70fff>
20101f5c:	8f75                	and	a4,a4,a3
20101f5e:	668d                	lui	a3,0x3
20101f60:	8f55                	or	a4,a4,a3
20101f62:	c3d8                	sw	a4,4(a5)
20101f64:	40000713          	li	a4,1024
20101f68:	cb98                	sw	a4,16(a5)
20101f6a:	28b01713          	bseti	a4,zero,0xb
20101f6e:	cb98                	sw	a4,16(a5)
20101f70:	8082                	ret

20101f72 <SCCB_Start>:
20101f72:	b12fe2ef          	jal	t0,20100284 <__riscv_save_0>
20101f76:	40011437          	lui	s0,0x40011
20101f7a:	c0040413          	addi	s0,s0,-1024 # 40010c00 <_eusrstack+0x1fe90c00>
20101f7e:	28b01913          	bseti	s2,zero,0xb
20101f82:	01242823          	sw	s2,16(s0)
20101f86:	40000493          	li	s1,1024
20101f8a:	c804                	sw	s1,16(s0)
20101f8c:	03200513          	li	a0,50
20101f90:	98aff0ef          	jal	ra,2010111a <Delay_Us>
20101f94:	03200513          	li	a0,50
20101f98:	01242a23          	sw	s2,20(s0)
20101f9c:	97eff0ef          	jal	ra,2010111a <Delay_Us>
20101fa0:	c844                	sw	s1,20(s0)
20101fa2:	b06fe06f          	j	201002a8 <__riscv_restore_0>

20101fa6 <SCCB_Stop>:
20101fa6:	adefe2ef          	jal	t0,20100284 <__riscv_save_0>
20101faa:	40011437          	lui	s0,0x40011
20101fae:	c0040413          	addi	s0,s0,-1024 # 40010c00 <_eusrstack+0x1fe90c00>
20101fb2:	28b01493          	bseti	s1,zero,0xb
20101fb6:	c844                	sw	s1,20(s0)
20101fb8:	03200513          	li	a0,50
20101fbc:	95eff0ef          	jal	ra,2010111a <Delay_Us>
20101fc0:	40000793          	li	a5,1024
20101fc4:	c81c                	sw	a5,16(s0)
20101fc6:	03200513          	li	a0,50
20101fca:	950ff0ef          	jal	ra,2010111a <Delay_Us>
20101fce:	03200513          	li	a0,50
20101fd2:	c804                	sw	s1,16(s0)
20101fd4:	946ff0ef          	jal	ra,2010111a <Delay_Us>
20101fd8:	ad0fe06f          	j	201002a8 <__riscv_restore_0>

20101fdc <SCCB_No_Ack>:
20101fdc:	aa8fe2ef          	jal	t0,20100284 <__riscv_save_0>
20101fe0:	40011437          	lui	s0,0x40011
20101fe4:	c0040413          	addi	s0,s0,-1024 # 40010c00 <_eusrstack+0x1fe90c00>
20101fe8:	28b01493          	bseti	s1,zero,0xb
20101fec:	03200513          	li	a0,50
20101ff0:	92aff0ef          	jal	ra,2010111a <Delay_Us>
20101ff4:	40000913          	li	s2,1024
20101ff8:	c804                	sw	s1,16(s0)
20101ffa:	01242823          	sw	s2,16(s0)
20101ffe:	03200513          	li	a0,50
20102002:	918ff0ef          	jal	ra,2010111a <Delay_Us>
20102006:	03200513          	li	a0,50
2010200a:	01242a23          	sw	s2,20(s0)
2010200e:	90cff0ef          	jal	ra,2010111a <Delay_Us>
20102012:	03200513          	li	a0,50
20102016:	c844                	sw	s1,20(s0)
20102018:	902ff0ef          	jal	ra,2010111a <Delay_Us>
2010201c:	a8cfe06f          	j	201002a8 <__riscv_restore_0>

20102020 <SCCB_WR_Byte>:
20102020:	a4afe2ef          	jal	t0,2010026a <__riscv_save_4>
20102024:	84aa                	mv	s1,a0
20102026:	4921                	li	s2,8
20102028:	40011a37          	lui	s4,0x40011
2010202c:	28b01a93          	bseti	s5,zero,0xb
20102030:	40000993          	li	s3,1024
20102034:	c00a0713          	addi	a4,s4,-1024 # 40010c00 <_eusrstack+0x1fe90c00>
20102038:	60449793          	sext.b	a5,s1
2010203c:	0607d763          	bgez	a5,201020aa <SCCB_WR_Byte+0x8a>
20102040:	01572823          	sw	s5,16(a4)
20102044:	03200513          	li	a0,50
20102048:	8d2ff0ef          	jal	ra,2010111a <Delay_Us>
2010204c:	c00a0413          	addi	s0,s4,-1024
20102050:	01342823          	sw	s3,16(s0)
20102054:	03200513          	li	a0,50
20102058:	197d                	addi	s2,s2,-1
2010205a:	0486                	slli	s1,s1,0x1
2010205c:	8beff0ef          	jal	ra,2010111a <Delay_Us>
20102060:	0ff97913          	zext.b	s2,s2
20102064:	01342a23          	sw	s3,20(s0)
20102068:	0ff4f493          	zext.b	s1,s1
2010206c:	fc0914e3          	bnez	s2,20102034 <SCCB_WR_Byte+0x14>
20102070:	405c                	lw	a5,4(s0)
20102072:	74c5                	lui	s1,0xffff1
20102074:	14fd                	addi	s1,s1,-1 # ffff0fff <_eusrstack+0xdfe70fff>
20102076:	8fe5                	and	a5,a5,s1
20102078:	28f79793          	bseti	a5,a5,0xf
2010207c:	03200513          	li	a0,50
20102080:	c05c                	sw	a5,4(s0)
20102082:	898ff0ef          	jal	ra,2010111a <Delay_Us>
20102086:	03200513          	li	a0,50
2010208a:	01342823          	sw	s3,16(s0)
2010208e:	88cff0ef          	jal	ra,2010111a <Delay_Us>
20102092:	4408                	lw	a0,8(s0)
20102094:	01342a23          	sw	s3,20(s0)
20102098:	405c                	lw	a5,4(s0)
2010209a:	670d                	lui	a4,0x3
2010209c:	48b55513          	bexti	a0,a0,0xb
201020a0:	8fe5                	and	a5,a5,s1
201020a2:	8fd9                	or	a5,a5,a4
201020a4:	c05c                	sw	a5,4(s0)
201020a6:	9f8fe06f          	j	2010029e <__riscv_restore_4>
201020aa:	01572a23          	sw	s5,20(a4) # 3014 <__stack_size+0x2814>
201020ae:	bf59                	j	20102044 <SCCB_WR_Byte+0x24>

201020b0 <SCCB_RD_Byte>:
201020b0:	9bafe2ef          	jal	t0,2010026a <__riscv_save_4>
201020b4:	40011737          	lui	a4,0x40011
201020b8:	c0070713          	addi	a4,a4,-1024 # 40010c00 <_eusrstack+0x1fe90c00>
201020bc:	435c                	lw	a5,4(a4)
201020be:	76c5                	lui	a3,0xffff1
201020c0:	16fd                	addi	a3,a3,-1 # ffff0fff <_eusrstack+0xdfe70fff>
201020c2:	8ff5                	and	a5,a5,a3
201020c4:	28f79793          	bseti	a5,a5,0xf
201020c8:	44a1                	li	s1,8
201020ca:	c35c                	sw	a5,4(a4)
201020cc:	4401                	li	s0,0
201020ce:	400119b7          	lui	s3,0x40011
201020d2:	40000913          	li	s2,1024
201020d6:	28b01a13          	bseti	s4,zero,0xb
201020da:	03200513          	li	a0,50
201020de:	83cff0ef          	jal	ra,2010111a <Delay_Us>
201020e2:	c0098793          	addi	a5,s3,-1024 # 40010c00 <_eusrstack+0x1fe90c00>
201020e6:	0127a823          	sw	s2,16(a5)
201020ea:	479c                	lw	a5,8(a5)
201020ec:	0406                	slli	s0,s0,0x1
201020ee:	0ff47413          	zext.b	s0,s0
201020f2:	0147f7b3          	and	a5,a5,s4
201020f6:	c781                	beqz	a5,201020fe <SCCB_RD_Byte+0x4e>
201020f8:	0405                	addi	s0,s0,1
201020fa:	0ff47413          	zext.b	s0,s0
201020fe:	03200513          	li	a0,50
20102102:	818ff0ef          	jal	ra,2010111a <Delay_Us>
20102106:	c0098713          	addi	a4,s3,-1024
2010210a:	14fd                	addi	s1,s1,-1
2010210c:	01272a23          	sw	s2,20(a4)
20102110:	0ff4f493          	zext.b	s1,s1
20102114:	f0f9                	bnez	s1,201020da <SCCB_RD_Byte+0x2a>
20102116:	435c                	lw	a5,4(a4)
20102118:	76c5                	lui	a3,0xffff1
2010211a:	16fd                	addi	a3,a3,-1 # ffff0fff <_eusrstack+0xdfe70fff>
2010211c:	8ff5                	and	a5,a5,a3
2010211e:	668d                	lui	a3,0x3
20102120:	8fd5                	or	a5,a5,a3
20102122:	c35c                	sw	a5,4(a4)
20102124:	8522                	mv	a0,s0
20102126:	978fe06f          	j	2010029e <__riscv_restore_4>

2010212a <SCCB_WR_Reg>:
2010212a:	95afe2ef          	jal	t0,20100284 <__riscv_save_0>
2010212e:	84ae                	mv	s1,a1
20102130:	892a                	mv	s2,a0
20102132:	3581                	jal	20101f72 <SCCB_Start>
20102134:	06000513          	li	a0,96
20102138:	35e5                	jal	20102020 <SCCB_WR_Byte>
2010213a:	842a                	mv	s0,a0
2010213c:	06400513          	li	a0,100
20102140:	fdbfe0ef          	jal	ra,2010111a <Delay_Us>
20102144:	854a                	mv	a0,s2
20102146:	3de9                	jal	20102020 <SCCB_WR_Byte>
20102148:	8c49                	or	s0,s0,a0
2010214a:	06400513          	li	a0,100
2010214e:	fcdfe0ef          	jal	ra,2010111a <Delay_Us>
20102152:	8526                	mv	a0,s1
20102154:	35f1                	jal	20102020 <SCCB_WR_Byte>
20102156:	c511                	beqz	a0,20102162 <SCCB_WR_Reg+0x38>
20102158:	4405                	li	s0,1
2010215a:	35b1                	jal	20101fa6 <SCCB_Stop>
2010215c:	8522                	mv	a0,s0
2010215e:	94afe06f          	j	201002a8 <__riscv_restore_0>
20102162:	0ff47413          	zext.b	s0,s0
20102166:	00803433          	snez	s0,s0
2010216a:	bfc5                	j	2010215a <SCCB_WR_Reg+0x30>

2010216c <SCCB_RD_Reg>:
2010216c:	918fe2ef          	jal	t0,20100284 <__riscv_save_0>
20102170:	1141                	addi	sp,sp,-16
20102172:	842a                	mv	s0,a0
20102174:	3bfd                	jal	20101f72 <SCCB_Start>
20102176:	06000513          	li	a0,96
2010217a:	355d                	jal	20102020 <SCCB_WR_Byte>
2010217c:	06400513          	li	a0,100
20102180:	f9bfe0ef          	jal	ra,2010111a <Delay_Us>
20102184:	8522                	mv	a0,s0
20102186:	3d69                	jal	20102020 <SCCB_WR_Byte>
20102188:	06400513          	li	a0,100
2010218c:	f8ffe0ef          	jal	ra,2010111a <Delay_Us>
20102190:	3d19                	jal	20101fa6 <SCCB_Stop>
20102192:	06400513          	li	a0,100
20102196:	f85fe0ef          	jal	ra,2010111a <Delay_Us>
2010219a:	3be1                	jal	20101f72 <SCCB_Start>
2010219c:	06100513          	li	a0,97
201021a0:	3541                	jal	20102020 <SCCB_WR_Byte>
201021a2:	06400513          	li	a0,100
201021a6:	f75fe0ef          	jal	ra,2010111a <Delay_Us>
201021aa:	3719                	jal	201020b0 <SCCB_RD_Byte>
201021ac:	c62a                	sw	a0,12(sp)
201021ae:	353d                	jal	20101fdc <SCCB_No_Ack>
201021b0:	3bdd                	jal	20101fa6 <SCCB_Stop>
201021b2:	4532                	lw	a0,12(sp)
201021b4:	0141                	addi	sp,sp,16
201021b6:	8f2fe06f          	j	201002a8 <__riscv_restore_0>

201021ba <DVP_GPIO_Init>:
201021ba:	8cafe2ef          	jal	t0,20100284 <__riscv_save_0>
201021be:	1141                	addi	sp,sp,-16
201021c0:	4585                	li	a1,1
201021c2:	03800513          	li	a0,56
201021c6:	d3ffe0ef          	jal	ra,20100f04 <RCC_HB2PeriphClockCmd>
201021ca:	40011437          	lui	s0,0x40011
201021ce:	478d                	li	a5,3
201021d0:	c23e                	sw	a5,4(sp)
201021d2:	c43e                	sw	a5,8(sp)
201021d4:	004c                	addi	a1,sp,4
201021d6:	47c1                	li	a5,16
201021d8:	40040513          	addi	a0,s0,1024 # 40011400 <_eusrstack+0x1fe91400>
201021dc:	c63e                	sw	a5,12(sp)
201021de:	6905                	lui	s2,0x1
201021e0:	dbafe0ef          	jal	ra,2010079a <GPIO_Init>
201021e4:	04800493          	li	s1,72
201021e8:	c0090793          	addi	a5,s2,-1024 # c00 <__stack_size+0x400>
201021ec:	004c                	addi	a1,sp,4
201021ee:	c0040513          	addi	a0,s0,-1024
201021f2:	827c                	sh	a5,4(sp)
201021f4:	c626                	sw	s1,12(sp)
201021f6:	da4fe0ef          	jal	ra,2010079a <GPIO_Init>
201021fa:	463d                	li	a2,15
201021fc:	c0040513          	addi	a0,s0,-1024
20102200:	45b9                	li	a1,14
20102202:	e78fe0ef          	jal	ra,2010087a <GPIO_PinAFConfig>
20102206:	6791                	lui	a5,0x4
20102208:	004c                	addi	a1,sp,4
2010220a:	c0040513          	addi	a0,s0,-1024
2010220e:	827c                	sh	a5,4(sp)
20102210:	c626                	sw	s1,12(sp)
20102212:	d88fe0ef          	jal	ra,2010079a <GPIO_Init>
20102216:	c0040513          	addi	a0,s0,-1024
2010221a:	463d                	li	a2,15
2010221c:	45b1                	li	a1,12
2010221e:	e5cfe0ef          	jal	ra,2010087a <GPIO_PinAFConfig>
20102222:	4621                	li	a2,8
20102224:	c0040513          	addi	a0,s0,-1024
20102228:	45b5                	li	a1,13
2010222a:	e50fe0ef          	jal	ra,2010087a <GPIO_PinAFConfig>
2010222e:	6789                	lui	a5,0x2
20102230:	004c                	addi	a1,sp,4
20102232:	c0040513          	addi	a0,s0,-1024
20102236:	827c                	sh	a5,4(sp)
20102238:	c626                	sw	s1,12(sp)
2010223a:	d60fe0ef          	jal	ra,2010079a <GPIO_Init>
2010223e:	4635                	li	a2,13
20102240:	4599                	li	a1,6
20102242:	40011537          	lui	a0,0x40011
20102246:	e34fe0ef          	jal	ra,2010087a <GPIO_PinAFConfig>
2010224a:	4635                	li	a2,13
2010224c:	459d                	li	a1,7
2010224e:	40011537          	lui	a0,0x40011
20102252:	e28fe0ef          	jal	ra,2010087a <GPIO_PinAFConfig>
20102256:	4635                	li	a2,13
20102258:	45a1                	li	a1,8
2010225a:	40011537          	lui	a0,0x40011
2010225e:	e1cfe0ef          	jal	ra,2010087a <GPIO_PinAFConfig>
20102262:	4635                	li	a2,13
20102264:	45a5                	li	a1,9
20102266:	40011537          	lui	a0,0x40011
2010226a:	e10fe0ef          	jal	ra,2010087a <GPIO_PinAFConfig>
2010226e:	4635                	li	a2,13
20102270:	45a9                	li	a1,10
20102272:	40011537          	lui	a0,0x40011
20102276:	e04fe0ef          	jal	ra,2010087a <GPIO_PinAFConfig>
2010227a:	4635                	li	a2,13
2010227c:	45b1                	li	a1,12
2010227e:	40011537          	lui	a0,0x40011
20102282:	df8fe0ef          	jal	ra,2010087a <GPIO_PinAFConfig>
20102286:	004c                	addi	a1,sp,4
20102288:	7c090913          	addi	s2,s2,1984
2010228c:	40011537          	lui	a0,0x40011
20102290:	01211223          	sh	s2,4(sp)
20102294:	c626                	sw	s1,12(sp)
20102296:	d04fe0ef          	jal	ra,2010079a <GPIO_Init>
2010229a:	40040513          	addi	a0,s0,1024
2010229e:	4635                	li	a2,13
201022a0:	45b1                	li	a1,12
201022a2:	dd8fe0ef          	jal	ra,2010087a <GPIO_PinAFConfig>
201022a6:	40040513          	addi	a0,s0,1024
201022aa:	4635                	li	a2,13
201022ac:	45b5                	li	a1,13
201022ae:	dccfe0ef          	jal	ra,2010087a <GPIO_PinAFConfig>
201022b2:	40040513          	addi	a0,s0,1024
201022b6:	4635                	li	a2,13
201022b8:	45b9                	li	a1,14
201022ba:	dc0fe0ef          	jal	ra,2010087a <GPIO_PinAFConfig>
201022be:	40040513          	addi	a0,s0,1024
201022c2:	4635                	li	a2,13
201022c4:	45bd                	li	a1,15
201022c6:	db4fe0ef          	jal	ra,2010087a <GPIO_PinAFConfig>
201022ca:	40040513          	addi	a0,s0,1024
201022ce:	4635                	li	a2,13
201022d0:	4599                	li	a1,6
201022d2:	da8fe0ef          	jal	ra,2010087a <GPIO_PinAFConfig>
201022d6:	4635                	li	a2,13
201022d8:	40040513          	addi	a0,s0,1024
201022dc:	4589                	li	a1,2
201022de:	d9cfe0ef          	jal	ra,2010087a <GPIO_PinAFConfig>
201022e2:	77fd                	lui	a5,0xfffff
201022e4:	04478793          	addi	a5,a5,68 # fffff044 <_eusrstack+0xdfe7f044>
201022e8:	004c                	addi	a1,sp,4
201022ea:	40040513          	addi	a0,s0,1024
201022ee:	827c                	sh	a5,4(sp)
201022f0:	c626                	sw	s1,12(sp)
201022f2:	ca8fe0ef          	jal	ra,2010079a <GPIO_Init>
201022f6:	0141                	addi	sp,sp,16
201022f8:	fb1fd06f          	j	201002a8 <__riscv_restore_0>

201022fc <OV2640_Init>:
201022fc:	f89fd2ef          	jal	t0,20100284 <__riscv_save_0>
20102300:	3d6d                	jal	201021ba <DVP_GPIO_Init>
20102302:	40011437          	lui	s0,0x40011
20102306:	4785                	li	a5,1
20102308:	40040413          	addi	s0,s0,1024 # 40011400 <_eusrstack+0x1fe91400>
2010230c:	c85c                	sw	a5,20(s0)
2010230e:	4529                	li	a0,10
20102310:	e41fe0ef          	jal	ra,20101150 <Delay_Ms>
20102314:	4489                	li	s1,2
20102316:	4529                	li	a0,10
20102318:	c844                	sw	s1,20(s0)
2010231a:	e37fe0ef          	jal	ra,20101150 <Delay_Ms>
2010231e:	c804                	sw	s1,16(s0)
20102320:	3939                	jal	20101f3e <SCCB_Init>
20102322:	4585                	li	a1,1
20102324:	0ff00513          	li	a0,255
20102328:	3509                	jal	2010212a <SCCB_WR_Reg>
2010232a:	08000593          	li	a1,128
2010232e:	4549                	li	a0,18
20102330:	3bed                	jal	2010212a <SCCB_WR_Reg>
20102332:	03200513          	li	a0,50
20102336:	e1bfe0ef          	jal	ra,20101150 <Delay_Ms>
2010233a:	4571                	li	a0,28
2010233c:	3d05                	jal	2010216c <SCCB_RD_Reg>
2010233e:	00851413          	slli	s0,a0,0x8
20102342:	4575                	li	a0,29
20102344:	3525                	jal	2010216c <SCCB_RD_Reg>
20102346:	67a1                	lui	a5,0x8
20102348:	08044433          	zext.h	s0,s0
2010234c:	fa278793          	addi	a5,a5,-94 # 7fa2 <_data_lma+0x1b6a>
20102350:	008565b3          	or	a1,a0,s0
20102354:	0805c5b3          	zext.h	a1,a1
20102358:	00f58b63          	beq	a1,a5,2010236e <OV2640_Init+0x72>
2010235c:	20106537          	lui	a0,0x20106
20102360:	85050513          	addi	a0,a0,-1968 # 20105850 <ov2640_JPEGframe_resolution_USB30+0x84>
20102364:	72d010ef          	jal	ra,20104290 <iprintf>
20102368:	4505                	li	a0,1
2010236a:	f3ffd06f          	j	201002a8 <__riscv_restore_0>
2010236e:	4529                	li	a0,10
20102370:	3bf5                	jal	2010216c <SCCB_RD_Reg>
20102372:	00851413          	slli	s0,a0,0x8
20102376:	452d                	li	a0,11
20102378:	3bd5                	jal	2010216c <SCCB_RD_Reg>
2010237a:	6789                	lui	a5,0x2
2010237c:	08044433          	zext.h	s0,s0
20102380:	64278793          	addi	a5,a5,1602 # 2642 <__stack_size+0x1e42>
20102384:	008565b3          	or	a1,a0,s0
20102388:	0805c5b3          	zext.h	a1,a1
2010238c:	00f59463          	bne	a1,a5,20102394 <OV2640_Init+0x98>
20102390:	4501                	li	a0,0
20102392:	bfe1                	j	2010236a <OV2640_Init+0x6e>
20102394:	20106537          	lui	a0,0x20106
20102398:	85c50513          	addi	a0,a0,-1956 # 2010585c <ov2640_JPEGframe_resolution_USB30+0x90>
2010239c:	6f5010ef          	jal	ra,20104290 <iprintf>
201023a0:	bfc5                	j	20102390 <OV2640_Init+0x94>

201023a2 <OV2640_Format_Mode>:
201023a2:	ee3fd2ef          	jal	t0,20100284 <__riscv_save_0>
201023a6:	4585                	li	a1,1
201023a8:	842a                	mv	s0,a0
201023aa:	0ff00513          	li	a0,255
201023ae:	3bb5                	jal	2010212a <SCCB_WR_Reg>
201023b0:	08000593          	li	a1,128
201023b4:	4549                	li	a0,18
201023b6:	3b95                	jal	2010212a <SCCB_WR_Reg>
201023b8:	4515                	li	a0,5
201023ba:	d97fe0ef          	jal	ra,20101150 <Delay_Ms>
201023be:	4785                	li	a5,1
201023c0:	00f40763          	beq	s0,a5,201023ce <OV2640_Format_Mode+0x2c>
201023c4:	4789                	li	a5,2
201023c6:	02f40d63          	beq	s0,a5,20102400 <OV2640_Format_Mode+0x5e>
201023ca:	edffd06f          	j	201002a8 <__riscv_restore_0>
201023ce:	20106437          	lui	s0,0x20106
201023d2:	87840413          	addi	s0,s0,-1928 # 20105878 <ov2640_uxga_init_reg_tbl>
201023d6:	16440493          	addi	s1,s0,356
201023da:	300c                	lbu	a1,1(s0)
201023dc:	2008                	lbu	a0,0(s0)
201023de:	0409                	addi	s0,s0,2
201023e0:	33a9                	jal	2010212a <SCCB_WR_Reg>
201023e2:	fe941ce3          	bne	s0,s1,201023da <OV2640_Format_Mode+0x38>
201023e6:	20106437          	lui	s0,0x20106
201023ea:	86840413          	addi	s0,s0,-1944 # 20105868 <ov2640_jpeg_reg_tbl>
201023ee:	01040493          	addi	s1,s0,16
201023f2:	300c                	lbu	a1,1(s0)
201023f4:	2008                	lbu	a0,0(s0)
201023f6:	0409                	addi	s0,s0,2
201023f8:	3b0d                	jal	2010212a <SCCB_WR_Reg>
201023fa:	fe941ce3          	bne	s0,s1,201023f2 <OV2640_Format_Mode+0x50>
201023fe:	b7f1                	j	201023ca <OV2640_Format_Mode+0x28>
20102400:	20106437          	lui	s0,0x20106
20102404:	9dc40413          	addi	s0,s0,-1572 # 201059dc <yuv_uxga>
20102408:	14840493          	addi	s1,s0,328
2010240c:	300c                	lbu	a1,1(s0)
2010240e:	2008                	lbu	a0,0(s0)
20102410:	0409                	addi	s0,s0,2
20102412:	3b21                	jal	2010212a <SCCB_WR_Reg>
20102414:	fe941ce3          	bne	s0,s1,2010240c <OV2640_Format_Mode+0x6a>
20102418:	bf4d                	j	201023ca <OV2640_Format_Mode+0x28>

2010241a <OV2640_OutSize_Set>:
2010241a:	00357793          	andi	a5,a0,3
2010241e:	efb9                	bnez	a5,2010247c <OV2640_OutSize_Set+0x62>
20102420:	e65fd2ef          	jal	t0,20100284 <__riscv_save_0>
20102424:	0035f793          	andi	a5,a1,3
20102428:	84aa                	mv	s1,a0
2010242a:	842e                	mv	s0,a1
2010242c:	4509                	li	a0,2
2010242e:	e7a9                	bnez	a5,20102478 <OV2640_OutSize_Set+0x5e>
20102430:	4581                	li	a1,0
20102432:	0ff00513          	li	a0,255
20102436:	39d5                	jal	2010212a <SCCB_WR_Reg>
20102438:	4591                	li	a1,4
2010243a:	0e000513          	li	a0,224
2010243e:	31f5                	jal	2010212a <SCCB_WR_Reg>
20102440:	0024d593          	srli	a1,s1,0x2
20102444:	0ff5f593          	zext.b	a1,a1
20102448:	05a00513          	li	a0,90
2010244c:	39f9                	jal	2010212a <SCCB_WR_Reg>
2010244e:	00245593          	srli	a1,s0,0x2
20102452:	0ff5f593          	zext.b	a1,a1
20102456:	05b00513          	li	a0,91
2010245a:	39c1                	jal	2010212a <SCCB_WR_Reg>
2010245c:	00a4d593          	srli	a1,s1,0xa
20102460:	8021                	srli	s0,s0,0x8
20102462:	898d                	andi	a1,a1,3
20102464:	8811                	andi	s0,s0,4
20102466:	8dc1                	or	a1,a1,s0
20102468:	05c00513          	li	a0,92
2010246c:	397d                	jal	2010212a <SCCB_WR_Reg>
2010246e:	4581                	li	a1,0
20102470:	0e000513          	li	a0,224
20102474:	395d                	jal	2010212a <SCCB_WR_Reg>
20102476:	4501                	li	a0,0
20102478:	e31fd06f          	j	201002a8 <__riscv_restore_0>
2010247c:	4505                	li	a0,1
2010247e:	8082                	ret

20102480 <ov2640_speed_ctrl>:
20102480:	e05fd2ef          	jal	t0,20100284 <__riscv_save_0>
20102484:	842e                	mv	s0,a1
20102486:	84aa                	mv	s1,a0
20102488:	4581                	li	a1,0
2010248a:	0ff00513          	li	a0,255
2010248e:	3971                	jal	2010212a <SCCB_WR_Reg>
20102490:	85a6                	mv	a1,s1
20102492:	0d300513          	li	a0,211
20102496:	3951                	jal	2010212a <SCCB_WR_Reg>
20102498:	4585                	li	a1,1
2010249a:	0ff00513          	li	a0,255
2010249e:	3171                	jal	2010212a <SCCB_WR_Reg>
201024a0:	85a2                	mv	a1,s0
201024a2:	4545                	li	a0,17
201024a4:	3159                	jal	2010212a <SCCB_WR_Reg>
201024a6:	e03fd06f          	j	201002a8 <__riscv_restore_0>

201024aa <OV2640_Speed_Mode>:
201024aa:	ddbfd2ef          	jal	t0,20100284 <__riscv_save_0>
201024ae:	4785                	li	a5,1
201024b0:	00f50763          	beq	a0,a5,201024be <OV2640_Speed_Mode+0x14>
201024b4:	4789                	li	a5,2
201024b6:	00f50963          	beq	a0,a5,201024c8 <OV2640_Speed_Mode+0x1e>
201024ba:	deffd06f          	j	201002a8 <__riscv_restore_0>
201024be:	4581                	li	a1,0
201024c0:	02400513          	li	a0,36
201024c4:	3f75                	jal	20102480 <ov2640_speed_ctrl>
201024c6:	bfd5                	j	201024ba <OV2640_Speed_Mode+0x10>
201024c8:	4581                	li	a1,0
201024ca:	4505                	li	a0,1
201024cc:	bfe5                	j	201024c4 <OV2640_Speed_Mode+0x1a>

201024ce <OV2640_Change_Resolution>:
201024ce:	db7fd2ef          	jal	t0,20100284 <__riscv_save_0>
201024d2:	4785                	li	a5,1
201024d4:	201464b7          	lui	s1,0x20146
201024d8:	20146437          	lui	s0,0x20146
201024dc:	02f50563          	beq	a0,a5,20102506 <OV2640_Change_Resolution+0x38>
201024e0:	4789                	li	a5,2
201024e2:	06f50c63          	beq	a0,a5,2010255a <OV2640_Change_Resolution+0x8c>
201024e6:	8fc4d503          	lhu	a0,-1796(s1) # 201458fc <Resolution_width>
201024ea:	8fa45583          	lhu	a1,-1798(s0) # 201458fa <Resolution_height>
201024ee:	a05ff0ef          	jal	ra,20101ef2 <Dvp_Row_Col_Set>
201024f2:	8fc4d503          	lhu	a0,-1796(s1)
201024f6:	8fa45583          	lhu	a1,-1798(s0)
201024fa:	3705                	jal	2010241a <OV2640_OutSize_Set>
201024fc:	8201c503          	lbu	a0,-2016(gp) # 201318b0 <Formatchange_flag>
20102500:	376d                	jal	201024aa <OV2640_Speed_Mode>
20102502:	da7fd06f          	j	201002a8 <__riscv_restore_0>
20102506:	201467b7          	lui	a5,0x20146
2010250a:	9507c683          	lbu	a3,-1712(a5) # 20145950 <USB_Enum_Status>
2010250e:	4711                	li	a4,4
20102510:	02e69563          	bne	a3,a4,2010253a <OV2640_Change_Resolution+0x6c>
20102514:	20146737          	lui	a4,0x20146
20102518:	95374703          	lbu	a4,-1709(a4) # 20145953 <USBSS_DevEnumStatus>
2010251c:	cf19                	beqz	a4,2010253a <OV2640_Change_Resolution+0x6c>
2010251e:	201057b7          	lui	a5,0x20105
20102522:	15fd                	addi	a1,a1,-1
20102524:	7cc78793          	addi	a5,a5,1996 # 201057cc <ov2640_JPEGframe_resolution_USB30>
20102528:	20f5c5b3          	sh2add	a1,a1,a5
2010252c:	219e                	lhu	a5,0(a1)
2010252e:	8ef49e23          	sh	a5,-1796(s1)
20102532:	21be                	lhu	a5,2(a1)
20102534:	8ef41d23          	sh	a5,-1798(s0)
20102538:	b77d                	j	201024e6 <OV2640_Change_Resolution+0x18>
2010253a:	9507c703          	lbu	a4,-1712(a5)
2010253e:	4791                	li	a5,4
20102540:	faf713e3          	bne	a4,a5,201024e6 <OV2640_Change_Resolution+0x18>
20102544:	201467b7          	lui	a5,0x20146
20102548:	9327c783          	lbu	a5,-1742(a5) # 20145932 <USBHS_DevEnumStatus>
2010254c:	dfc9                	beqz	a5,201024e6 <OV2640_Change_Resolution+0x18>
2010254e:	201057b7          	lui	a5,0x20105
20102552:	15fd                	addi	a1,a1,-1
20102554:	7b878793          	addi	a5,a5,1976 # 201057b8 <ov2640_JPEGframe_resolution_USB20>
20102558:	bfc1                	j	20102528 <OV2640_Change_Resolution+0x5a>
2010255a:	201467b7          	lui	a5,0x20146
2010255e:	9507c683          	lbu	a3,-1712(a5) # 20145950 <USB_Enum_Status>
20102562:	4711                	li	a4,4
20102564:	00e69d63          	bne	a3,a4,2010257e <OV2640_Change_Resolution+0xb0>
20102568:	20146737          	lui	a4,0x20146
2010256c:	95374703          	lbu	a4,-1709(a4) # 20145953 <USBSS_DevEnumStatus>
20102570:	c719                	beqz	a4,2010257e <OV2640_Change_Resolution+0xb0>
20102572:	201057b7          	lui	a5,0x20105
20102576:	15fd                	addi	a1,a1,-1
20102578:	7a478793          	addi	a5,a5,1956 # 201057a4 <ov2640_YUVframe_resolution_USB30>
2010257c:	b775                	j	20102528 <OV2640_Change_Resolution+0x5a>
2010257e:	9507c703          	lbu	a4,-1712(a5)
20102582:	4791                	li	a5,4
20102584:	f6f711e3          	bne	a4,a5,201024e6 <OV2640_Change_Resolution+0x18>
20102588:	201467b7          	lui	a5,0x20146
2010258c:	9327c783          	lbu	a5,-1742(a5) # 20145932 <USBHS_DevEnumStatus>
20102590:	dbb9                	beqz	a5,201024e6 <OV2640_Change_Resolution+0x18>
20102592:	201057b7          	lui	a5,0x20105
20102596:	15fd                	addi	a1,a1,-1
20102598:	79078793          	addi	a5,a5,1936 # 20105790 <ov2640_YUVframe_resolution_USB20>
2010259c:	b771                	j	20102528 <OV2640_Change_Resolution+0x5a>

2010259e <USBHS_RCC_Init.part.0>:
2010259e:	ce7fd2ef          	jal	t0,20100284 <__riscv_save_0>
201025a2:	400217b7          	lui	a5,0x40021
201025a6:	479c                	lw	a5,8(a5)
201025a8:	70000737          	lui	a4,0x70000
201025ac:	8ff9                	and	a5,a5,a4
201025ae:	40000737          	lui	a4,0x40000
201025b2:	02e78863          	beq	a5,a4,201025e2 <USBHS_RCC_Init.part.0+0x44>
201025b6:	4501                	li	a0,0
201025b8:	985fe0ef          	jal	ra,20100f3c <RCC_USBHS_PLLCmd>
201025bc:	4501                	li	a0,0
201025be:	9d7fe0ef          	jal	ra,20100f94 <RCC_USBHSPLLCLKConfig>
201025c2:	4501                	li	a0,0
201025c4:	9e3fe0ef          	jal	ra,20100fa6 <RCC_USBHSPLLReferConfig>
201025c8:	4501                	li	a0,0
201025ca:	9effe0ef          	jal	ra,20100fb8 <RCC_USBHSPLLClockSourceDivConfig>
201025ce:	4505                	li	a0,1
201025d0:	96dfe0ef          	jal	ra,20100f3c <RCC_USBHS_PLLCmd>
201025d4:	400216b7          	lui	a3,0x40021
201025d8:	00200737          	lui	a4,0x200
201025dc:	429c                	lw	a5,0(a3)
201025de:	8ff9                	and	a5,a5,a4
201025e0:	dff5                	beqz	a5,201025dc <USBHS_RCC_Init.part.0+0x3e>
201025e2:	4505                	li	a0,1
201025e4:	99bfe0ef          	jal	ra,20100f7e <RCC_UTMIcmd>
201025e8:	4585                	li	a1,1
201025ea:	28b01513          	bseti	a0,zero,0xb
201025ee:	8fbfe0ef          	jal	ra,20100ee8 <RCC_HBPeriphClockCmd>
201025f2:	cb7fd06f          	j	201002a8 <__riscv_restore_0>

201025f6 <USB_TestMode_Deal>:
201025f6:	20146737          	lui	a4,0x20146
201025fa:	94874783          	lbu	a5,-1720(a4) # 20145948 <USBHS_Test_Flag>
201025fe:	07f7f793          	andi	a5,a5,127
20102602:	94f70423          	sb	a5,-1720(a4)
20102606:	201467b7          	lui	a5,0x20146
2010260a:	93c7d683          	lhu	a3,-1732(a5) # 2014593c <USBHS_SetupReqIndex>
2010260e:	10000713          	li	a4,256
20102612:	02e69363          	bne	a3,a4,20102638 <USB_TestMode_Deal+0x42>
20102616:	400307b7          	lui	a5,0x40030
2010261a:	33d8                	lbu	a4,5(a5)
2010261c:	0f077713          	andi	a4,a4,240
20102620:	b3d8                	sb	a4,5(a5)
20102622:	33d8                	lbu	a4,5(a5)
20102624:	00176713          	ori	a4,a4,1
20102628:	b3d8                	sb	a4,5(a5)
2010262a:	40030737          	lui	a4,0x40030
2010262e:	335c                	lbu	a5,5(a4)
20102630:	0807e793          	ori	a5,a5,128
20102634:	b35c                	sb	a5,5(a4)
20102636:	8082                	ret
20102638:	93c7d683          	lhu	a3,-1732(a5) # 4002f93c <_eusrstack+0x1feaf93c>
2010263c:	20000713          	li	a4,512
20102640:	00e69c63          	bne	a3,a4,20102658 <USB_TestMode_Deal+0x62>
20102644:	400307b7          	lui	a5,0x40030
20102648:	33d8                	lbu	a4,5(a5)
2010264a:	0f077713          	andi	a4,a4,240
2010264e:	b3d8                	sb	a4,5(a5)
20102650:	33d8                	lbu	a4,5(a5)
20102652:	00276713          	ori	a4,a4,2
20102656:	bfc9                	j	20102628 <USB_TestMode_Deal+0x32>
20102658:	93c7d683          	lhu	a3,-1732(a5) # 4002f93c <_eusrstack+0x1feaf93c>
2010265c:	30000713          	li	a4,768
20102660:	00e69c63          	bne	a3,a4,20102678 <USB_TestMode_Deal+0x82>
20102664:	400307b7          	lui	a5,0x40030
20102668:	33d8                	lbu	a4,5(a5)
2010266a:	0f077713          	andi	a4,a4,240
2010266e:	b3d8                	sb	a4,5(a5)
20102670:	33d8                	lbu	a4,5(a5)
20102672:	00876713          	ori	a4,a4,8
20102676:	bf4d                	j	20102628 <USB_TestMode_Deal+0x32>
20102678:	93c7d703          	lhu	a4,-1732(a5) # 4002f93c <_eusrstack+0x1feaf93c>
2010267c:	40000793          	li	a5,1024
20102680:	faf715e3          	bne	a4,a5,2010262a <USB_TestMode_Deal+0x34>
20102684:	400307b7          	lui	a5,0x40030
20102688:	33d8                	lbu	a4,5(a5)
2010268a:	0f077713          	andi	a4,a4,240
2010268e:	b3d8                	sb	a4,5(a5)
20102690:	20131737          	lui	a4,0x20131
20102694:	5cc70713          	addi	a4,a4,1484 # 201315cc <IFTest_Buf>
20102698:	c7f8                	sw	a4,76(a5)
2010269a:	03500713          	li	a4,53
2010269e:	0ae79623          	sh	a4,172(a5) # 400300ac <_eusrstack+0x1feb00ac>
201026a2:	4709                	li	a4,2
201026a4:	0ae78723          	sb	a4,174(a5)
201026a8:	33d8                	lbu	a4,5(a5)
201026aa:	00476713          	ori	a4,a4,4
201026ae:	bfad                	j	20102628 <USB_TestMode_Deal+0x32>

201026b0 <USBHS_Device_Endp_Init>:
201026b0:	400307b7          	lui	a5,0x40030
201026b4:	474d                	li	a4,19
201026b6:	ab9a                	sh	a4,16(a5)
201026b8:	470d                	li	a4,3
201026ba:	abba                	sh	a4,18(a5)
201026bc:	04000713          	li	a4,64
201026c0:	cff8                	sw	a4,92(a5)
201026c2:	20000713          	li	a4,512
201026c6:	d3b8                	sw	a4,96(a5)
201026c8:	20148737          	lui	a4,0x20148
201026cc:	b9070713          	addi	a4,a4,-1136 # 20147b90 <USBHS_EP0_Buf>
201026d0:	d398                	sw	a4,32(a5)
201026d2:	20146737          	lui	a4,0x20146
201026d6:	99070713          	addi	a4,a4,-1648 # 20145990 <Data_Buffer>
201026da:	d3d8                	sw	a4,36(a5)
201026dc:	c3b8                	sw	a4,64(a5)
201026de:	0bc7d703          	lhu	a4,188(a5) # 400300bc <_eusrstack+0x1feb00bc>
201026e2:	00276713          	ori	a4,a4,2
201026e6:	0ae79e23          	sh	a4,188(a5)
201026ea:	08079e23          	sh	zero,156(a5)
201026ee:	08078f23          	sb	zero,158(a5)
201026f2:	4709                	li	a4,2
201026f4:	08e78fa3          	sb	a4,159(a5)
201026f8:	0ae781a3          	sb	a4,163(a5)
201026fc:	0a079023          	sh	zero,160(a5)
20102700:	0a078123          	sb	zero,162(a5)
20102704:	8082                	ret

20102706 <USBHS_RCC_Init>:
20102706:	b7ffd2ef          	jal	t0,20100284 <__riscv_save_0>
2010270a:	c501                	beqz	a0,20102712 <USBHS_RCC_Init+0xc>
2010270c:	3d49                	jal	2010259e <USBHS_RCC_Init.part.0>
2010270e:	b9bfd06f          	j	201002a8 <__riscv_restore_0>
20102712:	4581                	li	a1,0
20102714:	28b01513          	bseti	a0,zero,0xb
20102718:	fd0fe0ef          	jal	ra,20100ee8 <RCC_HBPeriphClockCmd>
2010271c:	4501                	li	a0,0
2010271e:	861fe0ef          	jal	ra,20100f7e <RCC_UTMIcmd>
20102722:	400217b7          	lui	a5,0x40021
20102726:	479c                	lw	a5,8(a5)
20102728:	70000737          	lui	a4,0x70000
2010272c:	8ff9                	and	a5,a5,a4
2010272e:	40000737          	lui	a4,0x40000
20102732:	fce78ee3          	beq	a5,a4,2010270e <USBHS_RCC_Init+0x8>
20102736:	4501                	li	a0,0
20102738:	805fe0ef          	jal	ra,20100f3c <RCC_USBHS_PLLCmd>
2010273c:	bfc9                	j	2010270e <USBHS_RCC_Init+0x8>

2010273e <USBHS_Device_Init>:
2010273e:	b47fd2ef          	jal	t0,20100284 <__riscv_save_0>
20102742:	c51d                	beqz	a0,20102770 <USBHS_Device_Init+0x32>
20102744:	3da9                	jal	2010259e <USBHS_RCC_Init.part.0>
20102746:	40030437          	lui	s0,0x40030
2010274a:	47a5                	li	a5,9
2010274c:	a01c                	sb	a5,0(s0)
2010274e:	05f00793          	li	a5,95
20102752:	a03c                	sb	a5,2(s0)
20102754:	3fb1                	jal	201026b0 <USBHS_Device_Endp_Init>
20102756:	4785                	li	a5,1
20102758:	b01c                	sb	a5,1(s0)
2010275a:	fb800793          	li	a5,-72
2010275e:	a01c                	sb	a5,0(s0)
20102760:	01000737          	lui	a4,0x1000
20102764:	e000e7b7          	lui	a5,0xe000e
20102768:	10e7a223          	sw	a4,260(a5) # e000e104 <_eusrstack+0xbfe8e104>
2010276c:	b3dfd06f          	j	201002a8 <__riscv_restore_0>
20102770:	400307b7          	lui	a5,0x40030
20102774:	470d                	li	a4,3
20102776:	a398                	sb	a4,0(a5)
20102778:	e000e7b7          	lui	a5,0xe000e
2010277c:	01000737          	lui	a4,0x1000
20102780:	18e7a223          	sw	a4,388(a5) # e000e184 <_eusrstack+0xbfe8e184>
20102784:	0000100f          	fence.i
20102788:	3fbd                	jal	20102706 <USBHS_RCC_Init>
2010278a:	b7cd                	j	2010276c <USBHS_Device_Init+0x2e>

2010278c <USBHS_IRQHandler>:
2010278c:	1101                	addi	sp,sp,-32
2010278e:	cc26                	sw	s1,24(sp)
20102790:	ce22                	sw	s0,28(sp)
20102792:	ca4a                	sw	s2,20(sp)
20102794:	c84e                	sw	s3,16(sp)
20102796:	c652                	sw	s4,12(sp)
20102798:	c456                	sw	s5,8(sp)
2010279a:	c25a                	sw	s6,4(sp)
2010279c:	400304b7          	lui	s1,0x40030
201027a0:	2494                	lbu	a3,8(s1)
201027a2:	349c                	lbu	a5,9(s1)
201027a4:	0ff6f713          	zext.b	a4,a3
201027a8:	8ac1                	andi	a3,a3,16
201027aa:	040681e3          	beqz	a3,20102fec <USBHS_IRQHandler+0x860>
201027ae:	0ff7f793          	zext.b	a5,a5
201027b2:	0077f713          	andi	a4,a5,7
201027b6:	8bc1                	andi	a5,a5,16
201027b8:	72079563          	bnez	a5,20102ee2 <USBHS_IRQHandler+0x756>
201027bc:	cf11                	beqz	a4,201027d8 <USBHS_IRQHandler+0x4c>
201027be:	4785                	li	a5,1
201027c0:	70f70a63          	beq	a4,a5,20102ed4 <USBHS_IRQHandler+0x748>
201027c4:	4472                	lw	s0,28(sp)
201027c6:	44e2                	lw	s1,24(sp)
201027c8:	4952                	lw	s2,20(sp)
201027ca:	49c2                	lw	s3,16(sp)
201027cc:	4a32                	lw	s4,12(sp)
201027ce:	4aa2                	lw	s5,8(sp)
201027d0:	4b12                	lw	s6,4(sp)
201027d2:	6105                	addi	sp,sp,32
201027d4:	30200073          	mret
201027d8:	09f4c783          	lbu	a5,159(s1) # 4003009f <_eusrstack+0x1feb009f>
201027dc:	20146937          	lui	s2,0x20146
201027e0:	20146437          	lui	s0,0x20146
201027e4:	07f7f793          	andi	a5,a5,127
201027e8:	08f48fa3          	sb	a5,159(s1)
201027ec:	09f4c783          	lbu	a5,159(s1)
201027f0:	8ba1                	andi	a5,a5,8
201027f2:	66078063          	beqz	a5,20102e52 <USBHS_IRQHandler+0x6c6>
201027f6:	20148ab7          	lui	s5,0x20148
201027fa:	b90a8713          	addi	a4,s5,-1136 # 20147b90 <USBHS_EP0_Buf>
201027fe:	231c                	lbu	a5,0(a4)
20102800:	201465b7          	lui	a1,0x20146
20102804:	2336                	lhu	a3,2(a4)
20102806:	94f90023          	sb	a5,-1728(s2) # 20145940 <USBHS_SetupReqType>
2010280a:	331c                	lbu	a5,1(a4)
2010280c:	20146637          	lui	a2,0x20146
20102810:	94f580a3          	sb	a5,-1727(a1) # 20145941 <USBHS_SetupReqCode>
20102814:	237e                	lhu	a5,6(a4)
20102816:	235a                	lhu	a4,4(a4)
20102818:	92f41d23          	sh	a5,-1734(s0) # 2014593a <USBHS_SetupReqLen>
2010281c:	201467b7          	lui	a5,0x20146
20102820:	92d79f23          	sh	a3,-1730(a5) # 2014593e <USBHS_SetupReqValue>
20102824:	92e61e23          	sh	a4,-1732(a2) # 2014593c <USBHS_SetupReqIndex>
20102828:	94094a03          	lbu	s4,-1728(s2)
2010282c:	b90a8693          	addi	a3,s5,-1136
20102830:	060a7a13          	andi	s4,s4,96
20102834:	080a0c63          	beqz	s4,201028cc <USBHS_IRQHandler+0x140>
20102838:	94094783          	lbu	a5,-1728(s2)
2010283c:	60479793          	sext.b	a5,a5
20102840:	0607d363          	bgez	a5,201028a6 <USBHS_IRQHandler+0x11a>
20102844:	20146a37          	lui	s4,0x20146
20102848:	944a0513          	addi	a0,s4,-1724 # 20145944 <pUSBHS_Descr>
2010284c:	a1eff0ef          	jal	ra,20101a6a <USBHS_UVC_NonStandardReq>
20102850:	0ff57513          	zext.b	a0,a0
20102854:	0ff00793          	li	a5,255
20102858:	06f50263          	beq	a0,a5,201028bc <USBHS_IRQHandler+0x130>
2010285c:	93a45703          	lhu	a4,-1734(s0)
20102860:	03f00793          	li	a5,63
20102864:	04000493          	li	s1,64
20102868:	00e7e663          	bltu	a5,a4,20102874 <USBHS_IRQHandler+0xe8>
2010286c:	93a45483          	lhu	s1,-1734(s0)
20102870:	0804c4b3          	zext.h	s1,s1
20102874:	944a2983          	lw	s3,-1724(s4)
20102878:	8626                	mv	a2,s1
2010287a:	b90a8513          	addi	a0,s5,-1136
2010287e:	85ce                	mv	a1,s3
20102880:	99a6                	add	s3,s3,s1
20102882:	a33fd0ef          	jal	ra,201002b4 <memcpy>
20102886:	953a2223          	sw	s3,-1724(s4)
2010288a:	94094783          	lbu	a5,-1728(s2)
2010288e:	60479793          	sext.b	a5,a5
20102892:	5a07d463          	bgez	a5,20102e3a <USBHS_IRQHandler+0x6ae>
20102896:	93a45783          	lhu	a5,-1734(s0)
2010289a:	56079763          	bnez	a5,20102e08 <USBHS_IRQHandler+0x67c>
2010289e:	400307b7          	lui	a5,0x40030
201028a2:	4719                	li	a4,6
201028a4:	a00d                	j	201028c6 <USBHS_IRQHandler+0x13a>
201028a6:	94094703          	lbu	a4,-1728(s2)
201028aa:	02100793          	li	a5,33
201028ae:	00f71763          	bne	a4,a5,201028bc <USBHS_IRQHandler+0x130>
201028b2:	9415c703          	lbu	a4,-1727(a1)
201028b6:	4785                	li	a5,1
201028b8:	fcf709e3          	beq	a4,a5,2010288a <USBHS_IRQHandler+0xfe>
201028bc:	400307b7          	lui	a5,0x40030
201028c0:	4715                	li	a4,5
201028c2:	08e78f23          	sb	a4,158(a5) # 4003009e <_eusrstack+0x1feb009e>
201028c6:	08e78fa3          	sb	a4,159(a5)
201028ca:	bded                	j	201027c4 <USBHS_IRQHandler+0x38>
201028cc:	9415c583          	lbu	a1,-1727(a1)
201028d0:	452d                	li	a0,11
201028d2:	0ff5f713          	zext.b	a4,a1
201028d6:	feb563e3          	bltu	a0,a1,201028bc <USBHS_IRQHandler+0x130>
201028da:	201065b7          	lui	a1,0x20106
201028de:	b2458593          	addi	a1,a1,-1244 # 20105b24 <yuv_uxga+0x148>
201028e2:	20b74733          	sh2add	a4,a4,a1
201028e6:	4318                	lw	a4,0(a4)
201028e8:	8702                	jr	a4
201028ea:	93e7d703          	lhu	a4,-1730(a5)
201028ee:	4699                	li	a3,6
201028f0:	201469b7          	lui	s3,0x20146
201028f4:	8321                	srli	a4,a4,0x8
201028f6:	177d                	addi	a4,a4,-1 # ffffff <_data_lma+0xff9bc7>
201028f8:	0ff77713          	zext.b	a4,a4
201028fc:	0ee6e363          	bltu	a3,a4,201029e2 <USBHS_IRQHandler+0x256>
20102900:	201066b7          	lui	a3,0x20106
20102904:	b5468693          	addi	a3,a3,-1196 # 20105b54 <yuv_uxga+0x178>
20102908:	20d74733          	sh2add	a4,a4,a3
2010290c:	4318                	lw	a4,0(a4)
2010290e:	8702                	jr	a4
20102910:	201067b7          	lui	a5,0x20106
20102914:	0b878793          	addi	a5,a5,184 # 201060b8 <MyDevDescr>
20102918:	2384                	lbu	s1,0(a5)
2010291a:	94f9a223          	sw	a5,-1724(s3) # 20145944 <pUSBHS_Descr>
2010291e:	a091                	j	20102962 <USBHS_IRQHandler+0x1d6>
20102920:	400307b7          	lui	a5,0x40030
20102924:	27b8                	lbu	a4,10(a5)
20102926:	201466b7          	lui	a3,0x20146
2010292a:	201467b7          	lui	a5,0x20146
2010292e:	60471713          	sext.b	a4,a4
20102932:	06075a63          	bgez	a4,201029a6 <USBHS_IRQHandler+0x21a>
20102936:	4705                	li	a4,1
20102938:	92e78a23          	sb	a4,-1740(a5) # 20145934 <USBHS_DevSpeed>
2010293c:	20000713          	li	a4,512
20102940:	92e69b23          	sh	a4,-1738(a3) # 20145936 <USBHS_DevMaxPackLen>
20102944:	9347c703          	lbu	a4,-1740(a5)
20102948:	4785                	li	a5,1
2010294a:	06f71363          	bne	a4,a5,201029b0 <USBHS_IRQHandler+0x224>
2010294e:	201067b7          	lui	a5,0x20106
20102952:	ecc78793          	addi	a5,a5,-308 # 20105ecc <MyCfgDescr_HS>
20102956:	33a4                	lbu	s1,3(a5)
20102958:	23b8                	lbu	a4,2(a5)
2010295a:	94f9a223          	sw	a5,-1724(s3)
2010295e:	04a2                	slli	s1,s1,0x8
20102960:	8cd9                	or	s1,s1,a4
20102962:	93a45783          	lhu	a5,-1734(s0)
20102966:	00f4f463          	bgeu	s1,a5,2010296e <USBHS_IRQHandler+0x1e2>
2010296a:	92941d23          	sh	s1,-1734(s0)
2010296e:	93a45703          	lhu	a4,-1734(s0)
20102972:	03f00793          	li	a5,63
20102976:	04000493          	li	s1,64
2010297a:	00e7e663          	bltu	a5,a4,20102986 <USBHS_IRQHandler+0x1fa>
2010297e:	93a45483          	lhu	s1,-1734(s0)
20102982:	0804c4b3          	zext.h	s1,s1
20102986:	9449ab03          	lw	s6,-1724(s3)
2010298a:	8626                	mv	a2,s1
2010298c:	b90a8513          	addi	a0,s5,-1136
20102990:	85da                	mv	a1,s6
20102992:	923fd0ef          	jal	ra,201002b4 <memcpy>
20102996:	9b26                	add	s6,s6,s1
20102998:	9569a223          	sw	s6,-1724(s3)
2010299c:	0ff00793          	li	a5,255
201029a0:	f0fa0ee3          	beq	s4,a5,201028bc <USBHS_IRQHandler+0x130>
201029a4:	b5dd                	j	2010288a <USBHS_IRQHandler+0xfe>
201029a6:	92078a23          	sb	zero,-1740(a5)
201029aa:	04000713          	li	a4,64
201029ae:	bf49                	j	20102940 <USBHS_IRQHandler+0x1b4>
201029b0:	201067b7          	lui	a5,0x20106
201029b4:	e9078793          	addi	a5,a5,-368 # 20105e90 <MyCfgDescr_FS>
201029b8:	bf79                	j	20102956 <USBHS_IRQHandler+0x1ca>
201029ba:	93e7d783          	lhu	a5,-1730(a5)
201029be:	4709                	li	a4,2
201029c0:	0ff7f793          	zext.b	a5,a5
201029c4:	02e78863          	beq	a5,a4,201029f4 <USBHS_IRQHandler+0x268>
201029c8:	00f76a63          	bltu	a4,a5,201029dc <USBHS_IRQHandler+0x250>
201029cc:	ef99                	bnez	a5,201029ea <USBHS_IRQHandler+0x25e>
201029ce:	83c18793          	addi	a5,gp,-1988 # 201318cc <MyLangDescr>
201029d2:	2384                	lbu	s1,0(a5)
201029d4:	94f9a223          	sw	a5,-1724(s3)
201029d8:	4a01                	li	s4,0
201029da:	b761                	j	20102962 <USBHS_IRQHandler+0x1d6>
201029dc:	470d                	li	a4,3
201029de:	02e78063          	beq	a5,a4,201029fe <USBHS_IRQHandler+0x272>
201029e2:	4481                	li	s1,0
201029e4:	0ff00a13          	li	s4,255
201029e8:	bfad                	j	20102962 <USBHS_IRQHandler+0x1d6>
201029ea:	201067b7          	lui	a5,0x20106
201029ee:	c5478793          	addi	a5,a5,-940 # 20105c54 <MyManuInfo>
201029f2:	b71d                	j	20102918 <USBHS_IRQHandler+0x18c>
201029f4:	201067b7          	lui	a5,0x20106
201029f8:	c3478793          	addi	a5,a5,-972 # 20105c34 <MyProdInfo>
201029fc:	bf31                	j	20102918 <USBHS_IRQHandler+0x18c>
201029fe:	201067b7          	lui	a5,0x20106
20102a02:	c1c78793          	addi	a5,a5,-996 # 20105c1c <MySerNumInfo>
20102a06:	bf09                	j	20102918 <USBHS_IRQHandler+0x18c>
20102a08:	201067b7          	lui	a5,0x20106
20102a0c:	e8478793          	addi	a5,a5,-380 # 20105e84 <MyQuaDesc>
20102a10:	b721                	j	20102918 <USBHS_IRQHandler+0x18c>
20102a12:	201467b7          	lui	a5,0x20146
20102a16:	9347c683          	lbu	a3,-1740(a5) # 20145934 <USBHS_DevSpeed>
20102a1a:	4705                	li	a4,1
20102a1c:	02e69d63          	bne	a3,a4,20102a56 <USBHS_IRQHandler+0x2ca>
20102a20:	201067b7          	lui	a5,0x20106
20102a24:	e9078793          	addi	a5,a5,-368 # 20105e90 <MyCfgDescr_FS>
20102a28:	33a4                	lbu	s1,3(a5)
20102a2a:	23b8                	lbu	a4,2(a5)
20102a2c:	201065b7          	lui	a1,0x20106
20102a30:	04a2                	slli	s1,s1,0x8
20102a32:	8cd9                	or	s1,s1,a4
20102a34:	20131537          	lui	a0,0x20131
20102a38:	ffe48613          	addi	a2,s1,-2
20102a3c:	e9258593          	addi	a1,a1,-366 # 20105e92 <MyCfgDescr_FS+0x2>
20102a40:	60650513          	addi	a0,a0,1542 # 20131606 <TAB_USB_HS_OSC_DESC+0x2>
20102a44:	871fd0ef          	jal	ra,201002b4 <memcpy>
20102a48:	201317b7          	lui	a5,0x20131
20102a4c:	60478793          	addi	a5,a5,1540 # 20131604 <TAB_USB_HS_OSC_DESC>
20102a50:	94f9a223          	sw	a5,-1724(s3)
20102a54:	b739                	j	20102962 <USBHS_IRQHandler+0x1d6>
20102a56:	9347c783          	lbu	a5,-1740(a5)
20102a5a:	0ff7fa13          	zext.b	s4,a5
20102a5e:	f3d1                	bnez	a5,201029e2 <USBHS_IRQHandler+0x256>
20102a60:	201067b7          	lui	a5,0x20106
20102a64:	ecc78793          	addi	a5,a5,-308 # 20105ecc <MyCfgDescr_HS>
20102a68:	33a4                	lbu	s1,3(a5)
20102a6a:	23b8                	lbu	a4,2(a5)
20102a6c:	201065b7          	lui	a1,0x20106
20102a70:	04a2                	slli	s1,s1,0x8
20102a72:	8cd9                	or	s1,s1,a4
20102a74:	20131537          	lui	a0,0x20131
20102a78:	ffe48613          	addi	a2,s1,-2
20102a7c:	ece58593          	addi	a1,a1,-306 # 20105ece <MyCfgDescr_HS+0x2>
20102a80:	64250513          	addi	a0,a0,1602 # 20131642 <TAB_USB_FS_OSC_DESC+0x2>
20102a84:	831fd0ef          	jal	ra,201002b4 <memcpy>
20102a88:	201317b7          	lui	a5,0x20131
20102a8c:	64078793          	addi	a5,a5,1600 # 20131640 <TAB_USB_FS_OSC_DESC>
20102a90:	b7c1                	j	20102a50 <USBHS_IRQHandler+0x2c4>
20102a92:	93e7d783          	lhu	a5,-1730(a5)
20102a96:	20146737          	lui	a4,0x20146
20102a9a:	0ff7f793          	zext.b	a5,a5
20102a9e:	92f70c23          	sb	a5,-1736(a4) # 20145938 <USBHS_DevAddr>
20102aa2:	b3e5                	j	2010288a <USBHS_IRQHandler+0xfe>
20102aa4:	201467b7          	lui	a5,0x20146
20102aa8:	9397c783          	lbu	a5,-1735(a5) # 20145939 <USBHS_DevConfig>
20102aac:	a29c                	sb	a5,0(a3)
20102aae:	93a45703          	lhu	a4,-1734(s0)
20102ab2:	4785                	li	a5,1
20102ab4:	dce7fbe3          	bgeu	a5,a4,2010288a <USBHS_IRQHandler+0xfe>
20102ab8:	92f41d23          	sh	a5,-1734(s0)
20102abc:	b3f9                	j	2010288a <USBHS_IRQHandler+0xfe>
20102abe:	93e7d783          	lhu	a5,-1730(a5)
20102ac2:	20146737          	lui	a4,0x20146
20102ac6:	0ff7f793          	zext.b	a5,a5
20102aca:	92f70ca3          	sb	a5,-1735(a4) # 20145939 <USBHS_DevConfig>
20102ace:	201467b7          	lui	a5,0x20146
20102ad2:	4705                	li	a4,1
20102ad4:	92e78923          	sb	a4,-1742(a5) # 20145932 <USBHS_DevEnumStatus>
20102ad8:	201467b7          	lui	a5,0x20146
20102adc:	4711                	li	a4,4
20102ade:	94e78823          	sb	a4,-1712(a5) # 20145950 <USB_Enum_Status>
20102ae2:	b365                	j	2010288a <USBHS_IRQHandler+0xfe>
20102ae4:	94094703          	lbu	a4,-1728(s2)
20102ae8:	8b7d                	andi	a4,a4,31
20102aea:	e30d                	bnez	a4,20102b0c <USBHS_IRQHandler+0x380>
20102aec:	93e7d783          	lhu	a5,-1730(a5)
20102af0:	4705                	li	a4,1
20102af2:	0ff7f793          	zext.b	a5,a5
20102af6:	dce793e3          	bne	a5,a4,201028bc <USBHS_IRQHandler+0x130>
20102afa:	20146737          	lui	a4,0x20146
20102afe:	93374783          	lbu	a5,-1741(a4) # 20145933 <USBHS_DevSleepStatus>
20102b02:	0fe7f793          	andi	a5,a5,254
20102b06:	92f709a3          	sb	a5,-1741(a4)
20102b0a:	b341                	j	2010288a <USBHS_IRQHandler+0xfe>
20102b0c:	94094703          	lbu	a4,-1728(s2)
20102b10:	4689                	li	a3,2
20102b12:	8b7d                	andi	a4,a4,31
20102b14:	dad714e3          	bne	a4,a3,201028bc <USBHS_IRQHandler+0x130>
20102b18:	93e7d783          	lhu	a5,-1730(a5)
20102b1c:	0ff7f793          	zext.b	a5,a5
20102b20:	d8079ee3          	bnez	a5,201028bc <USBHS_IRQHandler+0x130>
20102b24:	93c65783          	lhu	a5,-1732(a2)
20102b28:	08100693          	li	a3,129
20102b2c:	0ff7f793          	zext.b	a5,a5
20102b30:	02d78f63          	beq	a5,a3,20102b6e <USBHS_IRQHandler+0x3e2>
20102b34:	02f6e063          	bltu	a3,a5,20102b54 <USBHS_IRQHandler+0x3c8>
20102b38:	468d                	li	a3,3
20102b3a:	02d78f63          	beq	a5,a3,20102b78 <USBHS_IRQHandler+0x3ec>
20102b3e:	4695                	li	a3,5
20102b40:	04d78663          	beq	a5,a3,20102b8c <USBHS_IRQHandler+0x400>
20102b44:	4685                	li	a3,1
20102b46:	d6d79be3          	bne	a5,a3,201028bc <USBHS_IRQHandler+0x130>
20102b4a:	400307b7          	lui	a5,0x40030
20102b4e:	0ae781a3          	sb	a4,163(a5) # 400300a3 <_eusrstack+0x1feb00a3>
20102b52:	bb25                	j	2010288a <USBHS_IRQHandler+0xfe>
20102b54:	08400713          	li	a4,132
20102b58:	02e78563          	beq	a5,a4,20102b82 <USBHS_IRQHandler+0x3f6>
20102b5c:	08600713          	li	a4,134
20102b60:	d4e79ee3          	bne	a5,a4,201028bc <USBHS_IRQHandler+0x130>
20102b64:	400307b7          	lui	a5,0x40030
20102b68:	0a078b23          	sb	zero,182(a5) # 400300b6 <_eusrstack+0x1feb00b6>
20102b6c:	bb39                	j	2010288a <USBHS_IRQHandler+0xfe>
20102b6e:	400307b7          	lui	a5,0x40030
20102b72:	0a078123          	sb	zero,162(a5) # 400300a2 <_eusrstack+0x1feb00a2>
20102b76:	bb11                	j	2010288a <USBHS_IRQHandler+0xfe>
20102b78:	400307b7          	lui	a5,0x40030
20102b7c:	0ae785a3          	sb	a4,171(a5) # 400300ab <_eusrstack+0x1feb00ab>
20102b80:	b329                	j	2010288a <USBHS_IRQHandler+0xfe>
20102b82:	400307b7          	lui	a5,0x40030
20102b86:	0a078723          	sb	zero,174(a5) # 400300ae <_eusrstack+0x1feb00ae>
20102b8a:	b301                	j	2010288a <USBHS_IRQHandler+0xfe>
20102b8c:	400307b7          	lui	a5,0x40030
20102b90:	0ae789a3          	sb	a4,179(a5) # 400300b3 <_eusrstack+0x1feb00b3>
20102b94:	b9dd                	j	2010288a <USBHS_IRQHandler+0xfe>
20102b96:	94094703          	lbu	a4,-1728(s2)
20102b9a:	8b7d                	andi	a4,a4,31
20102b9c:	e345                	bnez	a4,20102c3c <USBHS_IRQHandler+0x4b0>
20102b9e:	93e7d703          	lhu	a4,-1730(a5)
20102ba2:	4685                	li	a3,1
20102ba4:	0ff77713          	zext.b	a4,a4
20102ba8:	04d71263          	bne	a4,a3,20102bec <USBHS_IRQHandler+0x460>
20102bac:	201466b7          	lui	a3,0x20146
20102bb0:	9346c783          	lbu	a5,-1740(a3) # 20145934 <USBHS_DevSpeed>
20102bb4:	00e79963          	bne	a5,a4,20102bc6 <USBHS_IRQHandler+0x43a>
20102bb8:	201067b7          	lui	a5,0x20106
20102bbc:	ed37c783          	lbu	a5,-301(a5) # 20105ed3 <MyCfgDescr_HS+0x7>
20102bc0:	0207f793          	andi	a5,a5,32
20102bc4:	ef89                	bnez	a5,20102bde <USBHS_IRQHandler+0x452>
20102bc6:	9346c783          	lbu	a5,-1740(a3)
20102bca:	ce0799e3          	bnez	a5,201028bc <USBHS_IRQHandler+0x130>
20102bce:	201067b7          	lui	a5,0x20106
20102bd2:	e977c783          	lbu	a5,-361(a5) # 20105e97 <MyCfgDescr_FS+0x7>
20102bd6:	0207f793          	andi	a5,a5,32
20102bda:	ce0781e3          	beqz	a5,201028bc <USBHS_IRQHandler+0x130>
20102bde:	20146737          	lui	a4,0x20146
20102be2:	93374783          	lbu	a5,-1741(a4) # 20145933 <USBHS_DevSleepStatus>
20102be6:	0017e793          	ori	a5,a5,1
20102bea:	bf31                	j	20102b06 <USBHS_IRQHandler+0x37a>
20102bec:	93e7d783          	lhu	a5,-1730(a5)
20102bf0:	4709                	li	a4,2
20102bf2:	0ff7f793          	zext.b	a5,a5
20102bf6:	cce793e3          	bne	a5,a4,201028bc <USBHS_IRQHandler+0x130>
20102bfa:	93c65703          	lhu	a4,-1732(a2)
20102bfe:	10000793          	li	a5,256
20102c02:	02f70463          	beq	a4,a5,20102c2a <USBHS_IRQHandler+0x49e>
20102c06:	93c65703          	lhu	a4,-1732(a2)
20102c0a:	20000793          	li	a5,512
20102c0e:	00f70e63          	beq	a4,a5,20102c2a <USBHS_IRQHandler+0x49e>
20102c12:	93c65703          	lhu	a4,-1732(a2)
20102c16:	30000793          	li	a5,768
20102c1a:	00f70863          	beq	a4,a5,20102c2a <USBHS_IRQHandler+0x49e>
20102c1e:	93c65703          	lhu	a4,-1732(a2)
20102c22:	40000793          	li	a5,1024
20102c26:	c6f712e3          	bne	a4,a5,2010288a <USBHS_IRQHandler+0xfe>
20102c2a:	20146737          	lui	a4,0x20146
20102c2e:	94874783          	lbu	a5,-1720(a4) # 20145948 <USBHS_Test_Flag>
20102c32:	0807e793          	ori	a5,a5,128
20102c36:	94f70423          	sb	a5,-1720(a4)
20102c3a:	b981                	j	2010288a <USBHS_IRQHandler+0xfe>
20102c3c:	94094703          	lbu	a4,-1728(s2)
20102c40:	4689                	li	a3,2
20102c42:	8b7d                	andi	a4,a4,31
20102c44:	c4d713e3          	bne	a4,a3,2010288a <USBHS_IRQHandler+0xfe>
20102c48:	93e7d783          	lhu	a5,-1730(a5)
20102c4c:	0ff7f793          	zext.b	a5,a5
20102c50:	c2079de3          	bnez	a5,2010288a <USBHS_IRQHandler+0xfe>
20102c54:	93c65783          	lhu	a5,-1732(a2)
20102c58:	08100713          	li	a4,129
20102c5c:	0ff7f793          	zext.b	a5,a5
20102c60:	04e78b63          	beq	a5,a4,20102cb6 <USBHS_IRQHandler+0x52a>
20102c64:	02f76663          	bltu	a4,a5,20102c90 <USBHS_IRQHandler+0x504>
20102c68:	470d                	li	a4,3
20102c6a:	06e78163          	beq	a5,a4,20102ccc <USBHS_IRQHandler+0x540>
20102c6e:	4715                	li	a4,5
20102c70:	08e78463          	beq	a5,a4,20102cf8 <USBHS_IRQHandler+0x56c>
20102c74:	4705                	li	a4,1
20102c76:	c4e793e3          	bne	a5,a4,201028bc <USBHS_IRQHandler+0x130>
20102c7a:	40030737          	lui	a4,0x40030
20102c7e:	0a374783          	lbu	a5,163(a4) # 400300a3 <_eusrstack+0x1feb00a3>
20102c82:	0fc7f793          	andi	a5,a5,252
20102c86:	0017e793          	ori	a5,a5,1
20102c8a:	0af701a3          	sb	a5,163(a4)
20102c8e:	bef5                	j	2010288a <USBHS_IRQHandler+0xfe>
20102c90:	08400713          	li	a4,132
20102c94:	04e78763          	beq	a5,a4,20102ce2 <USBHS_IRQHandler+0x556>
20102c98:	08600713          	li	a4,134
20102c9c:	c2e790e3          	bne	a5,a4,201028bc <USBHS_IRQHandler+0x130>
20102ca0:	40030737          	lui	a4,0x40030
20102ca4:	0b674783          	lbu	a5,182(a4) # 400300b6 <_eusrstack+0x1feb00b6>
20102ca8:	0fc7f793          	andi	a5,a5,252
20102cac:	0017e793          	ori	a5,a5,1
20102cb0:	0af70b23          	sb	a5,182(a4)
20102cb4:	bed9                	j	2010288a <USBHS_IRQHandler+0xfe>
20102cb6:	40030737          	lui	a4,0x40030
20102cba:	0a274783          	lbu	a5,162(a4) # 400300a2 <_eusrstack+0x1feb00a2>
20102cbe:	0fc7f793          	andi	a5,a5,252
20102cc2:	0017e793          	ori	a5,a5,1
20102cc6:	0af70123          	sb	a5,162(a4)
20102cca:	b6c1                	j	2010288a <USBHS_IRQHandler+0xfe>
20102ccc:	40030737          	lui	a4,0x40030
20102cd0:	0ab74783          	lbu	a5,171(a4) # 400300ab <_eusrstack+0x1feb00ab>
20102cd4:	0fc7f793          	andi	a5,a5,252
20102cd8:	0017e793          	ori	a5,a5,1
20102cdc:	0af705a3          	sb	a5,171(a4)
20102ce0:	b66d                	j	2010288a <USBHS_IRQHandler+0xfe>
20102ce2:	40030737          	lui	a4,0x40030
20102ce6:	0ae74783          	lbu	a5,174(a4) # 400300ae <_eusrstack+0x1feb00ae>
20102cea:	0fc7f793          	andi	a5,a5,252
20102cee:	0017e793          	ori	a5,a5,1
20102cf2:	0af70723          	sb	a5,174(a4)
20102cf6:	be51                	j	2010288a <USBHS_IRQHandler+0xfe>
20102cf8:	40030737          	lui	a4,0x40030
20102cfc:	0b374783          	lbu	a5,179(a4) # 400300b3 <_eusrstack+0x1feb00b3>
20102d00:	0fc7f793          	andi	a5,a5,252
20102d04:	0017e793          	ori	a5,a5,1
20102d08:	0af709a3          	sb	a5,179(a4)
20102d0c:	bebd                	j	2010288a <USBHS_IRQHandler+0xfe>
20102d0e:	00068023          	sb	zero,0(a3)
20102d12:	bb71                	j	20102aae <USBHS_IRQHandler+0x322>
20102d14:	e7efe0ef          	jal	ra,20101392 <HS_CtrlCamera>
20102d18:	be8d                	j	2010288a <USBHS_IRQHandler+0xfe>
20102d1a:	94094783          	lbu	a5,-1728(s2)
20102d1e:	b80a9823          	sh	zero,-1136(s5)
20102d22:	4709                	li	a4,2
20102d24:	8bfd                	andi	a5,a5,31
20102d26:	0ae79e63          	bne	a5,a4,20102de2 <USBHS_IRQHandler+0x656>
20102d2a:	93c65703          	lhu	a4,-1732(a2)
20102d2e:	08100613          	li	a2,129
20102d32:	0ff77713          	zext.b	a4,a4
20102d36:	06c70563          	beq	a4,a2,20102da0 <USBHS_IRQHandler+0x614>
20102d3a:	02e66363          	bltu	a2,a4,20102d60 <USBHS_IRQHandler+0x5d4>
20102d3e:	460d                	li	a2,3
20102d40:	06c70d63          	beq	a4,a2,20102dba <USBHS_IRQHandler+0x62e>
20102d44:	4615                	li	a2,5
20102d46:	08c70463          	beq	a4,a2,20102dce <USBHS_IRQHandler+0x642>
20102d4a:	4785                	li	a5,1
20102d4c:	04f70263          	beq	a4,a5,20102d90 <USBHS_IRQHandler+0x604>
20102d50:	93a45703          	lhu	a4,-1734(s0)
20102d54:	4789                	li	a5,2
20102d56:	b6e7f3e3          	bgeu	a5,a4,201028bc <USBHS_IRQHandler+0x130>
20102d5a:	92f41d23          	sh	a5,-1734(s0)
20102d5e:	beb9                	j	201028bc <USBHS_IRQHandler+0x130>
20102d60:	08400613          	li	a2,132
20102d64:	06c70063          	beq	a4,a2,20102dc4 <USBHS_IRQHandler+0x638>
20102d68:	08600613          	li	a2,134
20102d6c:	06c70663          	beq	a4,a2,20102dd8 <USBHS_IRQHandler+0x64c>
20102d70:	08200613          	li	a2,130
20102d74:	fcc71ee3          	bne	a4,a2,20102d50 <USBHS_IRQHandler+0x5c4>
20102d78:	40030737          	lui	a4,0x40030
20102d7c:	0a674703          	lbu	a4,166(a4) # 400300a6 <_eusrstack+0x1feb00a6>
20102d80:	8b0d                	andi	a4,a4,3
20102d82:	4605                	li	a2,1
20102d84:	00c71363          	bne	a4,a2,20102d8a <USBHS_IRQHandler+0x5fe>
20102d88:	a298                	sb	a4,0(a3)
20102d8a:	93a45703          	lhu	a4,-1734(s0)
20102d8e:	b31d                	j	20102ab4 <USBHS_IRQHandler+0x328>
20102d90:	400307b7          	lui	a5,0x40030
20102d94:	0a37c783          	lbu	a5,163(a5) # 400300a3 <_eusrstack+0x1feb00a3>
20102d98:	8b8d                	andi	a5,a5,3
20102d9a:	00e79363          	bne	a5,a4,20102da0 <USBHS_IRQHandler+0x614>
20102d9e:	a29c                	sb	a5,0(a3)
20102da0:	400307b7          	lui	a5,0x40030
20102da4:	0a27c783          	lbu	a5,162(a5) # 400300a2 <_eusrstack+0x1feb00a2>
20102da8:	4705                	li	a4,1
20102daa:	8b8d                	andi	a5,a5,3
20102dac:	00e79363          	bne	a5,a4,20102db2 <USBHS_IRQHandler+0x626>
20102db0:	a29c                	sb	a5,0(a3)
20102db2:	93a45703          	lhu	a4,-1734(s0)
20102db6:	4789                	li	a5,2
20102db8:	b9f5                	j	20102ab4 <USBHS_IRQHandler+0x328>
20102dba:	40030737          	lui	a4,0x40030
20102dbe:	0ab74703          	lbu	a4,171(a4) # 400300ab <_eusrstack+0x1feb00ab>
20102dc2:	bf7d                	j	20102d80 <USBHS_IRQHandler+0x5f4>
20102dc4:	40030737          	lui	a4,0x40030
20102dc8:	0ae74703          	lbu	a4,174(a4) # 400300ae <_eusrstack+0x1feb00ae>
20102dcc:	bf55                	j	20102d80 <USBHS_IRQHandler+0x5f4>
20102dce:	40030737          	lui	a4,0x40030
20102dd2:	0b374703          	lbu	a4,179(a4) # 400300b3 <_eusrstack+0x1feb00b3>
20102dd6:	b76d                	j	20102d80 <USBHS_IRQHandler+0x5f4>
20102dd8:	40030737          	lui	a4,0x40030
20102ddc:	0b674703          	lbu	a4,182(a4) # 400300b6 <_eusrstack+0x1feb00b6>
20102de0:	b745                	j	20102d80 <USBHS_IRQHandler+0x5f4>
20102de2:	94094783          	lbu	a5,-1728(s2)
20102de6:	8bfd                	andi	a5,a5,31
20102de8:	cb81                	beqz	a5,20102df8 <USBHS_IRQHandler+0x66c>
20102dea:	93a45783          	lhu	a5,-1734(s0)
20102dee:	a8f77ee3          	bgeu	a4,a5,2010288a <USBHS_IRQHandler+0xfe>
20102df2:	92e41d23          	sh	a4,-1734(s0)
20102df6:	bc51                	j	2010288a <USBHS_IRQHandler+0xfe>
20102df8:	201467b7          	lui	a5,0x20146
20102dfc:	9337c783          	lbu	a5,-1741(a5) # 20145933 <USBHS_DevSleepStatus>
20102e00:	8b85                	andi	a5,a5,1
20102e02:	d7e5                	beqz	a5,20102dea <USBHS_IRQHandler+0x65e>
20102e04:	a298                	sb	a4,0(a3)
20102e06:	b7d5                	j	20102dea <USBHS_IRQHandler+0x65e>
20102e08:	93a45703          	lhu	a4,-1734(s0)
20102e0c:	04000793          	li	a5,64
20102e10:	00e7e663          	bltu	a5,a4,20102e1c <USBHS_IRQHandler+0x690>
20102e14:	93a45783          	lhu	a5,-1734(s0)
20102e18:	0807c7b3          	zext.h	a5,a5
20102e1c:	93a45703          	lhu	a4,-1734(s0)
20102e20:	8f1d                	sub	a4,a4,a5
20102e22:	08074733          	zext.h	a4,a4
20102e26:	92e41d23          	sh	a4,-1734(s0)
20102e2a:	40030737          	lui	a4,0x40030
20102e2e:	08f71e23          	sh	a5,156(a4) # 4003009c <_eusrstack+0x1feb009c>
20102e32:	4799                	li	a5,6
20102e34:	08f70f23          	sb	a5,158(a4)
20102e38:	b271                	j	201027c4 <USBHS_IRQHandler+0x38>
20102e3a:	93a45783          	lhu	a5,-1734(s0)
20102e3e:	a60790e3          	bnez	a5,2010289e <USBHS_IRQHandler+0x112>
20102e42:	400307b7          	lui	a5,0x40030
20102e46:	08079e23          	sh	zero,156(a5) # 4003009c <_eusrstack+0x1feb009c>
20102e4a:	4719                	li	a4,6
20102e4c:	08e78f23          	sb	a4,158(a5)
20102e50:	ba95                	j	201027c4 <USBHS_IRQHandler+0x38>
20102e52:	08048fa3          	sb	zero,159(s1)
20102e56:	07c4d783          	lhu	a5,124(s1)
20102e5a:	94094703          	lbu	a4,-1728(s2)
20102e5e:	0807c7b3          	zext.h	a5,a5
20102e62:	06077713          	andi	a4,a4,96
20102e66:	c335                	beqz	a4,20102eca <USBHS_IRQHandler+0x73e>
20102e68:	92041d23          	sh	zero,-1734(s0)
20102e6c:	20146737          	lui	a4,0x20146
20102e70:	94174703          	lbu	a4,-1727(a4) # 20145941 <USBHS_SetupReqCode>
20102e74:	4769                	li	a4,26
20102e76:	04e79a63          	bne	a5,a4,20102eca <USBHS_IRQHandler+0x73e>
20102e7a:	20148737          	lui	a4,0x20148
20102e7e:	b9070713          	addi	a4,a4,-1136 # 20147b90 <USBHS_EP0_Buf>
20102e82:	201464b7          	lui	s1,0x20146
20102e86:	233c                	lbu	a5,2(a4)
20102e88:	3334                	lbu	a3,3(a4)
20102e8a:	9314c703          	lbu	a4,-1743(s1) # 20145931 <format.1>
20102e8e:	20146937          	lui	s2,0x20146
20102e92:	00f71663          	bne	a4,a5,20102e9e <USBHS_IRQHandler+0x712>
20102e96:	93094703          	lbu	a4,-1744(s2) # 20145930 <frame.0>
20102e9a:	02d70863          	beq	a4,a3,20102eca <USBHS_IRQHandler+0x73e>
20102e9e:	20130737          	lui	a4,0x20130
20102ea2:	18070713          	addi	a4,a4,384 # 20130180 <Get_Curr>
20102ea6:	a33c                	sb	a5,2(a4)
20102ea8:	b334                	sb	a3,3(a4)
20102eaa:	82f18023          	sb	a5,-2016(gp) # 201318b0 <Formatchange_flag>
20102eae:	8201c503          	lbu	a0,-2016(gp) # 201318b0 <Formatchange_flag>
20102eb2:	92f488a3          	sb	a5,-1743(s1)
20102eb6:	92d90823          	sb	a3,-1744(s2)
20102eba:	ce8ff0ef          	jal	ra,201023a2 <OV2640_Format_Mode>
20102ebe:	93094583          	lbu	a1,-1744(s2)
20102ec2:	9314c503          	lbu	a0,-1743(s1)
20102ec6:	e08ff0ef          	jal	ra,201024ce <OV2640_Change_Resolution>
20102eca:	93a45783          	lhu	a5,-1734(s0)
20102ece:	8e079be3          	bnez	a5,201027c4 <USBHS_IRQHandler+0x38>
20102ed2:	bf85                	j	20102e42 <USBHS_IRQHandler+0x6b6>
20102ed4:	0a34c783          	lbu	a5,163(s1)
20102ed8:	07f7f793          	andi	a5,a5,127
20102edc:	0af481a3          	sb	a5,163(s1)
20102ee0:	b0d5                	j	201027c4 <USBHS_IRQHandler+0x38>
20102ee2:	c70d                	beqz	a4,20102f0c <USBHS_IRQHandler+0x780>
20102ee4:	4785                	li	a5,1
20102ee6:	8cf71fe3          	bne	a4,a5,201027c4 <USBHS_IRQHandler+0x38>
20102eea:	0a24c783          	lbu	a5,162(s1)
20102eee:	07f7f793          	andi	a5,a5,127
20102ef2:	0af48123          	sb	a5,162(s1)
20102ef6:	0a24c783          	lbu	a5,162(s1)
20102efa:	0fc7f793          	andi	a5,a5,252
20102efe:	0af48123          	sb	a5,162(s1)
20102f02:	e24fe0ef          	jal	ra,20101526 <HS_Endp1_ISOHander>
20102f06:	de6fe0ef          	jal	ra,201014ec <HS_Endp1_Hander>
20102f0a:	b86d                	j	201027c4 <USBHS_IRQHandler+0x38>
20102f0c:	09e4c783          	lbu	a5,158(s1)
20102f10:	20146937          	lui	s2,0x20146
20102f14:	07f7f793          	andi	a5,a5,127
20102f18:	08f48f23          	sb	a5,158(s1)
20102f1c:	93a95783          	lhu	a5,-1734(s2) # 2014593a <USBHS_SetupReqLen>
20102f20:	e781                	bnez	a5,20102f28 <USBHS_IRQHandler+0x79c>
20102f22:	4799                	li	a5,6
20102f24:	08f48fa3          	sb	a5,159(s1)
20102f28:	201467b7          	lui	a5,0x20146
20102f2c:	9407c783          	lbu	a5,-1728(a5) # 20145940 <USBHS_SetupReqType>
20102f30:	0607f793          	andi	a5,a5,96
20102f34:	e3c9                	bnez	a5,20102fb6 <USBHS_IRQHandler+0x82a>
20102f36:	201467b7          	lui	a5,0x20146
20102f3a:	9417c783          	lbu	a5,-1727(a5) # 20145941 <USBHS_SetupReqCode>
20102f3e:	4695                	li	a3,5
20102f40:	0ff7f713          	zext.b	a4,a5
20102f44:	08d78563          	beq	a5,a3,20102fce <USBHS_IRQHandler+0x842>
20102f48:	4799                	li	a5,6
20102f4a:	08f71c63          	bne	a4,a5,20102fe2 <USBHS_IRQHandler+0x856>
20102f4e:	93a95703          	lhu	a4,-1734(s2)
20102f52:	03f00793          	li	a5,63
20102f56:	04000413          	li	s0,64
20102f5a:	00e7e663          	bltu	a5,a4,20102f66 <USBHS_IRQHandler+0x7da>
20102f5e:	93a95403          	lhu	s0,-1734(s2)
20102f62:	08044433          	zext.h	s0,s0
20102f66:	201469b7          	lui	s3,0x20146
20102f6a:	9449a483          	lw	s1,-1724(s3) # 20145944 <pUSBHS_Descr>
20102f6e:	20148537          	lui	a0,0x20148
20102f72:	8622                	mv	a2,s0
20102f74:	85a6                	mv	a1,s1
20102f76:	b9050513          	addi	a0,a0,-1136 # 20147b90 <USBHS_EP0_Buf>
20102f7a:	b3afd0ef          	jal	ra,201002b4 <memcpy>
20102f7e:	93a95783          	lhu	a5,-1734(s2)
20102f82:	94a2                	add	s1,s1,s0
20102f84:	9499a223          	sw	s1,-1724(s3)
20102f88:	8f81                	sub	a5,a5,s0
20102f8a:	0807c7b3          	zext.h	a5,a5
20102f8e:	92f91d23          	sh	a5,-1734(s2)
20102f92:	400307b7          	lui	a5,0x40030
20102f96:	08879e23          	sh	s0,156(a5) # 4003009c <_eusrstack+0x1feb009c>
20102f9a:	09e7c703          	lbu	a4,158(a5)
20102f9e:	00474713          	xori	a4,a4,4
20102fa2:	08e78f23          	sb	a4,158(a5)
20102fa6:	09e7c703          	lbu	a4,158(a5)
20102faa:	0fc77713          	andi	a4,a4,252
20102fae:	00276713          	ori	a4,a4,2
20102fb2:	08e78f23          	sb	a4,158(a5)
20102fb6:	201467b7          	lui	a5,0x20146
20102fba:	9487c783          	lbu	a5,-1720(a5) # 20145948 <USBHS_Test_Flag>
20102fbe:	60479793          	sext.b	a5,a5
20102fc2:	8007d1e3          	bgez	a5,201027c4 <USBHS_IRQHandler+0x38>
20102fc6:	e30ff0ef          	jal	ra,201025f6 <USB_TestMode_Deal>
20102fca:	ffaff06f          	j	201027c4 <USBHS_IRQHandler+0x38>
20102fce:	201467b7          	lui	a5,0x20146
20102fd2:	9387c783          	lbu	a5,-1736(a5) # 20145938 <USBHS_DevAddr>
20102fd6:	40030737          	lui	a4,0x40030
20102fda:	0ff7f793          	zext.b	a5,a5
20102fde:	b33c                	sb	a5,3(a4)
20102fe0:	bfd9                	j	20102fb6 <USBHS_IRQHandler+0x82a>
20102fe2:	400307b7          	lui	a5,0x40030
20102fe6:	08079e23          	sh	zero,156(a5) # 4003009c <_eusrstack+0x1feb009c>
20102fea:	b7f1                	j	20102fb6 <USBHS_IRQHandler+0x82a>
20102fec:	04077793          	andi	a5,a4,64
20102ff0:	c791                	beqz	a5,20102ffc <USBHS_IRQHandler+0x870>
20102ff2:	04000793          	li	a5,64
20102ff6:	a49c                	sb	a5,8(s1)
20102ff8:	fccff06f          	j	201027c4 <USBHS_IRQHandler+0x38>
20102ffc:	00277793          	andi	a5,a4,2
20103000:	cb95                	beqz	a5,20103034 <USBHS_IRQHandler+0x8a8>
20103002:	4789                	li	a5,2
20103004:	a49c                	sb	a5,8(s1)
20103006:	24b8                	lbu	a4,10(s1)
20103008:	201467b7          	lui	a5,0x20146
2010300c:	8b09                	andi	a4,a4,2
2010300e:	cb19                	beqz	a4,20103024 <USBHS_IRQHandler+0x898>
20103010:	9337c703          	lbu	a4,-1741(a5) # 20145933 <USBHS_DevSleepStatus>
20103014:	00276713          	ori	a4,a4,2
20103018:	92e789a3          	sb	a4,-1741(a5)
2010301c:	9337c783          	lbu	a5,-1741(a5)
20103020:	fa4ff06f          	j	201027c4 <USBHS_IRQHandler+0x38>
20103024:	9337c703          	lbu	a4,-1741(a5)
20103028:	0fd77713          	andi	a4,a4,253
2010302c:	92e789a3          	sb	a4,-1741(a5)
20103030:	f94ff06f          	j	201027c4 <USBHS_IRQHandler+0x38>
20103034:	00177793          	andi	a5,a4,1
20103038:	c7ad                	beqz	a5,201030a2 <USBHS_IRQHandler+0x916>
2010303a:	201467b7          	lui	a5,0x20146
2010303e:	92078ca3          	sb	zero,-1735(a5) # 20145939 <USBHS_DevConfig>
20103042:	201467b7          	lui	a5,0x20146
20103046:	92078c23          	sb	zero,-1736(a5) # 20145938 <USBHS_DevAddr>
2010304a:	201467b7          	lui	a5,0x20146
2010304e:	920789a3          	sb	zero,-1741(a5) # 20145933 <USBHS_DevSleepStatus>
20103052:	201467b7          	lui	a5,0x20146
20103056:	92078923          	sb	zero,-1742(a5) # 20145932 <USBHS_DevEnumStatus>
2010305a:	000481a3          	sb	zero,3(s1)
2010305e:	e52ff0ef          	jal	ra,201026b0 <USBHS_Device_Endp_Init>
20103062:	4705                	li	a4,1
20103064:	a498                	sb	a4,8(s1)
20103066:	201467b7          	lui	a5,0x20146
2010306a:	9507c683          	lbu	a3,-1712(a5) # 20145950 <USB_Enum_Status>
2010306e:	00e68763          	beq	a3,a4,2010307c <USBHS_IRQHandler+0x8f0>
20103072:	9507c683          	lbu	a3,-1712(a5)
20103076:	4711                	li	a4,4
20103078:	f4e69663          	bne	a3,a4,201027c4 <USBHS_IRQHandler+0x38>
2010307c:	4709                	li	a4,2
2010307e:	94e78823          	sb	a4,-1712(a5)
20103082:	e000e7b7          	lui	a5,0xe000e
20103086:	40000737          	lui	a4,0x40000
2010308a:	10e7a223          	sw	a4,260(a5) # e000e104 <_eusrstack+0xbfe8e104>
2010308e:	80000737          	lui	a4,0x80000
20103092:	10e7a223          	sw	a4,260(a5)
20103096:	4505                	li	a0,1
20103098:	22dd                	jal	2010327e <USB_Timer_Start>
2010309a:	4505                	li	a0,1
2010309c:	2b25                	jal	201035d4 <USBSS_Device_Init>
2010309e:	f26ff06f          	j	201027c4 <USBHS_IRQHandler+0x38>
201030a2:	a498                	sb	a4,8(s1)
201030a4:	f20ff06f          	j	201027c4 <USBHS_IRQHandler+0x38>

201030a8 <USB_Timer_Start.part.0>:
201030a8:	40014737          	lui	a4,0x40014
201030ac:	c2071223          	sh	zero,-988(a4) # 40013c24 <_eusrstack+0x1fe93c24>
201030b0:	56f9                	li	a3,-2
201030b2:	c0d71823          	sh	a3,-1008(a4)
201030b6:	20000637          	lui	a2,0x20000
201030ba:	e000e6b7          	lui	a3,0xe000e
201030be:	10c6a423          	sw	a2,264(a3) # e000e108 <_eusrstack+0xbfe8e108>
201030c2:	c0c75683          	lhu	a3,-1012(a4)
201030c6:	0016e693          	ori	a3,a3,1
201030ca:	c0d71623          	sh	a3,-1012(a4)
201030ce:	c0075783          	lhu	a5,-1024(a4)
201030d2:	0017e793          	ori	a5,a5,1
201030d6:	c0f71023          	sh	a5,-1024(a4)
201030da:	8082                	ret

201030dc <USBSS_PLL_Init.part.0>:
201030dc:	40021737          	lui	a4,0x40021
201030e0:	431c                	lw	a5,0(a4)
201030e2:	400216b7          	lui	a3,0x40021
201030e6:	29679793          	bseti	a5,a5,0x16
201030ea:	c31c                	sw	a5,0(a4)
201030ec:	00800737          	lui	a4,0x800
201030f0:	429c                	lw	a5,0(a3)
201030f2:	8ff9                	and	a5,a5,a4
201030f4:	dff5                	beqz	a5,201030f0 <USBSS_PLL_Init.part.0+0x14>
201030f6:	8082                	ret

201030f8 <USBSS_RCC_Init.part.0>:
201030f8:	98cfd2ef          	jal	t0,20100284 <__riscv_save_0>
201030fc:	4581                	li	a1,0
201030fe:	6505                	lui	a0,0x1
20103100:	de9fd0ef          	jal	ra,20100ee8 <RCC_HBPeriphClockCmd>
20103104:	4501                	li	a0,0
20103106:	e79fd0ef          	jal	ra,20100f7e <RCC_UTMIcmd>
2010310a:	4501                	li	a0,0
2010310c:	e5dfd0ef          	jal	ra,20100f68 <RCC_PIPECmd>
20103110:	400217b7          	lui	a5,0x40021
20103114:	479c                	lw	a5,8(a5)
20103116:	70000737          	lui	a4,0x70000
2010311a:	8ff9                	and	a5,a5,a4
2010311c:	00e78563          	beq	a5,a4,20103126 <USBSS_RCC_Init.part.0+0x2e>
20103120:	4501                	li	a0,0
20103122:	e31fd0ef          	jal	ra,20100f52 <RCC_USBSS_PLLCmd>
20103126:	982fd06f          	j	201002a8 <__riscv_restore_0>

2010312a <USBSS_RCC_Init>:
2010312a:	95afd2ef          	jal	t0,20100284 <__riscv_save_0>
2010312e:	c10d                	beqz	a0,20103150 <USBSS_RCC_Init+0x26>
20103130:	3775                	jal	201030dc <USBSS_PLL_Init.part.0>
20103132:	4585                	li	a1,1
20103134:	6505                	lui	a0,0x1
20103136:	db3fd0ef          	jal	ra,20100ee8 <RCC_HBPeriphClockCmd>
2010313a:	4505                	li	a0,1
2010313c:	e2dfd0ef          	jal	ra,20100f68 <RCC_PIPECmd>
20103140:	4505                	li	a0,1
20103142:	e3dfd0ef          	jal	ra,20100f7e <RCC_UTMIcmd>
20103146:	4505                	li	a0,1
20103148:	e0bfd0ef          	jal	ra,20100f52 <RCC_USBSS_PLLCmd>
2010314c:	95cfd06f          	j	201002a8 <__riscv_restore_0>
20103150:	3765                	jal	201030f8 <USBSS_RCC_Init.part.0>
20103152:	bfed                	j	2010314c <USBSS_RCC_Init+0x22>

20103154 <USBSS_Device_Endp_Deinit>:
20103154:	400347b7          	lui	a5,0x40034
20103158:	5bb8                	lw	a4,112(a5)
2010315a:	00276713          	ori	a4,a4,2
2010315e:	dbb8                	sw	a4,112(a5)
20103160:	5bb8                	lw	a4,112(a5)
20103162:	9b75                	andi	a4,a4,-3
20103164:	dbb8                	sw	a4,112(a5)
20103166:	8082                	ret

20103168 <USBSS_Device_Endp_Init>:
20103168:	91cfd2ef          	jal	t0,20100284 <__riscv_save_0>
2010316c:	37e5                	jal	20103154 <USBSS_Device_Endp_Deinit>
2010316e:	400347b7          	lui	a5,0x40034
20103172:	4709                	li	a4,2
20103174:	08e79023          	sh	a4,128(a5) # 40034080 <_eusrstack+0x1feb4080>
20103178:	08e79123          	sh	a4,130(a5)
2010317c:	0807a223          	sw	zero,132(a5)
20103180:	201586b7          	lui	a3,0x20158
20103184:	0807a423          	sw	zero,136(a5)
20103188:	08078713          	addi	a4,a5,128
2010318c:	bec68693          	addi	a3,a3,-1044 # 20157bec <USBSS_EP0_Buf>
20103190:	c754                	sw	a3,12(a4)
20103192:	cb14                	sw	a3,16(a4)
20103194:	201506b7          	lui	a3,0x20150
20103198:	bec68693          	addi	a3,a3,-1044 # 2014fbec <USBSS_EP1_Tx_Buf>
2010319c:	c774                	sw	a3,76(a4)
2010319e:	40000693          	li	a3,1024
201031a2:	0cd79323          	sh	a3,198(a5)
201031a6:	0c07c683          	lbu	a3,192(a5)
201031aa:	0016e693          	ori	a3,a3,1
201031ae:	0cd78023          	sb	a3,192(a5)
201031b2:	201486b7          	lui	a3,0x20148
201031b6:	bec68693          	addi	a3,a3,-1044 # 20147bec <USBSS_EP1_Rx_Buf>
201031ba:	cf74                	sw	a3,92(a4)
201031bc:	4741                	li	a4,16
201031be:	0ce78c23          	sb	a4,216(a5)
201031c2:	8e6fd06f          	j	201002a8 <__riscv_restore_0>

201031c6 <USBSS_Reset_Init>:
201031c6:	8befd2ef          	jal	t0,20100284 <__riscv_save_0>
201031ca:	c10d                	beqz	a0,201031ec <USBSS_Reset_Init+0x26>
201031cc:	400347b7          	lui	a5,0x40034
201031d0:	5bb8                	lw	a4,112(a5)
201031d2:	00476713          	ori	a4,a4,4
201031d6:	dbb8                	sw	a4,112(a5)
201031d8:	4705                	li	a4,1
201031da:	dbf8                	sw	a4,116(a5)
201031dc:	00070737          	lui	a4,0x70
201031e0:	02170713          	addi	a4,a4,33 # 70021 <_data_lma+0x69be9>
201031e4:	dbb8                	sw	a4,112(a5)
201031e6:	3749                	jal	20103168 <USBSS_Device_Endp_Init>
201031e8:	8c0fd06f          	j	201002a8 <__riscv_restore_0>
201031ec:	40034437          	lui	s0,0x40034
201031f0:	4791                	li	a5,4
201031f2:	d83c                	sw	a5,112(s0)
201031f4:	401c                	lw	a5,0(s0)
201031f6:	800004b7          	lui	s1,0x80000
201031fa:	00848713          	addi	a4,s1,8 # 80000008 <_eusrstack+0x5fe80008>
201031fe:	8fd9                	or	a5,a5,a4
20103200:	c01c                	sw	a5,0(s0)
20103202:	06400513          	li	a0,100
20103206:	f15fd0ef          	jal	ra,2010111a <Delay_Us>
2010320a:	583c                	lw	a5,112(s0)
2010320c:	14dd                	addi	s1,s1,-9
2010320e:	9bed                	andi	a5,a5,-5
20103210:	d83c                	sw	a5,112(s0)
20103212:	401c                	lw	a5,0(s0)
20103214:	8fe5                	and	a5,a5,s1
20103216:	c01c                	sw	a5,0(s0)
20103218:	35c5                	jal	201030f8 <USBSS_RCC_Init.part.0>
2010321a:	b7f9                	j	201031e8 <USBSS_Reset_Init+0x22>

2010321c <USB_Timer_Init>:
2010321c:	868fd2ef          	jal	t0,20100284 <__riscv_save_0>
20103220:	1101                	addi	sp,sp,-32
20103222:	4585                	li	a1,1
20103224:	00400537          	lui	a0,0x400
20103228:	c202                	sw	zero,4(sp)
2010322a:	c402                	sw	zero,8(sp)
2010322c:	c602                	sw	zero,12(sp)
2010322e:	cd7fd0ef          	jal	ra,20100f04 <RCC_HB2PeriphClockCmd>
20103232:	0808                	addi	a0,sp,16
20103234:	b13fd0ef          	jal	ra,20100d46 <RCC_GetClocksFreq>
20103238:	6785                	lui	a5,0x1
2010323a:	38778793          	addi	a5,a5,903 # 1387 <__stack_size+0xb87>
2010323e:	c43e                	sw	a5,8(sp)
20103240:	47d2                	lw	a5,20(sp)
20103242:	6709                	lui	a4,0x2
20103244:	71070713          	addi	a4,a4,1808 # 2710 <__stack_size+0x1f10>
20103248:	02e7d7b3          	divu	a5,a5,a4
2010324c:	40014437          	lui	s0,0x40014
20103250:	004c                	addi	a1,sp,4
20103252:	c0040513          	addi	a0,s0,-1024 # 40013c00 <_eusrstack+0x1fe93c00>
20103256:	00011623          	sh	zero,12(sp)
2010325a:	00011323          	sh	zero,6(sp)
2010325e:	17fd                	addi	a5,a5,-1
20103260:	827c                	sh	a5,4(sp)
20103262:	daffd0ef          	jal	ra,20101010 <TIM9_12_TimeBaseInit>
20103266:	4585                	li	a1,1
20103268:	c0040513          	addi	a0,s0,-1024
2010326c:	d99fd0ef          	jal	ra,20101004 <TIM_ClearITPendingBit>
20103270:	e000e7b7          	lui	a5,0xe000e
20103274:	44078ea3          	sb	zero,1117(a5) # e000e45d <_eusrstack+0xbfe8e45d>
20103278:	6105                	addi	sp,sp,32
2010327a:	82efd06f          	j	201002a8 <__riscv_restore_0>

2010327e <USB_Timer_Start>:
2010327e:	c111                	beqz	a0,20103282 <USB_Timer_Start+0x4>
20103280:	b525                	j	201030a8 <USB_Timer_Start.part.0>
20103282:	e000e7b7          	lui	a5,0xe000e
20103286:	20000737          	lui	a4,0x20000
2010328a:	18e7a423          	sw	a4,392(a5) # e000e188 <_eusrstack+0xbfe8e188>
2010328e:	0000100f          	fence.i
20103292:	40014737          	lui	a4,0x40014
20103296:	c0c75783          	lhu	a5,-1012(a4) # 40013c0c <_eusrstack+0x1fe93c0c>
2010329a:	0807c7b3          	zext.h	a5,a5
2010329e:	9bf9                	andi	a5,a5,-2
201032a0:	0807c7b3          	zext.h	a5,a5
201032a4:	c0f71623          	sh	a5,-1012(a4)
201032a8:	c0075783          	lhu	a5,-1024(a4)
201032ac:	0807c7b3          	zext.h	a5,a5
201032b0:	9bf9                	andi	a5,a5,-2
201032b2:	0807c7b3          	zext.h	a5,a5
201032b6:	c0f71023          	sh	a5,-1024(a4)
201032ba:	8082                	ret

201032bc <USBSS_LINK_Handle>:
201032bc:	fc9fc2ef          	jal	t0,20100284 <__riscv_save_0>
201032c0:	20146637          	lui	a2,0x20146
201032c4:	491c                	lw	a5,16(a0)
201032c6:	4558                	lw	a4,12(a0)
201032c8:	94c62583          	lw	a1,-1716(a2) # 2014594c <Chip>
201032cc:	4689                	li	a3,2
201032ce:	842a                	mv	s0,a0
201032d0:	00b6f863          	bgeu	a3,a1,201032e0 <USBSS_LINK_Handle+0x24>
201032d4:	400345b7          	lui	a1,0x40034
201032d8:	4594                	lw	a3,8(a1)
201032da:	29569693          	bseti	a3,a3,0x15
201032de:	c594                	sw	a3,8(a1)
201032e0:	12075463          	bgez	a4,20103408 <USBSS_LINK_Handle+0x14c>
201032e4:	6705                	lui	a4,0x1
201032e6:	f0070693          	addi	a3,a4,-256 # f00 <__stack_size+0x700>
201032ea:	8ff5                	and	a5,a5,a3
201032ec:	800006b7          	lui	a3,0x80000
201032f0:	c454                	sw	a3,12(s0)
201032f2:	50000693          	li	a3,1280
201032f6:	00d79863          	bne	a5,a3,20103306 <USBSS_LINK_Handle+0x4a>
201032fa:	201487b7          	lui	a5,0x20148
201032fe:	bc079823          	sh	zero,-1072(a5) # 20147bd0 <USBSS_Dev_Info>
20103302:	fa7fc06f          	j	201002a8 <__riscv_restore_0>
20103306:	28b01693          	bseti	a3,zero,0xb
2010330a:	02d79c63          	bne	a5,a3,20103342 <USBSS_LINK_Handle+0x86>
2010330e:	201467b7          	lui	a5,0x20146
20103312:	9497c703          	lbu	a4,-1719(a5) # 20145949 <link_low_power.0>
20103316:	d775                	beqz	a4,20103302 <USBSS_LINK_Handle+0x46>
20103318:	06400513          	li	a0,100
2010331c:	940784a3          	sb	zero,-1719(a5)
20103320:	dfbfd0ef          	jal	ra,2010111a <Delay_Us>
20103324:	400347b7          	lui	a5,0x40034
20103328:	00926737          	lui	a4,0x926
2010332c:	1f878693          	addi	a3,a5,504 # 400341f8 <_eusrstack+0x1feb41f8>
20103330:	7c870713          	addi	a4,a4,1992 # 9267c8 <_data_lma+0x920390>
20103334:	c298                	sw	a4,0(a3)
20103336:	1fc78793          	addi	a5,a5,508
2010333a:	4705                	li	a4,1
2010333c:	c398                	sw	a4,0(a5)
2010333e:	439c                	lw	a5,0(a5)
20103340:	b7c9                	j	20103302 <USBSS_LINK_Handle+0x46>
20103342:	40000693          	li	a3,1024
20103346:	04d79663          	bne	a5,a3,20103392 <USBSS_LINK_Handle+0xd6>
2010334a:	405c                	lw	a5,4(s0)
2010334c:	9bbd                	andi	a5,a5,-17
2010334e:	c05c                	sw	a5,4(s0)
20103350:	201467b7          	lui	a5,0x20146
20103354:	9507c703          	lbu	a4,-1712(a5) # 20145950 <USB_Enum_Status>
20103358:	e711                	bnez	a4,20103364 <USBSS_LINK_Handle+0xa8>
2010335a:	4705                	li	a4,1
2010335c:	94e78823          	sb	a4,-1712(a5)
20103360:	33a1                	jal	201030a8 <USB_Timer_Start.part.0>
20103362:	b745                	j	20103302 <USBSS_LINK_Handle+0x46>
20103364:	9507c683          	lbu	a3,-1712(a5)
20103368:	4709                	li	a4,2
2010336a:	00e69963          	bne	a3,a4,2010337c <USBSS_LINK_Handle+0xc0>
2010336e:	470d                	li	a4,3
20103370:	4501                	li	a0,0
20103372:	94e78823          	sb	a4,-1712(a5)
20103376:	bc8ff0ef          	jal	ra,2010273e <USBHS_Device_Init>
2010337a:	b7dd                	j	20103360 <USBSS_LINK_Handle+0xa4>
2010337c:	9507c683          	lbu	a3,-1712(a5)
20103380:	4711                	li	a4,4
20103382:	f8e690e3          	bne	a3,a4,20103302 <USBSS_LINK_Handle+0x46>
20103386:	94078823          	sb	zero,-1712(a5)
2010338a:	4505                	li	a0,1
2010338c:	bb2ff0ef          	jal	ra,2010273e <USBHS_Device_Init>
20103390:	bf8d                	j	20103302 <USBSS_LINK_Handle+0x46>
20103392:	30000693          	li	a3,768
20103396:	02d79463          	bne	a5,a3,201033be <USBSS_LINK_Handle+0x102>
2010339a:	4685                	li	a3,1
2010339c:	201467b7          	lui	a5,0x20146
201033a0:	94d784a3          	sb	a3,-1719(a5) # 20145949 <link_low_power.0>
201033a4:	00926737          	lui	a4,0x926
201033a8:	400347b7          	lui	a5,0x40034
201033ac:	1f878613          	addi	a2,a5,504 # 400341f8 <_eusrstack+0x1feb41f8>
201033b0:	5c870713          	addi	a4,a4,1480 # 9265c8 <_data_lma+0x920190>
201033b4:	c218                	sw	a4,0(a2)
201033b6:	1fc78793          	addi	a5,a5,508
201033ba:	c394                	sw	a3,0(a5)
201033bc:	b749                	j	2010333e <USBSS_LINK_Handle+0x82>
201033be:	10000693          	li	a3,256
201033c2:	fcd78ce3          	beq	a5,a3,2010339a <USBSS_LINK_Handle+0xde>
201033c6:	20000693          	li	a3,512
201033ca:	fcd788e3          	beq	a5,a3,2010339a <USBSS_LINK_Handle+0xde>
201033ce:	90070713          	addi	a4,a4,-1792
201033d2:	02e79163          	bne	a5,a4,201033f4 <USBSS_LINK_Handle+0x138>
201033d6:	201487b7          	lui	a5,0x20148
201033da:	4505                	li	a0,1
201033dc:	bc079823          	sh	zero,-1072(a5) # 20147bd0 <USBSS_Dev_Info>
201033e0:	33dd                	jal	201031c6 <USBSS_Reset_Init>
201033e2:	201467b7          	lui	a5,0x20146
201033e6:	940789a3          	sb	zero,-1709(a5) # 20145953 <USBSS_DevEnumStatus>
201033ea:	405c                	lw	a5,4(s0)
201033ec:	49079793          	bclri	a5,a5,0x10
201033f0:	c05c                	sw	a5,4(s0)
201033f2:	bf01                	j	20103302 <USBSS_LINK_Handle+0x46>
201033f4:	60000713          	li	a4,1536
201033f8:	f0e795e3          	bne	a5,a4,20103302 <USBSS_LINK_Handle+0x46>
201033fc:	201467b7          	lui	a5,0x20146
20103400:	4705                	li	a4,1
20103402:	94e78823          	sb	a4,-1712(a5) # 20145950 <USB_Enum_Status>
20103406:	b751                	j	2010338a <USBSS_LINK_Handle+0xce>
20103408:	40077793          	andi	a5,a4,1024
2010340c:	cb91                	beqz	a5,20103420 <USBSS_LINK_Handle+0x164>
2010340e:	40000793          	li	a5,1024
20103412:	c45c                	sw	a5,12(s0)
20103414:	201467b7          	lui	a5,0x20146
20103418:	940789a3          	sb	zero,-1709(a5) # 20145953 <USBSS_DevEnumStatus>
2010341c:	481c                	lw	a5,16(s0)
2010341e:	b5d5                	j	20103302 <USBSS_LINK_Handle+0x46>
20103420:	008007b7          	lui	a5,0x800
20103424:	00f776b3          	and	a3,a4,a5
20103428:	ca91                	beqz	a3,2010343c <USBSS_LINK_Handle+0x180>
2010342a:	c45c                	sw	a5,12(s0)
2010342c:	405c                	lw	a5,4(s0)
2010342e:	0107e793          	ori	a5,a5,16
20103432:	c05c                	sw	a5,4(s0)
20103434:	405c                	lw	a5,4(s0)
20103436:	0807e793          	ori	a5,a5,128
2010343a:	bf5d                	j	201033f0 <USBSS_LINK_Handle+0x134>
2010343c:	004007b7          	lui	a5,0x400
20103440:	00f776b3          	and	a3,a4,a5
20103444:	c28d                	beqz	a3,20103466 <USBSS_LINK_Handle+0x1aa>
20103446:	c45c                	sw	a5,12(s0)
20103448:	28000793          	li	a5,640
2010344c:	d07c                	sw	a5,100(s0)
2010344e:	401c                	lw	a5,0(s0)
20103450:	8b85                	andi	a5,a5,1
20103452:	c799                	beqz	a5,20103460 <USBSS_LINK_Handle+0x1a4>
20103454:	67c1                	lui	a5,0x10
20103456:	0791                	addi	a5,a5,4 # 10004 <_data_lma+0x9bcc>
20103458:	d43c                	sw	a5,104(s0)
2010345a:	06042623          	sw	zero,108(s0)
2010345e:	b555                	j	20103302 <USBSS_LINK_Handle+0x46>
20103460:	000207b7          	lui	a5,0x20
20103464:	bfcd                	j	20103456 <USBSS_LINK_Handle+0x19a>
20103466:	002007b7          	lui	a5,0x200
2010346a:	00f776b3          	and	a3,a4,a5
2010346e:	c6f9                	beqz	a3,2010353c <USBSS_LINK_Handle+0x280>
20103470:	c45c                	sw	a5,12(s0)
20103472:	4c3c                	lw	a5,88(s0)
20103474:	4014                	lw	a3,0(s0)
20103476:	1e07f713          	andi	a4,a5,480
2010347a:	8a85                	andi	a3,a3,1
2010347c:	c685                	beqz	a3,201034a4 <USBSS_LINK_Handle+0x1e8>
2010347e:	08000793          	li	a5,128
20103482:	00f71863          	bne	a4,a5,20103492 <USBSS_LINK_Handle+0x1d6>
20103486:	2a000793          	li	a5,672
2010348a:	d07c                	sw	a5,100(s0)
2010348c:	06042423          	sw	zero,104(s0)
20103490:	b7e9                	j	2010345a <USBSS_LINK_Handle+0x19e>
20103492:	0c000793          	li	a5,192
20103496:	e6f716e3          	bne	a4,a5,20103302 <USBSS_LINK_Handle+0x46>
2010349a:	487c                	lw	a5,84(s0)
2010349c:	29e79793          	bseti	a5,a5,0x1e
201034a0:	c87c                	sw	a5,84(s0)
201034a2:	b585                	j	20103302 <USBSS_LINK_Handle+0x46>
201034a4:	0a000693          	li	a3,160
201034a8:	02d71663          	bne	a4,a3,201034d4 <USBSS_LINK_Handle+0x218>
201034ac:	2c000793          	li	a5,704
201034b0:	d07c                	sw	a5,100(s0)
201034b2:	06042423          	sw	zero,104(s0)
201034b6:	06042623          	sw	zero,108(s0)
201034ba:	487c                	lw	a5,84(s0)
201034bc:	4711                	li	a4,4
201034be:	4501                	li	a0,0
201034c0:	29e79793          	bseti	a5,a5,0x1e
201034c4:	c87c                	sw	a5,84(s0)
201034c6:	201467b7          	lui	a5,0x20146
201034ca:	94e78823          	sb	a4,-1712(a5) # 20145950 <USB_Enum_Status>
201034ce:	3b45                	jal	2010327e <USB_Timer_Start>
201034d0:	4501                	li	a0,0
201034d2:	bd6d                	j	2010338c <USBSS_LINK_Handle+0xd0>
201034d4:	04000693          	li	a3,64
201034d8:	00d71763          	bne	a4,a3,201034e6 <USBSS_LINK_Handle+0x22a>
201034dc:	83a5                	srli	a5,a5,0x9
201034de:	0ff7f793          	zext.b	a5,a5
201034e2:	bc5c                	sb	a5,29(s0)
201034e4:	bd39                	j	20103302 <USBSS_LINK_Handle+0x46>
201034e6:	02000793          	li	a5,32
201034ea:	e0f71ce3          	bne	a4,a5,20103302 <USBSS_LINK_Handle+0x46>
201034ee:	94c62703          	lw	a4,-1716(a2)
201034f2:	4789                	li	a5,2
201034f4:	e0e7e7e3          	bltu	a5,a4,20103302 <USBSS_LINK_Handle+0x46>
201034f8:	4c3c                	lw	a5,88(s0)
201034fa:	201486b7          	lui	a3,0x20148
201034fe:	4007f793          	andi	a5,a5,1024
20103502:	c385                	beqz	a5,20103522 <USBSS_LINK_Handle+0x266>
20103504:	400347b7          	lui	a5,0x40034
20103508:	4398                	lw	a4,0(a5)
2010350a:	29071713          	bseti	a4,a4,0x10
2010350e:	c398                	sw	a4,0(a5)
20103510:	4398                	lw	a4,0(a5)
20103512:	29171713          	bseti	a4,a4,0x11
20103516:	c398                	sw	a4,0(a5)
20103518:	10100793          	li	a5,257
2010351c:	bcf69823          	sh	a5,-1072(a3) # 20147bd0 <USBSS_Dev_Info>
20103520:	b3cd                	j	20103302 <USBSS_LINK_Handle+0x46>
20103522:	400347b7          	lui	a5,0x40034
20103526:	4398                	lw	a4,0(a5)
20103528:	49071713          	bclri	a4,a4,0x10
2010352c:	c398                	sw	a4,0(a5)
2010352e:	4398                	lw	a4,0(a5)
20103530:	49171713          	bclri	a4,a4,0x11
20103534:	c398                	sw	a4,0(a5)
20103536:	bc069823          	sh	zero,-1072(a3)
2010353a:	b3e1                	j	20103302 <USBSS_LINK_Handle+0x46>
2010353c:	6789                	lui	a5,0x2
2010353e:	8f7d                	and	a4,a4,a5
20103540:	dc0701e3          	beqz	a4,20103302 <USBSS_LINK_Handle+0x46>
20103544:	c45c                	sw	a5,12(s0)
20103546:	481c                	lw	a5,16(s0)
20103548:	8b89                	andi	a5,a5,2
2010354a:	da078ce3          	beqz	a5,20103302 <USBSS_LINK_Handle+0x46>
2010354e:	201467b7          	lui	a5,0x20146
20103552:	4505                	li	a0,1
20103554:	940789a3          	sb	zero,-1709(a5) # 20145953 <USBSS_DevEnumStatus>
20103558:	c6fff0ef          	jal	ra,201031c6 <USBSS_Reset_Init>
2010355c:	405c                	lw	a5,4(s0)
2010355e:	0107e793          	ori	a5,a5,16
20103562:	c05c                	sw	a5,4(s0)
20103564:	0001                	nop
20103566:	0001                	nop
20103568:	0001                	nop
2010356a:	0001                	nop
2010356c:	405c                	lw	a5,4(s0)
2010356e:	9bbd                	andi	a5,a5,-17
20103570:	b541                	j	201033f0 <USBSS_LINK_Handle+0x134>

20103572 <SET_Device_Address>:
20103572:	59bc                	lw	a5,112(a1)
20103574:	0562                	slli	a0,a0,0x18
20103576:	07a2                	slli	a5,a5,0x8
20103578:	83a1                	srli	a5,a5,0x8
2010357a:	d9bc                	sw	a5,112(a1)
2010357c:	59bc                	lw	a5,112(a1)
2010357e:	8d5d                	or	a0,a0,a5
20103580:	d9a8                	sw	a0,112(a1)
20103582:	8082                	ret

20103584 <USBSS_CFG_MOD>:
20103584:	400347b7          	lui	a5,0x40034
20103588:	00838737          	lui	a4,0x838
2010358c:	1f878693          	addi	a3,a5,504 # 400341f8 <_eusrstack+0x1feb41f8>
20103590:	c1270713          	addi	a4,a4,-1006 # 837c12 <_data_lma+0x8317da>
20103594:	c298                	sw	a4,0(a3)
20103596:	1fc78793          	addi	a5,a5,508
2010359a:	4705                	li	a4,1
2010359c:	c398                	sw	a4,0(a5)
2010359e:	4390                	lw	a2,0(a5)
201035a0:	008d8637          	lui	a2,0x8d8
201035a4:	9aa60613          	addi	a2,a2,-1622 # 8d79aa <_data_lma+0x8d1572>
201035a8:	c290                	sw	a2,0(a3)
201035aa:	c398                	sw	a4,0(a5)
201035ac:	4390                	lw	a2,0(a5)
201035ae:	00954637          	lui	a2,0x954
201035b2:	43060613          	addi	a2,a2,1072 # 954430 <_data_lma+0x94dff8>
201035b6:	c290                	sw	a2,0(a3)
201035b8:	c398                	sw	a4,0(a5)
201035ba:	4390                	lw	a2,0(a5)
201035bc:	00930637          	lui	a2,0x930
201035c0:	0641                	addi	a2,a2,16 # 930010 <_data_lma+0x929bd8>
201035c2:	c290                	sw	a2,0(a3)
201035c4:	c398                	sw	a4,0(a5)
201035c6:	439c                	lw	a5,0(a5)
201035c8:	b0054737          	lui	a4,0xb0054
201035cc:	5003c7b7          	lui	a5,0x5003c
201035d0:	cf98                	sw	a4,24(a5)
201035d2:	8082                	ret

201035d4 <USBSS_Device_Init>:
201035d4:	cb1fc2ef          	jal	t0,20100284 <__riscv_save_0>
201035d8:	c15d                	beqz	a0,2010367e <USBSS_Device_Init+0xaa>
201035da:	4505                	li	a0,1
201035dc:	b4fff0ef          	jal	ra,2010312a <USBSS_RCC_Init>
201035e0:	400347b7          	lui	a5,0x40034
201035e4:	34800713          	li	a4,840
201035e8:	c398                	sw	a4,0(a5)
201035ea:	4749                	li	a4,18
201035ec:	c3d8                	sw	a4,4(a5)
201035ee:	00208737          	lui	a4,0x208
201035f2:	34070713          	addi	a4,a4,832 # 208340 <_data_lma+0x201f08>
201035f6:	c398                	sw	a4,0(a5)
201035f8:	0507d703          	lhu	a4,80(a5) # 40034050 <_eusrstack+0x1feb4050>
201035fc:	20076713          	ori	a4,a4,512
20103600:	04e79823          	sh	a4,80(a5)
20103604:	4398                	lw	a4,0(a5)
20103606:	00276713          	ori	a4,a4,2
2010360a:	c398                	sw	a4,0(a5)
2010360c:	80e02737          	lui	a4,0x80e02
20103610:	40070713          	addi	a4,a4,1024 # 80e02400 <_eusrstack+0x60c82400>
20103614:	c798                	sw	a4,8(a5)
20103616:	20146737          	lui	a4,0x20146
2010361a:	94c72683          	lw	a3,-1716(a4) # 2014594c <Chip>
2010361e:	4709                	li	a4,2
20103620:	00d77663          	bgeu	a4,a3,2010362c <USBSS_Device_Init+0x58>
20103624:	4798                	lw	a4,8(a5)
20103626:	29571713          	bseti	a4,a4,0x15
2010362a:	c798                	sw	a4,8(a5)
2010362c:	400347b7          	lui	a5,0x40034
20103630:	4709                	li	a4,2
20103632:	c3d8                	sw	a4,4(a5)
20103634:	07800713          	li	a4,120
20103638:	b7ba                	sh	a4,42(a5)
2010363a:	03200713          	li	a4,50
2010363e:	02e78423          	sb	a4,40(a5) # 40034028 <_eusrstack+0x1feb4028>
20103642:	02078623          	sb	zero,44(a5)
20103646:	02078823          	sb	zero,48(a5)
2010364a:	5bb8                	lw	a4,112(a5)
2010364c:	00476713          	ori	a4,a4,4
20103650:	dbb8                	sw	a4,112(a5)
20103652:	4705                	li	a4,1
20103654:	dbf8                	sw	a4,116(a5)
20103656:	00070737          	lui	a4,0x70
2010365a:	02170713          	addi	a4,a4,33 # 70021 <_data_lma+0x69be9>
2010365e:	dbb8                	sw	a4,112(a5)
20103660:	3715                	jal	20103584 <USBSS_CFG_MOD>
20103662:	b07ff0ef          	jal	ra,20103168 <USBSS_Device_Endp_Init>
20103666:	e000e7b7          	lui	a5,0xe000e
2010366a:	40000737          	lui	a4,0x40000
2010366e:	10e7a223          	sw	a4,260(a5) # e000e104 <_eusrstack+0xbfe8e104>
20103672:	80000737          	lui	a4,0x80000
20103676:	10e7a223          	sw	a4,260(a5)
2010367a:	c2ffc06f          	j	201002a8 <__riscv_restore_0>
2010367e:	e000e7b7          	lui	a5,0xe000e
20103682:	800004b7          	lui	s1,0x80000
20103686:	1897a223          	sw	s1,388(a5) # e000e184 <_eusrstack+0xbfe8e184>
2010368a:	0000100f          	fence.i
2010368e:	40000737          	lui	a4,0x40000
20103692:	18e7a223          	sw	a4,388(a5)
20103696:	0000100f          	fence.i
2010369a:	40034437          	lui	s0,0x40034
2010369e:	4791                	li	a5,4
201036a0:	d83c                	sw	a5,112(s0)
201036a2:	401c                	lw	a5,0(s0)
201036a4:	00848713          	addi	a4,s1,8 # 80000008 <_eusrstack+0x5fe80008>
201036a8:	06400513          	li	a0,100
201036ac:	8fd9                	or	a5,a5,a4
201036ae:	c01c                	sw	a5,0(s0)
201036b0:	a6bfd0ef          	jal	ra,2010111a <Delay_Us>
201036b4:	583c                	lw	a5,112(s0)
201036b6:	14dd                	addi	s1,s1,-9
201036b8:	9bed                	andi	a5,a5,-5
201036ba:	d83c                	sw	a5,112(s0)
201036bc:	401c                	lw	a5,0(s0)
201036be:	8fe5                	and	a5,a5,s1
201036c0:	c01c                	sw	a5,0(s0)
201036c2:	a37ff0ef          	jal	ra,201030f8 <USBSS_RCC_Init.part.0>
201036c6:	bf55                	j	2010367a <USBSS_Device_Init+0xa6>

201036c8 <TIM12_IRQHandler>:
201036c8:	1141                	addi	sp,sp,-16
201036ca:	c426                	sw	s1,8(sp)
201036cc:	400144b7          	lui	s1,0x40014
201036d0:	4585                	li	a1,1
201036d2:	c0048513          	addi	a0,s1,-1024 # 40013c00 <_eusrstack+0x1fe93c00>
201036d6:	c622                	sw	s0,12(sp)
201036d8:	915fd0ef          	jal	ra,20100fec <TIM_GetITStatus>
201036dc:	4785                	li	a5,1
201036de:	06f51563          	bne	a0,a5,20103748 <TIM12_IRQHandler+0x80>
201036e2:	842a                	mv	s0,a0
201036e4:	4585                	li	a1,1
201036e6:	c0048513          	addi	a0,s1,-1024
201036ea:	91bfd0ef          	jal	ra,20101004 <TIM_ClearITPendingBit>
201036ee:	201464b7          	lui	s1,0x20146
201036f2:	9504c783          	lbu	a5,-1712(s1) # 20145950 <USB_Enum_Status>
201036f6:	00879e63          	bne	a5,s0,20103712 <TIM12_IRQHandler+0x4a>
201036fa:	20146737          	lui	a4,0x20146
201036fe:	94a74783          	lbu	a5,-1718(a4) # 2014594a <u3_first_count.1>
20103702:	4689                	li	a3,2
20103704:	0785                	addi	a5,a5,1
20103706:	0ff7f793          	zext.b	a5,a5
2010370a:	04f6e463          	bltu	a3,a5,20103752 <TIM12_IRQHandler+0x8a>
2010370e:	94f70523          	sb	a5,-1718(a4)
20103712:	9504c703          	lbu	a4,-1712(s1)
20103716:	478d                	li	a5,3
20103718:	02f71863          	bne	a4,a5,20103748 <TIM12_IRQHandler+0x80>
2010371c:	e000e7b7          	lui	a5,0xe000e
20103720:	40000737          	lui	a4,0x40000
20103724:	18e7a223          	sw	a4,388(a5) # e000e184 <_eusrstack+0xbfe8e184>
20103728:	0000100f          	fence.i
2010372c:	80000737          	lui	a4,0x80000
20103730:	18e7a223          	sw	a4,388(a5)
20103734:	0000100f          	fence.i
20103738:	4501                	li	a0,0
2010373a:	3d69                	jal	201035d4 <USBSS_Device_Init>
2010373c:	4505                	li	a0,1
2010373e:	800ff0ef          	jal	ra,2010273e <USBHS_Device_Init>
20103742:	4501                	li	a0,0
20103744:	b3bff0ef          	jal	ra,2010327e <USB_Timer_Start>
20103748:	4432                	lw	s0,12(sp)
2010374a:	44a2                	lw	s1,8(sp)
2010374c:	0141                	addi	sp,sp,16
2010374e:	30200073          	mret
20103752:	94070523          	sb	zero,-1718(a4) # 7ffff94a <_eusrstack+0x5fe7f94a>
20103756:	e000e7b7          	lui	a5,0xe000e
2010375a:	40000737          	lui	a4,0x40000
2010375e:	18e7a223          	sw	a4,388(a5) # e000e184 <_eusrstack+0xbfe8e184>
20103762:	0000100f          	fence.i
20103766:	80000737          	lui	a4,0x80000
2010376a:	18e7a223          	sw	a4,388(a5)
2010376e:	0000100f          	fence.i
20103772:	4501                	li	a0,0
20103774:	3585                	jal	201035d4 <USBSS_Device_Init>
20103776:	4505                	li	a0,1
20103778:	fc7fe0ef          	jal	ra,2010273e <USBHS_Device_Init>
2010377c:	4501                	li	a0,0
2010377e:	b01ff0ef          	jal	ra,2010327e <USB_Timer_Start>
20103782:	bf41                	j	20103712 <TIM12_IRQHandler+0x4a>

20103784 <USBSS_LINK_IRQHandler>:
20103784:	40034537          	lui	a0,0x40034
20103788:	b35ff0ef          	jal	ra,201032bc <USBSS_LINK_Handle>
2010378c:	30200073          	mret

20103790 <USBSS_Endp_Clear_Frature>:
20103790:	872a                	mv	a4,a0
20103792:	07057513          	andi	a0,a0,112
20103796:	e121                	bnez	a0,201037d6 <USBSS_Endp_Clear_Frature+0x46>
20103798:	fff70793          	addi	a5,a4,-1 # 7fffffff <_eusrstack+0x5fe7ffff>
2010379c:	60471713          	sext.b	a4,a4
201037a0:	00075e63          	bgez	a4,201037bc <USBSS_Endp_Clear_Frature+0x2c>
201037a4:	07f7f793          	andi	a5,a5,127
201037a8:	40034737          	lui	a4,0x40034
201037ac:	0c070713          	addi	a4,a4,192 # 400340c0 <_eusrstack+0x1feb40c0>
201037b0:	0796                	slli	a5,a5,0x5
201037b2:	97ba                	add	a5,a5,a4
201037b4:	06000713          	li	a4,96
201037b8:	b398                	sb	a4,1(a5)
201037ba:	8082                	ret
201037bc:	40034737          	lui	a4,0x40034
201037c0:	0d070713          	addi	a4,a4,208 # 400340d0 <_eusrstack+0x1feb40d0>
201037c4:	0796                	slli	a5,a5,0x5
201037c6:	97ba                	add	a5,a5,a4
201037c8:	3398                	lbu	a4,1(a5)
201037ca:	06076713          	ori	a4,a4,96
201037ce:	b398                	sb	a4,1(a5)
201037d0:	4741                	li	a4,16
201037d2:	a798                	sb	a4,8(a5)
201037d4:	8082                	ret
201037d6:	0ff00513          	li	a0,255
201037da:	8082                	ret

201037dc <USBSS_Endp_Set_Frature>:
201037dc:	872a                	mv	a4,a0
201037de:	07057513          	andi	a0,a0,112
201037e2:	e915                	bnez	a0,20103816 <USBSS_Endp_Set_Frature+0x3a>
201037e4:	fff70793          	addi	a5,a4,-1
201037e8:	60471713          	sext.b	a4,a4
201037ec:	00075f63          	bgez	a4,2010380a <USBSS_Endp_Set_Frature+0x2e>
201037f0:	07f7f793          	andi	a5,a5,127
201037f4:	40034737          	lui	a4,0x40034
201037f8:	0796                	slli	a5,a5,0x5
201037fa:	0c070713          	addi	a4,a4,192 # 400340c0 <_eusrstack+0x1feb40c0>
201037fe:	97ba                	add	a5,a5,a4
20103800:	3398                	lbu	a4,1(a5)
20103802:	08076713          	ori	a4,a4,128
20103806:	b398                	sb	a4,1(a5)
20103808:	8082                	ret
2010380a:	40034737          	lui	a4,0x40034
2010380e:	0796                	slli	a5,a5,0x5
20103810:	0d070713          	addi	a4,a4,208 # 400340d0 <_eusrstack+0x1feb40d0>
20103814:	b7ed                	j	201037fe <USBSS_Endp_Set_Frature+0x22>
20103816:	0ff00513          	li	a0,255
2010381a:	8082                	ret

2010381c <USBSS_Get_Endp_Status>:
2010381c:	872a                	mv	a4,a0
2010381e:	07057513          	andi	a0,a0,112
20103822:	e139                	bnez	a0,20103868 <USBSS_Get_Endp_Status+0x4c>
20103824:	07f77793          	andi	a5,a4,127
20103828:	c3b1                	beqz	a5,2010386c <USBSS_Get_Endp_Status+0x50>
2010382a:	fff70793          	addi	a5,a4,-1
2010382e:	60471713          	sext.b	a4,a4
20103832:	02075563          	bgez	a4,2010385c <USBSS_Get_Endp_Status+0x40>
20103836:	07f7f793          	andi	a5,a5,127
2010383a:	40034737          	lui	a4,0x40034
2010383e:	0796                	slli	a5,a5,0x5
20103840:	0c070713          	addi	a4,a4,192 # 400340c0 <_eusrstack+0x1feb40c0>
20103844:	97ba                	add	a5,a5,a4
20103846:	339c                	lbu	a5,1(a5)
20103848:	60479793          	sext.b	a5,a5
2010384c:	0207d063          	bgez	a5,2010386c <USBSS_Get_Endp_Status+0x50>
20103850:	201587b7          	lui	a5,0x20158
20103854:	4705                	li	a4,1
20103856:	bee78623          	sb	a4,-1044(a5) # 20157bec <USBSS_EP0_Buf>
2010385a:	8082                	ret
2010385c:	40034737          	lui	a4,0x40034
20103860:	0796                	slli	a5,a5,0x5
20103862:	0d070713          	addi	a4,a4,208 # 400340d0 <_eusrstack+0x1feb40d0>
20103866:	bff9                	j	20103844 <USBSS_Get_Endp_Status+0x28>
20103868:	0ff00513          	li	a0,255
2010386c:	8082                	ret

2010386e <USBSS_IRQHandler>:
2010386e:	400347b7          	lui	a5,0x40034
20103872:	5bf8                	lw	a4,116(a5)
20103874:	1101                	addi	sp,sp,-32
20103876:	ce22                	sw	s0,28(sp)
20103878:	cc26                	sw	s1,24(sp)
2010387a:	ca4a                	sw	s2,20(sp)
2010387c:	c84e                	sw	s3,16(sp)
2010387e:	c652                	sw	s4,12(sp)
20103880:	c456                	sw	s5,8(sp)
20103882:	c25a                	sw	s6,4(sp)
20103884:	00677613          	andi	a2,a4,6
20103888:	4689                	li	a3,2
2010388a:	48d61663          	bne	a2,a3,20103d16 <USBSS_IRQHandler+0x4a8>
2010388e:	20158ab7          	lui	s5,0x20158
20103892:	beca8713          	addi	a4,s5,-1044 # 20157bec <USBSS_EP0_Buf>
20103896:	231c                	lbu	a5,0(a4)
20103898:	201464b7          	lui	s1,0x20146
2010389c:	201465b7          	lui	a1,0x20146
201038a0:	94f48ea3          	sb	a5,-1699(s1) # 2014595d <USBSS_SetupReqType>
201038a4:	331c                	lbu	a5,1(a4)
201038a6:	2336                	lhu	a3,2(a4)
201038a8:	20146437          	lui	s0,0x20146
201038ac:	94f58e23          	sb	a5,-1700(a1) # 2014595c <USBSS_SetupReqCode>
201038b0:	237e                	lhu	a5,6(a4)
201038b2:	235a                	lhu	a4,4(a4)
201038b4:	20148937          	lui	s2,0x20148
201038b8:	94f41b23          	sh	a5,-1706(s0) # 20145956 <USBSS_SetupReqLen>
201038bc:	201467b7          	lui	a5,0x20146
201038c0:	94d79d23          	sh	a3,-1702(a5) # 2014595a <USBSS_SetupReqValue>
201038c4:	201466b7          	lui	a3,0x20146
201038c8:	94e69c23          	sh	a4,-1704(a3) # 20145958 <USBSS_SetupReqIndex>
201038cc:	95d4c983          	lbu	s3,-1699(s1)
201038d0:	bd090613          	addi	a2,s2,-1072 # 20147bd0 <USBSS_Dev_Info>
201038d4:	00060123          	sb	zero,2(a2)
201038d8:	00060323          	sb	zero,6(a2)
201038dc:	0609f993          	andi	s3,s3,96
201038e0:	bd090913          	addi	s2,s2,-1072
201038e4:	beca8a13          	addi	s4,s5,-1044
201038e8:	08098663          	beqz	s3,20103974 <USBSS_IRQHandler+0x106>
201038ec:	95d4c783          	lbu	a5,-1699(s1)
201038f0:	60479793          	sext.b	a5,a5
201038f4:	0607d463          	bgez	a5,2010395c <USBSS_IRQHandler+0xee>
201038f8:	20146a37          	lui	s4,0x20146
201038fc:	960a0513          	addi	a0,s4,-1696 # 20145960 <pUSBSS_Descr>
20103900:	b5afe0ef          	jal	ra,20101c5a <USBSS_UVC_NonStandardReq>
20103904:	0ff57513          	zext.b	a0,a0
20103908:	0ff00793          	li	a5,255
2010390c:	08f50b63          	beq	a0,a5,201039a2 <USBSS_IRQHandler+0x134>
20103910:	95645703          	lhu	a4,-1706(s0)
20103914:	1ff00793          	li	a5,511
20103918:	20000913          	li	s2,512
2010391c:	00e7e663          	bltu	a5,a4,20103928 <USBSS_IRQHandler+0xba>
20103920:	95645903          	lhu	s2,-1706(s0)
20103924:	08094933          	zext.h	s2,s2
20103928:	960a2983          	lw	s3,-1696(s4)
2010392c:	864a                	mv	a2,s2
2010392e:	beca8513          	addi	a0,s5,-1044
20103932:	85ce                	mv	a1,s3
20103934:	99ca                	add	s3,s3,s2
20103936:	97ffc0ef          	jal	ra,201002b4 <memcpy>
2010393a:	973a2023          	sw	s3,-1696(s4)
2010393e:	95d4c783          	lbu	a5,-1699(s1)
20103942:	60479793          	sext.b	a5,a5
20103946:	3a07d563          	bgez	a5,20103cf0 <USBSS_IRQHandler+0x482>
2010394a:	95645783          	lhu	a5,-1706(s0)
2010394e:	34079663          	bnez	a5,20103c9a <USBSS_IRQHandler+0x42c>
20103952:	400347b7          	lui	a5,0x40034
20103956:	00a00737          	lui	a4,0xa00
2010395a:	a8a1                	j	201039b2 <USBSS_IRQHandler+0x144>
2010395c:	95d4c703          	lbu	a4,-1699(s1)
20103960:	02100793          	li	a5,33
20103964:	02f71f63          	bne	a4,a5,201039a2 <USBSS_IRQHandler+0x134>
20103968:	95c5c703          	lbu	a4,-1700(a1)
2010396c:	4785                	li	a5,1
2010396e:	02e79a63          	bne	a5,a4,201039a2 <USBSS_IRQHandler+0x134>
20103972:	b7f1                	j	2010393e <USBSS_IRQHandler+0xd0>
20103974:	95c5c703          	lbu	a4,-1700(a1)
20103978:	45ad                	li	a1,11
2010397a:	0ff77513          	zext.b	a0,a4
2010397e:	00e5ea63          	bltu	a1,a4,20103992 <USBSS_IRQHandler+0x124>
20103982:	20106737          	lui	a4,0x20106
20103986:	b7070713          	addi	a4,a4,-1168 # 20105b70 <yuv_uxga+0x194>
2010398a:	20e54733          	sh2add	a4,a0,a4
2010398e:	4318                	lw	a4,0(a4)
20103990:	8702                	jr	a4
20103992:	03000713          	li	a4,48
20103996:	fae504e3          	beq	a0,a4,2010393e <USBSS_IRQHandler+0xd0>
2010399a:	03100713          	li	a4,49
2010399e:	14e50463          	beq	a0,a4,20103ae6 <USBSS_IRQHandler+0x278>
201039a2:	00400737          	lui	a4,0x400
201039a6:	400347b7          	lui	a5,0x40034
201039aa:	08e7a223          	sw	a4,132(a5) # 40034084 <_eusrstack+0x1feb4084>
201039ae:	00c00737          	lui	a4,0xc00
201039b2:	08e7a423          	sw	a4,136(a5)
201039b6:	ae39                	j	20103cd4 <USBSS_IRQHandler+0x466>
201039b8:	95a7d703          	lhu	a4,-1702(a5)
201039bc:	46b9                	li	a3,14
201039be:	20146937          	lui	s2,0x20146
201039c2:	8321                	srli	a4,a4,0x8
201039c4:	177d                	addi	a4,a4,-1 # bfffff <_data_lma+0xbf9bc7>
201039c6:	0ff77713          	zext.b	a4,a4
201039ca:	0ae6e663          	bltu	a3,a4,20103a76 <USBSS_IRQHandler+0x208>
201039ce:	201066b7          	lui	a3,0x20106
201039d2:	ba068693          	addi	a3,a3,-1120 # 20105ba0 <yuv_uxga+0x1c4>
201039d6:	20d74733          	sh2add	a4,a4,a3
201039da:	4318                	lw	a4,0(a4)
201039dc:	8702                	jr	a4
201039de:	201067b7          	lui	a5,0x20106
201039e2:	e7078793          	addi	a5,a5,-400 # 20105e70 <SS_DeviceDescriptor>
201039e6:	96f92023          	sw	a5,-1696(s2) # 20145960 <pUSBSS_Descr>
201039ea:	239c                	lbu	a5,0(a5)
201039ec:	a825                	j	20103a24 <USBSS_IRQHandler+0x1b6>
201039ee:	201067b7          	lui	a5,0x20106
201039f2:	c7c78793          	addi	a5,a5,-900 # 20105c7c <SS_ConfigDescriptor>
201039f6:	23b8                	lbu	a4,2(a5)
201039f8:	96f92023          	sw	a5,-1696(s2)
201039fc:	33bc                	lbu	a5,3(a5)
201039fe:	07a2                	slli	a5,a5,0x8
20103a00:	8fd9                	or	a5,a5,a4
20103a02:	a00d                	j	20103a24 <USBSS_IRQHandler+0x1b6>
20103a04:	95a7d783          	lhu	a5,-1702(a5)
20103a08:	4709                	li	a4,2
20103a0a:	0ff7f793          	zext.b	a5,a5
20103a0e:	06e78d63          	beq	a5,a4,20103a88 <USBSS_IRQHandler+0x21a>
20103a12:	04f76b63          	bltu	a4,a5,20103a68 <USBSS_IRQHandler+0x1fa>
20103a16:	e7a5                	bnez	a5,20103a7e <USBSS_IRQHandler+0x210>
20103a18:	83c18793          	addi	a5,gp,-1988 # 201318cc <MyLangDescr>
20103a1c:	96f92023          	sw	a5,-1696(s2)
20103a20:	239c                	lbu	a5,0(a5)
20103a22:	4981                	li	s3,0
20103a24:	95645703          	lhu	a4,-1706(s0)
20103a28:	00e7f463          	bgeu	a5,a4,20103a30 <USBSS_IRQHandler+0x1c2>
20103a2c:	94f41b23          	sh	a5,-1706(s0)
20103a30:	95645703          	lhu	a4,-1706(s0)
20103a34:	1ff00793          	li	a5,511
20103a38:	20000a13          	li	s4,512
20103a3c:	00e7e663          	bltu	a5,a4,20103a48 <USBSS_IRQHandler+0x1da>
20103a40:	95645a03          	lhu	s4,-1706(s0)
20103a44:	080a4a33          	zext.h	s4,s4
20103a48:	96092b03          	lw	s6,-1696(s2)
20103a4c:	8652                	mv	a2,s4
20103a4e:	beca8513          	addi	a0,s5,-1044
20103a52:	85da                	mv	a1,s6
20103a54:	9b52                	add	s6,s6,s4
20103a56:	85ffc0ef          	jal	ra,201002b4 <memcpy>
20103a5a:	97692023          	sw	s6,-1696(s2)
20103a5e:	0ff00793          	li	a5,255
20103a62:	f4f980e3          	beq	s3,a5,201039a2 <USBSS_IRQHandler+0x134>
20103a66:	bde1                	j	2010393e <USBSS_IRQHandler+0xd0>
20103a68:	470d                	li	a4,3
20103a6a:	02e78463          	beq	a5,a4,20103a92 <USBSS_IRQHandler+0x224>
20103a6e:	0ee00713          	li	a4,238
20103a72:	02e78563          	beq	a5,a4,20103a9c <USBSS_IRQHandler+0x22e>
20103a76:	4781                	li	a5,0
20103a78:	0ff00993          	li	s3,255
20103a7c:	b765                	j	20103a24 <USBSS_IRQHandler+0x1b6>
20103a7e:	201067b7          	lui	a5,0x20106
20103a82:	c5478793          	addi	a5,a5,-940 # 20105c54 <MyManuInfo>
20103a86:	b785                	j	201039e6 <USBSS_IRQHandler+0x178>
20103a88:	201067b7          	lui	a5,0x20106
20103a8c:	c3478793          	addi	a5,a5,-972 # 20105c34 <MyProdInfo>
20103a90:	bf99                	j	201039e6 <USBSS_IRQHandler+0x178>
20103a92:	201067b7          	lui	a5,0x20106
20103a96:	c1c78793          	addi	a5,a5,-996 # 20105c1c <MySerNumInfo>
20103a9a:	b7b1                	j	201039e6 <USBSS_IRQHandler+0x178>
20103a9c:	201067b7          	lui	a5,0x20106
20103aa0:	c0878793          	addi	a5,a5,-1016 # 20105c08 <OSStringDescriptor>
20103aa4:	b789                	j	201039e6 <USBSS_IRQHandler+0x178>
20103aa6:	201067b7          	lui	a5,0x20106
20103aaa:	e8478793          	addi	a5,a5,-380 # 20105e84 <MyQuaDesc>
20103aae:	bf25                	j	201039e6 <USBSS_IRQHandler+0x178>
20103ab0:	201067b7          	lui	a5,0x20106
20103ab4:	bf078793          	addi	a5,a5,-1040 # 20105bf0 <MyBOSDesc_SS>
20103ab8:	bf3d                	j	201039f6 <USBSS_IRQHandler+0x188>
20103aba:	95a7d783          	lhu	a5,-1702(a5)
20103abe:	4705                	li	a4,1
20103ac0:	00e90123          	sb	a4,2(s2)
20103ac4:	00f901a3          	sb	a5,3(s2)
20103ac8:	bd9d                	j	2010393e <USBSS_IRQHandler+0xd0>
20103aca:	201467b7          	lui	a5,0x20146
20103ace:	9557c783          	lbu	a5,-1707(a5) # 20145955 <USBSS_DevConfig>
20103ad2:	00fa0023          	sb	a5,0(s4)
20103ad6:	95645703          	lhu	a4,-1706(s0)
20103ada:	4785                	li	a5,1
20103adc:	e6e7f1e3          	bgeu	a5,a4,2010393e <USBSS_IRQHandler+0xd0>
20103ae0:	94f41b23          	sh	a5,-1706(s0)
20103ae4:	bda9                	j	2010393e <USBSS_IRQHandler+0xd0>
20103ae6:	95a7d783          	lhu	a5,-1702(a5)
20103aea:	4705                	li	a4,1
20103aec:	a278                	sb	a4,6(a2)
20103aee:	b27c                	sb	a5,7(a2)
20103af0:	b5b9                	j	2010393e <USBSS_IRQHandler+0xd0>
20103af2:	95a7d683          	lhu	a3,-1702(a5)
20103af6:	20146737          	lui	a4,0x20146
20103afa:	0ff6f693          	zext.b	a3,a3
20103afe:	94d70aa3          	sb	a3,-1707(a4) # 20145955 <USBSS_DevConfig>
20103b02:	95574683          	lbu	a3,-1707(a4)
20103b06:	ca85                	beqz	a3,20103b36 <USBSS_IRQHandler+0x2c8>
20103b08:	201066b7          	lui	a3,0x20106
20103b0c:	c816c683          	lbu	a3,-895(a3) # 20105c81 <SS_ConfigDescriptor+0x5>
20103b10:	95574603          	lbu	a2,-1707(a4)
20103b14:	02c68163          	beq	a3,a2,20103b36 <USBSS_IRQHandler+0x2c8>
20103b18:	94d70aa3          	sb	a3,-1707(a4)
20103b1c:	95574703          	lbu	a4,-1707(a4)
20103b20:	95a7d783          	lhu	a5,-1702(a5)
20103b24:	0ff7f793          	zext.b	a5,a5
20103b28:	e6f70de3          	beq	a4,a5,201039a2 <USBSS_IRQHandler+0x134>
20103b2c:	00090023          	sb	zero,0(s2)
20103b30:	000900a3          	sb	zero,1(s2)
20103b34:	b5bd                	j	201039a2 <USBSS_IRQHandler+0x134>
20103b36:	95574603          	lbu	a2,-1707(a4)
20103b3a:	201466b7          	lui	a3,0x20146
20103b3e:	e205                	bnez	a2,20103b5e <USBSS_IRQHandler+0x2f0>
20103b40:	940689a3          	sb	zero,-1709(a3) # 20145953 <USBSS_DevEnumStatus>
20103b44:	95574703          	lbu	a4,-1707(a4)
20103b48:	95a7d783          	lhu	a5,-1702(a5)
20103b4c:	0ff7f793          	zext.b	a5,a5
20103b50:	def707e3          	beq	a4,a5,2010393e <USBSS_IRQHandler+0xd0>
20103b54:	00090023          	sb	zero,0(s2)
20103b58:	000900a3          	sb	zero,1(s2)
20103b5c:	b3cd                	j	2010393e <USBSS_IRQHandler+0xd0>
20103b5e:	4605                	li	a2,1
20103b60:	94c689a3          	sb	a2,-1709(a3)
20103b64:	b7c5                	j	20103b44 <USBSS_IRQHandler+0x2d6>
20103b66:	95d4c703          	lbu	a4,-1699(s1)
20103b6a:	8b7d                	andi	a4,a4,31
20103b6c:	e321                	bnez	a4,20103bac <USBSS_IRQHandler+0x33e>
20103b6e:	95a7d703          	lhu	a4,-1702(a5)
20103b72:	4685                	li	a3,1
20103b74:	0ff77713          	zext.b	a4,a4
20103b78:	00d71b63          	bne	a4,a3,20103b8e <USBSS_IRQHandler+0x320>
20103b7c:	20146737          	lui	a4,0x20146
20103b80:	95474783          	lbu	a5,-1708(a4) # 20145954 <USBSS_DevSleepStatus>
20103b84:	0fe7f793          	andi	a5,a5,254
20103b88:	94f70a23          	sb	a5,-1708(a4)
20103b8c:	bb4d                	j	2010393e <USBSS_IRQHandler+0xd0>
20103b8e:	95a7d703          	lhu	a4,-1702(a5)
20103b92:	03000693          	li	a3,48
20103b96:	0ff77713          	zext.b	a4,a4
20103b9a:	dad702e3          	beq	a4,a3,2010393e <USBSS_IRQHandler+0xd0>
20103b9e:	95a7d783          	lhu	a5,-1702(a5)
20103ba2:	03100713          	li	a4,49
20103ba6:	0ff7f793          	zext.b	a5,a5
20103baa:	b3d1                	j	2010396e <USBSS_IRQHandler+0x100>
20103bac:	95d4c703          	lbu	a4,-1699(s1)
20103bb0:	4609                	li	a2,2
20103bb2:	8b7d                	andi	a4,a4,31
20103bb4:	dec717e3          	bne	a4,a2,201039a2 <USBSS_IRQHandler+0x134>
20103bb8:	95a7d783          	lhu	a5,-1702(a5)
20103bbc:	0ff7f793          	zext.b	a5,a5
20103bc0:	de0791e3          	bnez	a5,201039a2 <USBSS_IRQHandler+0x134>
20103bc4:	9586d503          	lhu	a0,-1704(a3)
20103bc8:	0ff57513          	zext.b	a0,a0
20103bcc:	bc5ff0ef          	jal	ra,20103790 <USBSS_Endp_Clear_Frature>
20103bd0:	b3bd                	j	2010393e <USBSS_IRQHandler+0xd0>
20103bd2:	95d4c703          	lbu	a4,-1699(s1)
20103bd6:	8b7d                	andi	a4,a4,31
20103bd8:	e305                	bnez	a4,20103bf8 <USBSS_IRQHandler+0x38a>
20103bda:	95a7d703          	lhu	a4,-1702(a5)
20103bde:	03000693          	li	a3,48
20103be2:	0ff77713          	zext.b	a4,a4
20103be6:	fad71ce3          	bne	a4,a3,20103b9e <USBSS_IRQHandler+0x330>
20103bea:	201467b7          	lui	a5,0x20146
20103bee:	9537c783          	lbu	a5,-1709(a5) # 20145953 <USBSS_DevEnumStatus>
20103bf2:	d40796e3          	bnez	a5,2010393e <USBSS_IRQHandler+0xd0>
20103bf6:	b375                	j	201039a2 <USBSS_IRQHandler+0x134>
20103bf8:	95d4c703          	lbu	a4,-1699(s1)
20103bfc:	4609                	li	a2,2
20103bfe:	8b7d                	andi	a4,a4,31
20103c00:	d2c71fe3          	bne	a4,a2,2010393e <USBSS_IRQHandler+0xd0>
20103c04:	95a7d783          	lhu	a5,-1702(a5)
20103c08:	0ff7f793          	zext.b	a5,a5
20103c0c:	d20799e3          	bnez	a5,2010393e <USBSS_IRQHandler+0xd0>
20103c10:	9586d503          	lhu	a0,-1704(a3)
20103c14:	0ff57513          	zext.b	a0,a0
20103c18:	bc5ff0ef          	jal	ra,201037dc <USBSS_Endp_Set_Frature>
20103c1c:	b30d                	j	2010393e <USBSS_IRQHandler+0xd0>
20103c1e:	40034737          	lui	a4,0x40034
20103c22:	0c174783          	lbu	a5,193(a4) # 400340c1 <_eusrstack+0x1feb40c1>
20103c26:	0207e793          	ori	a5,a5,32
20103c2a:	0cf700a3          	sb	a5,193(a4)
20103c2e:	e2afd0ef          	jal	ra,20101258 <SS_CtrlCamera>
20103c32:	b331                	j	2010393e <USBSS_IRQHandler+0xd0>
20103c34:	000a0023          	sb	zero,0(s4)
20103c38:	bd79                	j	20103ad6 <USBSS_IRQHandler+0x268>
20103c3a:	95d4c783          	lbu	a5,-1699(s1)
20103c3e:	be0a9623          	sh	zero,-1044(s5)
20103c42:	4709                	li	a4,2
20103c44:	8bfd                	andi	a5,a5,31
20103c46:	02e79d63          	bne	a5,a4,20103c80 <USBSS_IRQHandler+0x412>
20103c4a:	9586d503          	lhu	a0,-1704(a3)
20103c4e:	0ff57513          	zext.b	a0,a0
20103c52:	bcbff0ef          	jal	ra,2010381c <USBSS_Get_Endp_Status>
20103c56:	00194783          	lbu	a5,1(s2)
20103c5a:	00094703          	lbu	a4,0(s2)
20103c5e:	078e                	slli	a5,a5,0x3
20103c60:	070a                	slli	a4,a4,0x2
20103c62:	8fd9                	or	a5,a5,a4
20103c64:	000a4703          	lbu	a4,0(s4)
20103c68:	8fd9                	or	a5,a5,a4
20103c6a:	95645703          	lhu	a4,-1706(s0)
20103c6e:	00fa0023          	sb	a5,0(s4)
20103c72:	4789                	li	a5,2
20103c74:	00e7f463          	bgeu	a5,a4,20103c7c <USBSS_IRQHandler+0x40e>
20103c78:	94f41b23          	sh	a5,-1706(s0)
20103c7c:	89aa                	mv	s3,a0
20103c7e:	b3c5                	j	20103a5e <USBSS_IRQHandler+0x1f0>
20103c80:	95d4c783          	lbu	a5,-1699(s1)
20103c84:	8bfd                	andi	a5,a5,31
20103c86:	fbe1                	bnez	a5,20103c56 <USBSS_IRQHandler+0x3e8>
20103c88:	201467b7          	lui	a5,0x20146
20103c8c:	9547c783          	lbu	a5,-1708(a5) # 20145954 <USBSS_DevSleepStatus>
20103c90:	8b85                	andi	a5,a5,1
20103c92:	d3f1                	beqz	a5,20103c56 <USBSS_IRQHandler+0x3e8>
20103c94:	00ea0023          	sb	a4,0(s4)
20103c98:	bf7d                	j	20103c56 <USBSS_IRQHandler+0x3e8>
20103c9a:	95645703          	lhu	a4,-1706(s0)
20103c9e:	20000793          	li	a5,512
20103ca2:	00e7e663          	bltu	a5,a4,20103cae <USBSS_IRQHandler+0x440>
20103ca6:	95645783          	lhu	a5,-1706(s0)
20103caa:	0807c7b3          	zext.h	a5,a5
20103cae:	95645703          	lhu	a4,-1706(s0)
20103cb2:	8f1d                	sub	a4,a4,a5
20103cb4:	08074733          	zext.h	a4,a4
20103cb8:	94e41b23          	sh	a4,-1706(s0)
20103cbc:	40034737          	lui	a4,0x40034
20103cc0:	29579793          	bseti	a5,a5,0x15
20103cc4:	08f72223          	sw	a5,132(a4) # 40034084 <_eusrstack+0x1feb4084>
20103cc8:	08472783          	lw	a5,132(a4)
20103ccc:	29779793          	bseti	a5,a5,0x17
20103cd0:	08f72223          	sw	a5,132(a4)
20103cd4:	400347b7          	lui	a5,0x40034
20103cd8:	4709                	li	a4,2
20103cda:	dbf8                	sw	a4,116(a5)
20103cdc:	4472                	lw	s0,28(sp)
20103cde:	44e2                	lw	s1,24(sp)
20103ce0:	4952                	lw	s2,20(sp)
20103ce2:	49c2                	lw	s3,16(sp)
20103ce4:	4a32                	lw	s4,12(sp)
20103ce6:	4aa2                	lw	s5,8(sp)
20103ce8:	4b12                	lw	s6,4(sp)
20103cea:	6105                	addi	sp,sp,32
20103cec:	30200073          	mret
20103cf0:	95645783          	lhu	a5,-1706(s0)
20103cf4:	c4079fe3          	bnez	a5,20103952 <USBSS_IRQHandler+0xe4>
20103cf8:	400347b7          	lui	a5,0x40034
20103cfc:	08078793          	addi	a5,a5,128 # 40034080 <_eusrstack+0x1feb4080>
20103d00:	00200737          	lui	a4,0x200
20103d04:	c3d8                	sw	a4,4(a5)
20103d06:	43d8                	lw	a4,4(a5)
20103d08:	29771713          	bseti	a4,a4,0x17
20103d0c:	c3d8                	sw	a4,4(a5)
20103d0e:	00a00737          	lui	a4,0xa00
20103d12:	c798                	sw	a4,8(a5)
20103d14:	b7c1                	j	20103cd4 <USBSS_IRQHandler+0x466>
20103d16:	00477693          	andi	a3,a4,4
20103d1a:	ce9d                	beqz	a3,20103d58 <USBSS_IRQHandler+0x4ea>
20103d1c:	4711                	li	a4,4
20103d1e:	20148437          	lui	s0,0x20148
20103d22:	dbf8                	sw	a4,116(a5)
20103d24:	bd040413          	addi	s0,s0,-1072 # 20147bd0 <USBSS_Dev_Info>
20103d28:	2038                	lbu	a4,2(s0)
20103d2a:	cf19                	beqz	a4,20103d48 <USBSS_IRQHandler+0x4da>
20103d2c:	3028                	lbu	a0,3(s0)
20103d2e:	400345b7          	lui	a1,0x40034
20103d32:	841ff0ef          	jal	ra,20103572 <SET_Device_Address>
20103d36:	00040123          	sb	zero,2(s0)
20103d3a:	400347b7          	lui	a5,0x40034
20103d3e:	0807a223          	sw	zero,132(a5) # 40034084 <_eusrstack+0x1feb4084>
20103d42:	0807a423          	sw	zero,136(a5)
20103d46:	bf59                	j	20103cdc <USBSS_IRQHandler+0x46e>
20103d48:	2078                	lbu	a4,6(s0)
20103d4a:	db65                	beqz	a4,20103d3a <USBSS_IRQHandler+0x4cc>
20103d4c:	3078                	lbu	a4,7(s0)
20103d4e:	04e79023          	sh	a4,64(a5)
20103d52:	00040323          	sb	zero,6(s0)
20103d56:	b7d5                	j	20103d3a <USBSS_IRQHandler+0x4cc>
20103d58:	00177693          	andi	a3,a4,1
20103d5c:	d2c1                	beqz	a3,20103cdc <USBSS_IRQHandler+0x46e>
20103d5e:	6605                	lui	a2,0x1
20103d60:	00875693          	srli	a3,a4,0x8
20103d64:	8f71                	and	a4,a4,a2
20103d66:	8a9d                	andi	a3,a3,7
20103d68:	cf45                	beqz	a4,20103e20 <USBSS_IRQHandler+0x5b2>
20103d6a:	ce89                	beqz	a3,20103d84 <USBSS_IRQHandler+0x516>
20103d6c:	4705                	li	a4,1
20103d6e:	f6e697e3          	bne	a3,a4,20103cdc <USBSS_IRQHandler+0x46e>
20103d72:	0c57c703          	lbu	a4,197(a5)
20103d76:	04076713          	ori	a4,a4,64
20103d7a:	0ce782a3          	sb	a4,197(a5)
20103d7e:	9fdfd0ef          	jal	ra,2010177a <SS_Endp1_Hander>
20103d82:	bfa9                	j	20103cdc <USBSS_IRQHandler+0x46e>
20103d84:	201464b7          	lui	s1,0x20146
20103d88:	9564d703          	lhu	a4,-1706(s1) # 20145956 <USBSS_SetupReqLen>
20103d8c:	eb11                	bnez	a4,20103da0 <USBSS_IRQHandler+0x532>
20103d8e:	00200737          	lui	a4,0x200
20103d92:	08e7a223          	sw	a4,132(a5)
20103d96:	00a00737          	lui	a4,0xa00
20103d9a:	08e7a423          	sw	a4,136(a5)
20103d9e:	bf3d                	j	20103cdc <USBSS_IRQHandler+0x46e>
20103da0:	20146737          	lui	a4,0x20146
20103da4:	95c74683          	lbu	a3,-1700(a4) # 2014595c <USBSS_SetupReqCode>
20103da8:	4719                	li	a4,6
20103daa:	06e69663          	bne	a3,a4,20103e16 <USBSS_IRQHandler+0x5a8>
20103dae:	9564d703          	lhu	a4,-1706(s1)
20103db2:	1ff00793          	li	a5,511
20103db6:	20000413          	li	s0,512
20103dba:	00e7e663          	bltu	a5,a4,20103dc6 <USBSS_IRQHandler+0x558>
20103dbe:	9564d403          	lhu	s0,-1706(s1)
20103dc2:	08044433          	zext.h	s0,s0
20103dc6:	201469b7          	lui	s3,0x20146
20103dca:	9609a903          	lw	s2,-1696(s3) # 20145960 <pUSBSS_Descr>
20103dce:	20158537          	lui	a0,0x20158
20103dd2:	8622                	mv	a2,s0
20103dd4:	85ca                	mv	a1,s2
20103dd6:	bec50513          	addi	a0,a0,-1044 # 20157bec <USBSS_EP0_Buf>
20103dda:	cdafc0ef          	jal	ra,201002b4 <memcpy>
20103dde:	9564d783          	lhu	a5,-1706(s1)
20103de2:	40034737          	lui	a4,0x40034
20103de6:	08070713          	addi	a4,a4,128 # 40034080 <_eusrstack+0x1feb4080>
20103dea:	8f81                	sub	a5,a5,s0
20103dec:	0807c7b3          	zext.h	a5,a5
20103df0:	94f49b23          	sh	a5,-1706(s1)
20103df4:	435c                	lw	a5,4(a4)
20103df6:	9922                	add	s2,s2,s0
20103df8:	9729a023          	sw	s2,-1696(s3)
20103dfc:	83c1                	srli	a5,a5,0x10
20103dfe:	8bfd                	andi	a5,a5,31
20103e00:	0785                	addi	a5,a5,1
20103e02:	07c2                	slli	a5,a5,0x10
20103e04:	8fc1                	or	a5,a5,s0
20103e06:	29579793          	bseti	a5,a5,0x15
20103e0a:	c35c                	sw	a5,4(a4)
20103e0c:	435c                	lw	a5,4(a4)
20103e0e:	29779793          	bseti	a5,a5,0x17
20103e12:	c35c                	sw	a5,4(a4)
20103e14:	b5e1                	j	20103cdc <USBSS_IRQHandler+0x46e>
20103e16:	00200737          	lui	a4,0x200
20103e1a:	08e7a223          	sw	a4,132(a5)
20103e1e:	bd7d                	j	20103cdc <USBSS_IRQHandler+0x46e>
20103e20:	c685                	beqz	a3,20103e48 <USBSS_IRQHandler+0x5da>
20103e22:	4705                	li	a4,1
20103e24:	eae69ce3          	bne	a3,a4,20103cdc <USBSS_IRQHandler+0x46e>
20103e28:	20148737          	lui	a4,0x20148
20103e2c:	bec70713          	addi	a4,a4,-1044 # 20147bec <USBSS_EP1_Rx_Buf>
20103e30:	0ce7ae23          	sw	a4,220(a5)
20103e34:	4741                	li	a4,16
20103e36:	0ce78c23          	sb	a4,216(a5)
20103e3a:	0d57c703          	lbu	a4,213(a5)
20103e3e:	04076713          	ori	a4,a4,64
20103e42:	0ce78aa3          	sb	a4,213(a5)
20103e46:	bd59                	j	20103cdc <USBSS_IRQHandler+0x46e>
20103e48:	00a00737          	lui	a4,0xa00
20103e4c:	08e7a423          	sw	a4,136(a5)
20103e50:	0887a783          	lw	a5,136(a5)
20103e54:	4769                	li	a4,26
20103e56:	7ff7f793          	andi	a5,a5,2047
20103e5a:	e8e791e3          	bne	a5,a4,20103cdc <USBSS_IRQHandler+0x46e>
20103e5e:	20158737          	lui	a4,0x20158
20103e62:	bec70713          	addi	a4,a4,-1044 # 20157bec <USBSS_EP0_Buf>
20103e66:	20146437          	lui	s0,0x20146
20103e6a:	233c                	lbu	a5,2(a4)
20103e6c:	3334                	lbu	a3,3(a4)
20103e6e:	95244703          	lbu	a4,-1710(s0) # 20145952 <format.1>
20103e72:	201464b7          	lui	s1,0x20146
20103e76:	00f71663          	bne	a4,a5,20103e82 <USBSS_IRQHandler+0x614>
20103e7a:	9514c703          	lbu	a4,-1711(s1) # 20145951 <frame.0>
20103e7e:	e4d70fe3          	beq	a4,a3,20103cdc <USBSS_IRQHandler+0x46e>
20103e82:	20130737          	lui	a4,0x20130
20103e86:	18070713          	addi	a4,a4,384 # 20130180 <Get_Curr>
20103e8a:	a33c                	sb	a5,2(a4)
20103e8c:	b334                	sb	a3,3(a4)
20103e8e:	82f18023          	sb	a5,-2016(gp) # 201318b0 <Formatchange_flag>
20103e92:	8201c503          	lbu	a0,-2016(gp) # 201318b0 <Formatchange_flag>
20103e96:	94f40923          	sb	a5,-1710(s0)
20103e9a:	94d488a3          	sb	a3,-1711(s1)
20103e9e:	d04fe0ef          	jal	ra,201023a2 <OV2640_Format_Mode>
20103ea2:	9514c583          	lbu	a1,-1711(s1)
20103ea6:	95244503          	lbu	a0,-1710(s0)
20103eaa:	e24fe0ef          	jal	ra,201024ce <OV2640_Change_Resolution>
20103eae:	b53d                	j	20103cdc <USBSS_IRQHandler+0x46e>

20103eb0 <Hardware>:
20103eb0:	bd4fc2ef          	jal	t0,20100284 <__riscv_save_0>
20103eb4:	4585                	li	a1,1
20103eb6:	4505                	li	a0,1
20103eb8:	84cfd0ef          	jal	ra,20100f04 <RCC_HB2PeriphClockCmd>
20103ebc:	4585                	li	a1,1
20103ebe:	80000537          	lui	a0,0x80000
20103ec2:	85efd0ef          	jal	ra,20100f20 <RCC_HB1PeriphClockCmd>
20103ec6:	4505                	li	a0,1
20103ec8:	908fd0ef          	jal	ra,20100fd0 <SWPMI_BypassCmd>
20103ecc:	20106437          	lui	s0,0x20106
20103ed0:	c2cfe0ef          	jal	ra,201022fc <OV2640_Init>
20103ed4:	e909                	bnez	a0,20103ee6 <Hardware+0x36>
20103ed6:	f7bfd0ef          	jal	ra,20101e50 <dvp_Init>
20103eda:	b42ff0ef          	jal	ra,2010321c <USB_Timer_Init>
20103ede:	4505                	li	a0,1
20103ee0:	ef4ff0ef          	jal	ra,201035d4 <USBSS_Device_Init>
20103ee4:	a001                	j	20103ee4 <Hardware+0x34>
20103ee6:	bdc40513          	addi	a0,s0,-1060 # 20105bdc <yuv_uxga+0x200>
20103eea:	21d5                	jal	201043ce <puts>
20103eec:	1f400513          	li	a0,500
20103ef0:	a60fd0ef          	jal	ra,20101150 <Delay_Ms>
20103ef4:	bff1                	j	20103ed0 <Hardware+0x20>

20103ef6 <__udivdi3>:
20103ef6:	8832                	mv	a6,a2
20103ef8:	88aa                	mv	a7,a0
20103efa:	872e                	mv	a4,a1
20103efc:	eacd                	bnez	a3,20103fae <__udivdi3+0xb8>
20103efe:	0ec5ff63          	bgeu	a1,a2,20103ffc <__udivdi3+0x106>
20103f02:	67c1                	lui	a5,0x10
20103f04:	18f66a63          	bltu	a2,a5,20104098 <__udivdi3+0x1a2>
20103f08:	010007b7          	lui	a5,0x1000
20103f0c:	00f637b3          	sltu	a5,a2,a5
20103f10:	40f007b3          	neg	a5,a5
20103f14:	9be1                	andi	a5,a5,-8
20103f16:	07e1                	addi	a5,a5,24 # 1000018 <_data_lma+0xff9be0>
20103f18:	00f65333          	srl	t1,a2,a5
20103f1c:	00002697          	auipc	a3,0x2
20103f20:	1b068693          	addi	a3,a3,432 # 201060cc <__clz_tab>
20103f24:	969a                	add	a3,a3,t1
20103f26:	2294                	lbu	a3,0(a3)
20103f28:	02000313          	li	t1,32
20103f2c:	97b6                	add	a5,a5,a3
20103f2e:	40f306b3          	sub	a3,t1,a5
20103f32:	00f30b63          	beq	t1,a5,20103f48 <__udivdi3+0x52>
20103f36:	00d59733          	sll	a4,a1,a3
20103f3a:	00f557b3          	srl	a5,a0,a5
20103f3e:	00d61833          	sll	a6,a2,a3
20103f42:	8f5d                	or	a4,a4,a5
20103f44:	00d518b3          	sll	a7,a0,a3
20103f48:	01085613          	srli	a2,a6,0x10
20103f4c:	02c75533          	divu	a0,a4,a2
20103f50:	080846b3          	zext.h	a3,a6
20103f54:	0108d793          	srli	a5,a7,0x10
20103f58:	02c77733          	remu	a4,a4,a2
20103f5c:	02a685b3          	mul	a1,a3,a0
20103f60:	0742                	slli	a4,a4,0x10
20103f62:	8fd9                	or	a5,a5,a4
20103f64:	00b7fa63          	bgeu	a5,a1,20103f78 <__udivdi3+0x82>
20103f68:	97c2                	add	a5,a5,a6
20103f6a:	fff50713          	addi	a4,a0,-1 # 7fffffff <_eusrstack+0x5fe7ffff>
20103f6e:	0107e463          	bltu	a5,a6,20103f76 <__udivdi3+0x80>
20103f72:	30b7e863          	bltu	a5,a1,20104282 <__udivdi3+0x38c>
20103f76:	853a                	mv	a0,a4
20103f78:	8f8d                	sub	a5,a5,a1
20103f7a:	02c7d733          	divu	a4,a5,a2
20103f7e:	0808c8b3          	zext.h	a7,a7
20103f82:	02c7f7b3          	remu	a5,a5,a2
20103f86:	02e686b3          	mul	a3,a3,a4
20103f8a:	07c2                	slli	a5,a5,0x10
20103f8c:	00f8e8b3          	or	a7,a7,a5
20103f90:	00d8fb63          	bgeu	a7,a3,20103fa6 <__udivdi3+0xb0>
20103f94:	98c2                	add	a7,a7,a6
20103f96:	fff70793          	addi	a5,a4,-1
20103f9a:	0108e563          	bltu	a7,a6,20103fa4 <__udivdi3+0xae>
20103f9e:	1779                	addi	a4,a4,-2
20103fa0:	00d8e363          	bltu	a7,a3,20103fa6 <__udivdi3+0xb0>
20103fa4:	873e                	mv	a4,a5
20103fa6:	0542                	slli	a0,a0,0x10
20103fa8:	8d59                	or	a0,a0,a4
20103faa:	4581                	li	a1,0
20103fac:	8082                	ret
20103fae:	00d5f563          	bgeu	a1,a3,20103fb8 <__udivdi3+0xc2>
20103fb2:	4581                	li	a1,0
20103fb4:	4501                	li	a0,0
20103fb6:	8082                	ret
20103fb8:	67c1                	lui	a5,0x10
20103fba:	18f6e563          	bltu	a3,a5,20104144 <__udivdi3+0x24e>
20103fbe:	010007b7          	lui	a5,0x1000
20103fc2:	00f6b7b3          	sltu	a5,a3,a5
20103fc6:	40f007b3          	neg	a5,a5
20103fca:	9be1                	andi	a5,a5,-8
20103fcc:	07e1                	addi	a5,a5,24 # 1000018 <_data_lma+0xff9be0>
20103fce:	00f6d833          	srl	a6,a3,a5
20103fd2:	00002717          	auipc	a4,0x2
20103fd6:	0fa70713          	addi	a4,a4,250 # 201060cc <__clz_tab>
20103fda:	9742                	add	a4,a4,a6
20103fdc:	2318                	lbu	a4,0(a4)
20103fde:	02000893          	li	a7,32
20103fe2:	973e                	add	a4,a4,a5
20103fe4:	40e88833          	sub	a6,a7,a4
20103fe8:	18e89263          	bne	a7,a4,2010416c <__udivdi3+0x276>
20103fec:	26b6ed63          	bltu	a3,a1,20104266 <__udivdi3+0x370>
20103ff0:	00c53533          	sltu	a0,a0,a2
20103ff4:	00154513          	xori	a0,a0,1
20103ff8:	4581                	li	a1,0
20103ffa:	8082                	ret
20103ffc:	c645                	beqz	a2,201040a4 <__udivdi3+0x1ae>
20103ffe:	67c1                	lui	a5,0x10
20104000:	24f67b63          	bgeu	a2,a5,20104256 <__udivdi3+0x360>
20104004:	10063713          	sltiu	a4,a2,256
20104008:	00174713          	xori	a4,a4,1
2010400c:	070e                	slli	a4,a4,0x3
2010400e:	00e656b3          	srl	a3,a2,a4
20104012:	00002797          	auipc	a5,0x2
20104016:	0ba78793          	addi	a5,a5,186 # 201060cc <__clz_tab>
2010401a:	97b6                	add	a5,a5,a3
2010401c:	239c                	lbu	a5,0(a5)
2010401e:	02000693          	li	a3,32
20104022:	97ba                	add	a5,a5,a4
20104024:	40f68eb3          	sub	t4,a3,a5
20104028:	08f69d63          	bne	a3,a5,201040c2 <__udivdi3+0x1cc>
2010402c:	40c587b3          	sub	a5,a1,a2
20104030:	4585                	li	a1,1
20104032:	01065693          	srli	a3,a2,0x10
20104036:	08064633          	zext.h	a2,a2
2010403a:	02d7d533          	divu	a0,a5,a3
2010403e:	0108d713          	srli	a4,a7,0x10
20104042:	02d7f7b3          	remu	a5,a5,a3
20104046:	02c50333          	mul	t1,a0,a2
2010404a:	07c2                	slli	a5,a5,0x10
2010404c:	8fd9                	or	a5,a5,a4
2010404e:	0067fa63          	bgeu	a5,t1,20104062 <__udivdi3+0x16c>
20104052:	97c2                	add	a5,a5,a6
20104054:	fff50713          	addi	a4,a0,-1
20104058:	0107e463          	bltu	a5,a6,20104060 <__udivdi3+0x16a>
2010405c:	2267e063          	bltu	a5,t1,2010427c <__udivdi3+0x386>
20104060:	853a                	mv	a0,a4
20104062:	406787b3          	sub	a5,a5,t1
20104066:	02d7d733          	divu	a4,a5,a3
2010406a:	0808c8b3          	zext.h	a7,a7
2010406e:	02d7f7b3          	remu	a5,a5,a3
20104072:	02c70633          	mul	a2,a4,a2
20104076:	07c2                	slli	a5,a5,0x10
20104078:	00f8e8b3          	or	a7,a7,a5
2010407c:	00c8fb63          	bgeu	a7,a2,20104092 <__udivdi3+0x19c>
20104080:	98c2                	add	a7,a7,a6
20104082:	fff70793          	addi	a5,a4,-1
20104086:	0108e563          	bltu	a7,a6,20104090 <__udivdi3+0x19a>
2010408a:	1779                	addi	a4,a4,-2
2010408c:	00c8e363          	bltu	a7,a2,20104092 <__udivdi3+0x19c>
20104090:	873e                	mv	a4,a5
20104092:	0542                	slli	a0,a0,0x10
20104094:	8d59                	or	a0,a0,a4
20104096:	8082                	ret
20104098:	10063793          	sltiu	a5,a2,256
2010409c:	0017c793          	xori	a5,a5,1
201040a0:	078e                	slli	a5,a5,0x3
201040a2:	bd9d                	j	20103f18 <__udivdi3+0x22>
201040a4:	4681                	li	a3,0
201040a6:	00002797          	auipc	a5,0x2
201040aa:	02678793          	addi	a5,a5,38 # 201060cc <__clz_tab>
201040ae:	97b6                	add	a5,a5,a3
201040b0:	239c                	lbu	a5,0(a5)
201040b2:	4701                	li	a4,0
201040b4:	02000693          	li	a3,32
201040b8:	97ba                	add	a5,a5,a4
201040ba:	40f68eb3          	sub	t4,a3,a5
201040be:	f6f687e3          	beq	a3,a5,2010402c <__udivdi3+0x136>
201040c2:	01d61833          	sll	a6,a2,t4
201040c6:	00f5d333          	srl	t1,a1,a5
201040ca:	01085693          	srli	a3,a6,0x10
201040ce:	02d35e33          	divu	t3,t1,a3
201040d2:	01d595b3          	sll	a1,a1,t4
201040d6:	00f557b3          	srl	a5,a0,a5
201040da:	8fcd                	or	a5,a5,a1
201040dc:	08084633          	zext.h	a2,a6
201040e0:	0107d713          	srli	a4,a5,0x10
201040e4:	01d518b3          	sll	a7,a0,t4
201040e8:	02d37333          	remu	t1,t1,a3
201040ec:	03c605b3          	mul	a1,a2,t3
201040f0:	0342                	slli	t1,t1,0x10
201040f2:	00676733          	or	a4,a4,t1
201040f6:	00b77b63          	bgeu	a4,a1,2010410c <__udivdi3+0x216>
201040fa:	9742                	add	a4,a4,a6
201040fc:	fffe0513          	addi	a0,t3,-1
20104100:	17076a63          	bltu	a4,a6,20104274 <__udivdi3+0x37e>
20104104:	16b77863          	bgeu	a4,a1,20104274 <__udivdi3+0x37e>
20104108:	1e79                	addi	t3,t3,-2
2010410a:	9742                	add	a4,a4,a6
2010410c:	8f0d                	sub	a4,a4,a1
2010410e:	02d75533          	divu	a0,a4,a3
20104112:	0807c7b3          	zext.h	a5,a5
20104116:	02d77733          	remu	a4,a4,a3
2010411a:	02a60333          	mul	t1,a2,a0
2010411e:	0742                	slli	a4,a4,0x10
20104120:	8fd9                	or	a5,a5,a4
20104122:	0067fb63          	bgeu	a5,t1,20104138 <__udivdi3+0x242>
20104126:	97c2                	add	a5,a5,a6
20104128:	fff50713          	addi	a4,a0,-1
2010412c:	1507e063          	bltu	a5,a6,2010426c <__udivdi3+0x376>
20104130:	1267fe63          	bgeu	a5,t1,2010426c <__udivdi3+0x376>
20104134:	1579                	addi	a0,a0,-2
20104136:	97c2                	add	a5,a5,a6
20104138:	010e1593          	slli	a1,t3,0x10
2010413c:	406787b3          	sub	a5,a5,t1
20104140:	8dc9                	or	a1,a1,a0
20104142:	bde5                	j	2010403a <__udivdi3+0x144>
20104144:	1006b793          	sltiu	a5,a3,256
20104148:	0017c793          	xori	a5,a5,1
2010414c:	078e                	slli	a5,a5,0x3
2010414e:	00f6d833          	srl	a6,a3,a5
20104152:	00002717          	auipc	a4,0x2
20104156:	f7a70713          	addi	a4,a4,-134 # 201060cc <__clz_tab>
2010415a:	9742                	add	a4,a4,a6
2010415c:	2318                	lbu	a4,0(a4)
2010415e:	02000893          	li	a7,32
20104162:	973e                	add	a4,a4,a5
20104164:	40e88833          	sub	a6,a7,a4
20104168:	e8e882e3          	beq	a7,a4,20103fec <__udivdi3+0xf6>
2010416c:	00e65e33          	srl	t3,a2,a4
20104170:	010696b3          	sll	a3,a3,a6
20104174:	00de6e33          	or	t3,t3,a3
20104178:	00e5d8b3          	srl	a7,a1,a4
2010417c:	010e5e93          	srli	t4,t3,0x10
20104180:	03d8d7b3          	divu	a5,a7,t4
20104184:	010595b3          	sll	a1,a1,a6
20104188:	00e55733          	srl	a4,a0,a4
2010418c:	8f4d                	or	a4,a4,a1
2010418e:	080e4333          	zext.h	t1,t3
20104192:	01075693          	srli	a3,a4,0x10
20104196:	01061633          	sll	a2,a2,a6
2010419a:	03d8f8b3          	remu	a7,a7,t4
2010419e:	02f305b3          	mul	a1,t1,a5
201041a2:	08c2                	slli	a7,a7,0x10
201041a4:	0116e6b3          	or	a3,a3,a7
201041a8:	00b6fb63          	bgeu	a3,a1,201041be <__udivdi3+0x2c8>
201041ac:	96f2                	add	a3,a3,t3
201041ae:	fff78893          	addi	a7,a5,-1
201041b2:	0dc6e363          	bltu	a3,t3,20104278 <__udivdi3+0x382>
201041b6:	0cb6f163          	bgeu	a3,a1,20104278 <__udivdi3+0x382>
201041ba:	17f9                	addi	a5,a5,-2
201041bc:	96f2                	add	a3,a3,t3
201041be:	8e8d                	sub	a3,a3,a1
201041c0:	03d6d5b3          	divu	a1,a3,t4
201041c4:	08074733          	zext.h	a4,a4
201041c8:	03d6f6b3          	remu	a3,a3,t4
201041cc:	02b308b3          	mul	a7,t1,a1
201041d0:	06c2                	slli	a3,a3,0x10
201041d2:	8f55                	or	a4,a4,a3
201041d4:	01177b63          	bgeu	a4,a7,201041ea <__udivdi3+0x2f4>
201041d8:	9772                	add	a4,a4,t3
201041da:	fff58693          	addi	a3,a1,-1 # 40033fff <_eusrstack+0x1feb3fff>
201041de:	09c76963          	bltu	a4,t3,20104270 <__udivdi3+0x37a>
201041e2:	09177763          	bgeu	a4,a7,20104270 <__udivdi3+0x37a>
201041e6:	15f9                	addi	a1,a1,-2
201041e8:	9772                	add	a4,a4,t3
201041ea:	07c2                	slli	a5,a5,0x10
201041ec:	6ec1                	lui	t4,0x10
201041ee:	8fcd                	or	a5,a5,a1
201041f0:	fffe8693          	addi	a3,t4,-1 # ffff <_data_lma+0x9bc7>
201041f4:	00d7f5b3          	and	a1,a5,a3
201041f8:	0107d313          	srli	t1,a5,0x10
201041fc:	8ef1                	and	a3,a3,a2
201041fe:	8241                	srli	a2,a2,0x10
20104200:	02d58e33          	mul	t3,a1,a3
20104204:	41170733          	sub	a4,a4,a7
20104208:	02d306b3          	mul	a3,t1,a3
2010420c:	010e5893          	srli	a7,t3,0x10
20104210:	02c585b3          	mul	a1,a1,a2
20104214:	95b6                	add	a1,a1,a3
20104216:	95c6                	add	a1,a1,a7
20104218:	02c30333          	mul	t1,t1,a2
2010421c:	00d5f363          	bgeu	a1,a3,20104222 <__udivdi3+0x32c>
20104220:	9376                	add	t1,t1,t4
20104222:	0105d693          	srli	a3,a1,0x10
20104226:	969a                	add	a3,a3,t1
20104228:	02d76363          	bltu	a4,a3,2010424e <__udivdi3+0x358>
2010422c:	00d70563          	beq	a4,a3,20104236 <__udivdi3+0x340>
20104230:	853e                	mv	a0,a5
20104232:	4581                	li	a1,0
20104234:	8082                	ret
20104236:	66c1                	lui	a3,0x10
20104238:	16fd                	addi	a3,a3,-1 # ffff <_data_lma+0x9bc7>
2010423a:	00d5f733          	and	a4,a1,a3
2010423e:	0742                	slli	a4,a4,0x10
20104240:	00de7e33          	and	t3,t3,a3
20104244:	01051533          	sll	a0,a0,a6
20104248:	9772                	add	a4,a4,t3
2010424a:	fee573e3          	bgeu	a0,a4,20104230 <__udivdi3+0x33a>
2010424e:	fff78513          	addi	a0,a5,-1
20104252:	4581                	li	a1,0
20104254:	8082                	ret
20104256:	010007b7          	lui	a5,0x1000
2010425a:	02f67763          	bgeu	a2,a5,20104288 <__udivdi3+0x392>
2010425e:	01065693          	srli	a3,a2,0x10
20104262:	4741                	li	a4,16
20104264:	b37d                	j	20104012 <__udivdi3+0x11c>
20104266:	4581                	li	a1,0
20104268:	4505                	li	a0,1
2010426a:	8082                	ret
2010426c:	853a                	mv	a0,a4
2010426e:	b5e9                	j	20104138 <__udivdi3+0x242>
20104270:	85b6                	mv	a1,a3
20104272:	bfa5                	j	201041ea <__udivdi3+0x2f4>
20104274:	8e2a                	mv	t3,a0
20104276:	bd59                	j	2010410c <__udivdi3+0x216>
20104278:	87c6                	mv	a5,a7
2010427a:	b791                	j	201041be <__udivdi3+0x2c8>
2010427c:	1579                	addi	a0,a0,-2
2010427e:	97c2                	add	a5,a5,a6
20104280:	b3cd                	j	20104062 <__udivdi3+0x16c>
20104282:	1579                	addi	a0,a0,-2
20104284:	97c2                	add	a5,a5,a6
20104286:	b9cd                	j	20103f78 <__udivdi3+0x82>
20104288:	01865693          	srli	a3,a2,0x18
2010428c:	4761                	li	a4,24
2010428e:	b351                	j	20104012 <__udivdi3+0x11c>

20104290 <iprintf>:
20104290:	715d                	addi	sp,sp,-80
20104292:	d422                	sw	s0,40(sp)
20104294:	d606                	sw	ra,44(sp)
20104296:	842a                	mv	s0,a0
20104298:	da2e                	sw	a1,52(sp)
2010429a:	dc32                	sw	a2,56(sp)
2010429c:	de36                	sw	a3,60(sp)
2010429e:	c0ba                	sw	a4,64(sp)
201042a0:	c2be                	sw	a5,68(sp)
201042a2:	c4c2                	sw	a6,72(sp)
201042a4:	c6c6                	sw	a7,76(sp)
201042a6:	82c1a503          	lw	a0,-2004(gp) # 201318bc <_impure_ptr>
201042aa:	c511                	beqz	a0,201042b6 <iprintf+0x26>
201042ac:	4d1c                	lw	a5,24(a0)
201042ae:	e781                	bnez	a5,201042b6 <iprintf+0x26>
201042b0:	c62a                	sw	a0,12(sp)
201042b2:	2395                	jal	20104816 <__sinit>
201042b4:	4532                	lw	a0,12(sp)
201042b6:	450c                	lw	a1,8(a0)
201042b8:	1854                	addi	a3,sp,52
201042ba:	8622                	mv	a2,s0
201042bc:	ce36                	sw	a3,28(sp)
201042be:	22d000ef          	jal	ra,20104cea <_vfiprintf_r>
201042c2:	50b2                	lw	ra,44(sp)
201042c4:	5422                	lw	s0,40(sp)
201042c6:	6161                	addi	sp,sp,80
201042c8:	8082                	ret

201042ca <_puts_r>:
201042ca:	1101                	addi	sp,sp,-32
201042cc:	ca26                	sw	s1,20(sp)
201042ce:	ce06                	sw	ra,28(sp)
201042d0:	cc22                	sw	s0,24(sp)
201042d2:	c84a                	sw	s2,16(sp)
201042d4:	c64e                	sw	s3,12(sp)
201042d6:	c452                	sw	s4,8(sp)
201042d8:	84aa                	mv	s1,a0
201042da:	e119                	bnez	a0,201042e0 <_puts_r+0x16>
201042dc:	451c                	lw	a5,8(a0)
201042de:	9002                	ebreak
201042e0:	4d1c                	lw	a5,24(a0)
201042e2:	892e                	mv	s2,a1
201042e4:	e3ad                	bnez	a5,20104346 <_puts_r+0x7c>
201042e6:	2b05                	jal	20104816 <__sinit>
201042e8:	4c9c                	lw	a5,24(s1)
201042ea:	4480                	lw	s0,8(s1)
201042ec:	cfb9                	beqz	a5,2010434a <_puts_r+0x80>
201042ee:	00002797          	auipc	a5,0x2
201042f2:	f1e78793          	addi	a5,a5,-226 # 2010620c <__sf_fake_stdin>
201042f6:	04f41d63          	bne	s0,a5,20104350 <_puts_r+0x86>
201042fa:	40c0                	lw	s0,4(s1)
201042fc:	507c                	lw	a5,100(s0)
201042fe:	8b85                	andi	a5,a5,1
20104300:	e799                	bnez	a5,2010430e <_puts_r+0x44>
20104302:	245e                	lhu	a5,12(s0)
20104304:	2007f793          	andi	a5,a5,512
20104308:	e399                	bnez	a5,2010430e <_puts_r+0x44>
2010430a:	4c28                	lw	a0,88(s0)
2010430c:	2559                	jal	20104992 <__retarget_lock_acquire_recursive>
2010430e:	245e                	lhu	a5,12(s0)
20104310:	8ba1                	andi	a5,a5,8
20104312:	c399                	beqz	a5,20104318 <_puts_r+0x4e>
20104314:	481c                	lw	a5,16(s0)
20104316:	e3d5                	bnez	a5,201043ba <_puts_r+0xf0>
20104318:	85a2                	mv	a1,s0
2010431a:	8526                	mv	a0,s1
2010431c:	2a9d                	jal	20104492 <__swsetup_r>
2010431e:	cd51                	beqz	a0,201043ba <_puts_r+0xf0>
20104320:	54fd                	li	s1,-1
20104322:	507c                	lw	a5,100(s0)
20104324:	8b85                	andi	a5,a5,1
20104326:	e799                	bnez	a5,20104334 <_puts_r+0x6a>
20104328:	245e                	lhu	a5,12(s0)
2010432a:	2007f793          	andi	a5,a5,512
2010432e:	e399                	bnez	a5,20104334 <_puts_r+0x6a>
20104330:	4c28                	lw	a0,88(s0)
20104332:	258d                	jal	20104994 <__retarget_lock_release_recursive>
20104334:	40f2                	lw	ra,28(sp)
20104336:	4462                	lw	s0,24(sp)
20104338:	4942                	lw	s2,16(sp)
2010433a:	49b2                	lw	s3,12(sp)
2010433c:	4a22                	lw	s4,8(sp)
2010433e:	8526                	mv	a0,s1
20104340:	44d2                	lw	s1,20(sp)
20104342:	6105                	addi	sp,sp,32
20104344:	8082                	ret
20104346:	4500                	lw	s0,8(a0)
20104348:	b75d                	j	201042ee <_puts_r+0x24>
2010434a:	8526                	mv	a0,s1
2010434c:	21e9                	jal	20104816 <__sinit>
2010434e:	b745                	j	201042ee <_puts_r+0x24>
20104350:	00002797          	auipc	a5,0x2
20104354:	e9c78793          	addi	a5,a5,-356 # 201061ec <__sf_fake_stdout>
20104358:	00f41463          	bne	s0,a5,20104360 <_puts_r+0x96>
2010435c:	4480                	lw	s0,8(s1)
2010435e:	bf79                	j	201042fc <_puts_r+0x32>
20104360:	00002797          	auipc	a5,0x2
20104364:	e6c78793          	addi	a5,a5,-404 # 201061cc <__sf_fake_stderr>
20104368:	f8f41ae3          	bne	s0,a5,201042fc <_puts_r+0x32>
2010436c:	44c0                	lw	s0,12(s1)
2010436e:	b779                	j	201042fc <_puts_r+0x32>
20104370:	c41c                	sw	a5,8(s0)
20104372:	0905                	addi	s2,s2,1
20104374:	0207c863          	bltz	a5,201043a4 <_puts_r+0xda>
20104378:	401c                	lw	a5,0(s0)
2010437a:	00178713          	addi	a4,a5,1
2010437e:	c018                	sw	a4,0(s0)
20104380:	a38c                	sb	a1,0(a5)
20104382:	441c                	lw	a5,8(s0)
20104384:	00094583          	lbu	a1,0(s2)
20104388:	17fd                	addi	a5,a5,-1
2010438a:	f1fd                	bnez	a1,20104370 <_puts_r+0xa6>
2010438c:	c41c                	sw	a5,8(s0)
2010438e:	0207d963          	bgez	a5,201043c0 <_puts_r+0xf6>
20104392:	8622                	mv	a2,s0
20104394:	45a9                	li	a1,10
20104396:	8526                	mv	a0,s1
20104398:	283d                	jal	201043d6 <__swbuf_r>
2010439a:	57fd                	li	a5,-1
2010439c:	f8f502e3          	beq	a0,a5,20104320 <_puts_r+0x56>
201043a0:	44a9                	li	s1,10
201043a2:	b741                	j	20104322 <_puts_r+0x58>
201043a4:	4c18                	lw	a4,24(s0)
201043a6:	00e7c463          	blt	a5,a4,201043ae <_puts_r+0xe4>
201043aa:	fd4597e3          	bne	a1,s4,20104378 <_puts_r+0xae>
201043ae:	8622                	mv	a2,s0
201043b0:	8526                	mv	a0,s1
201043b2:	2015                	jal	201043d6 <__swbuf_r>
201043b4:	fd3517e3          	bne	a0,s3,20104382 <_puts_r+0xb8>
201043b8:	b7a5                	j	20104320 <_puts_r+0x56>
201043ba:	59fd                	li	s3,-1
201043bc:	4a29                	li	s4,10
201043be:	b7d1                	j	20104382 <_puts_r+0xb8>
201043c0:	401c                	lw	a5,0(s0)
201043c2:	00178713          	addi	a4,a5,1
201043c6:	c018                	sw	a4,0(s0)
201043c8:	4729                	li	a4,10
201043ca:	a398                	sb	a4,0(a5)
201043cc:	bfd1                	j	201043a0 <_puts_r+0xd6>

201043ce <puts>:
201043ce:	85aa                	mv	a1,a0
201043d0:	82c1a503          	lw	a0,-2004(gp) # 201318bc <_impure_ptr>
201043d4:	bddd                	j	201042ca <_puts_r>

201043d6 <__swbuf_r>:
201043d6:	1101                	addi	sp,sp,-32
201043d8:	cc22                	sw	s0,24(sp)
201043da:	ca26                	sw	s1,20(sp)
201043dc:	c84a                	sw	s2,16(sp)
201043de:	ce06                	sw	ra,28(sp)
201043e0:	c64e                	sw	s3,12(sp)
201043e2:	84aa                	mv	s1,a0
201043e4:	892e                	mv	s2,a1
201043e6:	8432                	mv	s0,a2
201043e8:	c501                	beqz	a0,201043f0 <__swbuf_r+0x1a>
201043ea:	4d1c                	lw	a5,24(a0)
201043ec:	e391                	bnez	a5,201043f0 <__swbuf_r+0x1a>
201043ee:	2125                	jal	20104816 <__sinit>
201043f0:	00002797          	auipc	a5,0x2
201043f4:	e1c78793          	addi	a5,a5,-484 # 2010620c <__sf_fake_stdin>
201043f8:	02f41763          	bne	s0,a5,20104426 <__swbuf_r+0x50>
201043fc:	40c0                	lw	s0,4(s1)
201043fe:	4c1c                	lw	a5,24(s0)
20104400:	c41c                	sw	a5,8(s0)
20104402:	245e                	lhu	a5,12(s0)
20104404:	8ba1                	andi	a5,a5,8
20104406:	c399                	beqz	a5,2010440c <__swbuf_r+0x36>
20104408:	481c                	lw	a5,16(s0)
2010440a:	ef95                	bnez	a5,20104446 <__swbuf_r+0x70>
2010440c:	85a2                	mv	a1,s0
2010440e:	8526                	mv	a0,s1
20104410:	2049                	jal	20104492 <__swsetup_r>
20104412:	c915                	beqz	a0,20104446 <__swbuf_r+0x70>
20104414:	597d                	li	s2,-1
20104416:	40f2                	lw	ra,28(sp)
20104418:	4462                	lw	s0,24(sp)
2010441a:	44d2                	lw	s1,20(sp)
2010441c:	49b2                	lw	s3,12(sp)
2010441e:	854a                	mv	a0,s2
20104420:	4942                	lw	s2,16(sp)
20104422:	6105                	addi	sp,sp,32
20104424:	8082                	ret
20104426:	00002797          	auipc	a5,0x2
2010442a:	dc678793          	addi	a5,a5,-570 # 201061ec <__sf_fake_stdout>
2010442e:	00f41463          	bne	s0,a5,20104436 <__swbuf_r+0x60>
20104432:	4480                	lw	s0,8(s1)
20104434:	b7e9                	j	201043fe <__swbuf_r+0x28>
20104436:	00002797          	auipc	a5,0x2
2010443a:	d9678793          	addi	a5,a5,-618 # 201061cc <__sf_fake_stderr>
2010443e:	fcf410e3          	bne	s0,a5,201043fe <__swbuf_r+0x28>
20104442:	44c0                	lw	s0,12(s1)
20104444:	bf6d                	j	201043fe <__swbuf_r+0x28>
20104446:	481c                	lw	a5,16(s0)
20104448:	4008                	lw	a0,0(s0)
2010444a:	0ff97993          	zext.b	s3,s2
2010444e:	0ff97913          	zext.b	s2,s2
20104452:	8d1d                	sub	a0,a0,a5
20104454:	485c                	lw	a5,20(s0)
20104456:	00f54663          	blt	a0,a5,20104462 <__swbuf_r+0x8c>
2010445a:	85a2                	mv	a1,s0
2010445c:	8526                	mv	a0,s1
2010445e:	2c91                	jal	201046b2 <_fflush_r>
20104460:	f955                	bnez	a0,20104414 <__swbuf_r+0x3e>
20104462:	441c                	lw	a5,8(s0)
20104464:	0505                	addi	a0,a0,1
20104466:	17fd                	addi	a5,a5,-1
20104468:	c41c                	sw	a5,8(s0)
2010446a:	401c                	lw	a5,0(s0)
2010446c:	00178713          	addi	a4,a5,1
20104470:	c018                	sw	a4,0(s0)
20104472:	01378023          	sb	s3,0(a5)
20104476:	485c                	lw	a5,20(s0)
20104478:	00a78863          	beq	a5,a0,20104488 <__swbuf_r+0xb2>
2010447c:	245e                	lhu	a5,12(s0)
2010447e:	8b85                	andi	a5,a5,1
20104480:	dbd9                	beqz	a5,20104416 <__swbuf_r+0x40>
20104482:	47a9                	li	a5,10
20104484:	f8f919e3          	bne	s2,a5,20104416 <__swbuf_r+0x40>
20104488:	85a2                	mv	a1,s0
2010448a:	8526                	mv	a0,s1
2010448c:	241d                	jal	201046b2 <_fflush_r>
2010448e:	d541                	beqz	a0,20104416 <__swbuf_r+0x40>
20104490:	b751                	j	20104414 <__swbuf_r+0x3e>

20104492 <__swsetup_r>:
20104492:	1141                	addi	sp,sp,-16
20104494:	c422                	sw	s0,8(sp)
20104496:	c226                	sw	s1,4(sp)
20104498:	c04a                	sw	s2,0(sp)
2010449a:	c606                	sw	ra,12(sp)
2010449c:	82c1a483          	lw	s1,-2004(gp) # 201318bc <_impure_ptr>
201044a0:	892a                	mv	s2,a0
201044a2:	842e                	mv	s0,a1
201044a4:	c489                	beqz	s1,201044ae <__swsetup_r+0x1c>
201044a6:	4c9c                	lw	a5,24(s1)
201044a8:	e399                	bnez	a5,201044ae <__swsetup_r+0x1c>
201044aa:	8526                	mv	a0,s1
201044ac:	26ad                	jal	20104816 <__sinit>
201044ae:	00002797          	auipc	a5,0x2
201044b2:	d5e78793          	addi	a5,a5,-674 # 2010620c <__sf_fake_stdin>
201044b6:	02f41363          	bne	s0,a5,201044dc <__swsetup_r+0x4a>
201044ba:	40c0                	lw	s0,4(s1)
201044bc:	00c41783          	lh	a5,12(s0)
201044c0:	0087f713          	andi	a4,a5,8
201044c4:	e725                	bnez	a4,2010452c <__swsetup_r+0x9a>
201044c6:	0107f713          	andi	a4,a5,16
201044ca:	eb0d                	bnez	a4,201044fc <__swsetup_r+0x6a>
201044cc:	4725                	li	a4,9
201044ce:	00e92023          	sw	a4,0(s2)
201044d2:	0407e793          	ori	a5,a5,64
201044d6:	a45e                	sh	a5,12(s0)
201044d8:	557d                	li	a0,-1
201044da:	a071                	j	20104566 <__swsetup_r+0xd4>
201044dc:	00002797          	auipc	a5,0x2
201044e0:	d1078793          	addi	a5,a5,-752 # 201061ec <__sf_fake_stdout>
201044e4:	00f41463          	bne	s0,a5,201044ec <__swsetup_r+0x5a>
201044e8:	4480                	lw	s0,8(s1)
201044ea:	bfc9                	j	201044bc <__swsetup_r+0x2a>
201044ec:	00002797          	auipc	a5,0x2
201044f0:	ce078793          	addi	a5,a5,-800 # 201061cc <__sf_fake_stderr>
201044f4:	fcf414e3          	bne	s0,a5,201044bc <__swsetup_r+0x2a>
201044f8:	44c0                	lw	s0,12(s1)
201044fa:	b7c9                	j	201044bc <__swsetup_r+0x2a>
201044fc:	8b91                	andi	a5,a5,4
201044fe:	c39d                	beqz	a5,20104524 <__swsetup_r+0x92>
20104500:	584c                	lw	a1,52(s0)
20104502:	c989                	beqz	a1,20104514 <__swsetup_r+0x82>
20104504:	04440793          	addi	a5,s0,68
20104508:	00f58463          	beq	a1,a5,20104510 <__swsetup_r+0x7e>
2010450c:	854a                	mv	a0,s2
2010450e:	2b8d                	jal	20104a80 <_free_r>
20104510:	02042a23          	sw	zero,52(s0)
20104514:	245e                	lhu	a5,12(s0)
20104516:	00042223          	sw	zero,4(s0)
2010451a:	fdb7f793          	andi	a5,a5,-37
2010451e:	a45e                	sh	a5,12(s0)
20104520:	481c                	lw	a5,16(s0)
20104522:	c01c                	sw	a5,0(s0)
20104524:	245e                	lhu	a5,12(s0)
20104526:	0087e793          	ori	a5,a5,8
2010452a:	a45e                	sh	a5,12(s0)
2010452c:	481c                	lw	a5,16(s0)
2010452e:	eb99                	bnez	a5,20104544 <__swsetup_r+0xb2>
20104530:	245e                	lhu	a5,12(s0)
20104532:	20000713          	li	a4,512
20104536:	2807f793          	andi	a5,a5,640
2010453a:	00e78563          	beq	a5,a4,20104544 <__swsetup_r+0xb2>
2010453e:	85a2                	mv	a1,s0
20104540:	854a                	mv	a0,s2
20104542:	2175                	jal	201049ee <__smakebuf_r>
20104544:	00c41783          	lh	a5,12(s0)
20104548:	0017f713          	andi	a4,a5,1
2010454c:	c31d                	beqz	a4,20104572 <__swsetup_r+0xe0>
2010454e:	4858                	lw	a4,20(s0)
20104550:	00042423          	sw	zero,8(s0)
20104554:	40e00733          	neg	a4,a4
20104558:	cc18                	sw	a4,24(s0)
2010455a:	4818                	lw	a4,16(s0)
2010455c:	4501                	li	a0,0
2010455e:	e701                	bnez	a4,20104566 <__swsetup_r+0xd4>
20104560:	0807f713          	andi	a4,a5,128
20104564:	f73d                	bnez	a4,201044d2 <__swsetup_r+0x40>
20104566:	40b2                	lw	ra,12(sp)
20104568:	4422                	lw	s0,8(sp)
2010456a:	4492                	lw	s1,4(sp)
2010456c:	4902                	lw	s2,0(sp)
2010456e:	0141                	addi	sp,sp,16
20104570:	8082                	ret
20104572:	0027f713          	andi	a4,a5,2
20104576:	4681                	li	a3,0
20104578:	e311                	bnez	a4,2010457c <__swsetup_r+0xea>
2010457a:	4854                	lw	a3,20(s0)
2010457c:	c414                	sw	a3,8(s0)
2010457e:	bff1                	j	2010455a <__swsetup_r+0xc8>

20104580 <__sflush_r>:
20104580:	00c59783          	lh	a5,12(a1)
20104584:	1101                	addi	sp,sp,-32
20104586:	cc22                	sw	s0,24(sp)
20104588:	ca26                	sw	s1,20(sp)
2010458a:	ce06                	sw	ra,28(sp)
2010458c:	c84a                	sw	s2,16(sp)
2010458e:	c64e                	sw	s3,12(sp)
20104590:	0087f713          	andi	a4,a5,8
20104594:	84aa                	mv	s1,a0
20104596:	842e                	mv	s0,a1
20104598:	e379                	bnez	a4,2010465e <__sflush_r+0xde>
2010459a:	41d8                	lw	a4,4(a1)
2010459c:	00e04563          	bgtz	a4,201045a6 <__sflush_r+0x26>
201045a0:	41b8                	lw	a4,64(a1)
201045a2:	08e05663          	blez	a4,2010462e <__sflush_r+0xae>
201045a6:	5458                	lw	a4,44(s0)
201045a8:	c359                	beqz	a4,2010462e <__sflush_r+0xae>
201045aa:	0004a903          	lw	s2,0(s1)
201045ae:	0004a023          	sw	zero,0(s1)
201045b2:	500c                	lw	a1,32(s0)
201045b4:	48c7d793          	bexti	a5,a5,0xc
201045b8:	cba9                	beqz	a5,2010460a <__sflush_r+0x8a>
201045ba:	4870                	lw	a2,84(s0)
201045bc:	245e                	lhu	a5,12(s0)
201045be:	8b91                	andi	a5,a5,4
201045c0:	c799                	beqz	a5,201045ce <__sflush_r+0x4e>
201045c2:	405c                	lw	a5,4(s0)
201045c4:	8e1d                	sub	a2,a2,a5
201045c6:	585c                	lw	a5,52(s0)
201045c8:	c399                	beqz	a5,201045ce <__sflush_r+0x4e>
201045ca:	403c                	lw	a5,64(s0)
201045cc:	8e1d                	sub	a2,a2,a5
201045ce:	545c                	lw	a5,44(s0)
201045d0:	500c                	lw	a1,32(s0)
201045d2:	4681                	li	a3,0
201045d4:	8526                	mv	a0,s1
201045d6:	9782                	jalr	a5
201045d8:	57fd                	li	a5,-1
201045da:	04f50c63          	beq	a0,a5,20104632 <__sflush_r+0xb2>
201045de:	481c                	lw	a5,16(s0)
201045e0:	6705                	lui	a4,0x1
201045e2:	00042223          	sw	zero,4(s0)
201045e6:	c01c                	sw	a5,0(s0)
201045e8:	245e                	lhu	a5,12(s0)
201045ea:	8ff9                	and	a5,a5,a4
201045ec:	c391                	beqz	a5,201045f0 <__sflush_r+0x70>
201045ee:	c868                	sw	a0,84(s0)
201045f0:	584c                	lw	a1,52(s0)
201045f2:	0124a023          	sw	s2,0(s1)
201045f6:	cd85                	beqz	a1,2010462e <__sflush_r+0xae>
201045f8:	04440793          	addi	a5,s0,68
201045fc:	00f58463          	beq	a1,a5,20104604 <__sflush_r+0x84>
20104600:	8526                	mv	a0,s1
20104602:	29bd                	jal	20104a80 <_free_r>
20104604:	02042a23          	sw	zero,52(s0)
20104608:	a01d                	j	2010462e <__sflush_r+0xae>
2010460a:	4601                	li	a2,0
2010460c:	4685                	li	a3,1
2010460e:	8526                	mv	a0,s1
20104610:	9702                	jalr	a4
20104612:	57fd                	li	a5,-1
20104614:	862a                	mv	a2,a0
20104616:	faf513e3          	bne	a0,a5,201045bc <__sflush_r+0x3c>
2010461a:	409c                	lw	a5,0(s1)
2010461c:	d3c5                	beqz	a5,201045bc <__sflush_r+0x3c>
2010461e:	4775                	li	a4,29
20104620:	00e78563          	beq	a5,a4,2010462a <__sflush_r+0xaa>
20104624:	4759                	li	a4,22
20104626:	06e79563          	bne	a5,a4,20104690 <__sflush_r+0x110>
2010462a:	0124a023          	sw	s2,0(s1)
2010462e:	4501                	li	a0,0
20104630:	a0b5                	j	2010469c <__sflush_r+0x11c>
20104632:	4098                	lw	a4,0(s1)
20104634:	00c41783          	lh	a5,12(s0)
20104638:	cf01                	beqz	a4,20104650 <__sflush_r+0xd0>
2010463a:	46f5                	li	a3,29
2010463c:	00d70563          	beq	a4,a3,20104646 <__sflush_r+0xc6>
20104640:	46d9                	li	a3,22
20104642:	04d71963          	bne	a4,a3,20104694 <__sflush_r+0x114>
20104646:	481c                	lw	a5,16(s0)
20104648:	00042223          	sw	zero,4(s0)
2010464c:	c01c                	sw	a5,0(s0)
2010464e:	b74d                	j	201045f0 <__sflush_r+0x70>
20104650:	4818                	lw	a4,16(s0)
20104652:	00042223          	sw	zero,4(s0)
20104656:	48c7d793          	bexti	a5,a5,0xc
2010465a:	c018                	sw	a4,0(s0)
2010465c:	bf41                	j	201045ec <__sflush_r+0x6c>
2010465e:	0105a983          	lw	s3,16(a1)
20104662:	fc0986e3          	beqz	s3,2010462e <__sflush_r+0xae>
20104666:	0005a903          	lw	s2,0(a1)
2010466a:	8b8d                	andi	a5,a5,3
2010466c:	0135a023          	sw	s3,0(a1)
20104670:	41390933          	sub	s2,s2,s3
20104674:	4701                	li	a4,0
20104676:	e391                	bnez	a5,2010467a <__sflush_r+0xfa>
20104678:	49d8                	lw	a4,20(a1)
2010467a:	c418                	sw	a4,8(s0)
2010467c:	fb2059e3          	blez	s2,2010462e <__sflush_r+0xae>
20104680:	541c                	lw	a5,40(s0)
20104682:	500c                	lw	a1,32(s0)
20104684:	86ca                	mv	a3,s2
20104686:	864e                	mv	a2,s3
20104688:	8526                	mv	a0,s1
2010468a:	9782                	jalr	a5
2010468c:	00a04f63          	bgtz	a0,201046aa <__sflush_r+0x12a>
20104690:	00c41783          	lh	a5,12(s0)
20104694:	0407e793          	ori	a5,a5,64
20104698:	a45e                	sh	a5,12(s0)
2010469a:	557d                	li	a0,-1
2010469c:	40f2                	lw	ra,28(sp)
2010469e:	4462                	lw	s0,24(sp)
201046a0:	44d2                	lw	s1,20(sp)
201046a2:	4942                	lw	s2,16(sp)
201046a4:	49b2                	lw	s3,12(sp)
201046a6:	6105                	addi	sp,sp,32
201046a8:	8082                	ret
201046aa:	99aa                	add	s3,s3,a0
201046ac:	40a90933          	sub	s2,s2,a0
201046b0:	b7f1                	j	2010467c <__sflush_r+0xfc>

201046b2 <_fflush_r>:
201046b2:	499c                	lw	a5,16(a1)
201046b4:	1141                	addi	sp,sp,-16
201046b6:	c606                	sw	ra,12(sp)
201046b8:	c422                	sw	s0,8(sp)
201046ba:	c226                	sw	s1,4(sp)
201046bc:	eb81                	bnez	a5,201046cc <_fflush_r+0x1a>
201046be:	4481                	li	s1,0
201046c0:	40b2                	lw	ra,12(sp)
201046c2:	4422                	lw	s0,8(sp)
201046c4:	8526                	mv	a0,s1
201046c6:	4492                	lw	s1,4(sp)
201046c8:	0141                	addi	sp,sp,16
201046ca:	8082                	ret
201046cc:	84aa                	mv	s1,a0
201046ce:	842e                	mv	s0,a1
201046d0:	c501                	beqz	a0,201046d8 <_fflush_r+0x26>
201046d2:	4d1c                	lw	a5,24(a0)
201046d4:	e391                	bnez	a5,201046d8 <_fflush_r+0x26>
201046d6:	2281                	jal	20104816 <__sinit>
201046d8:	00002797          	auipc	a5,0x2
201046dc:	b3478793          	addi	a5,a5,-1228 # 2010620c <__sf_fake_stdin>
201046e0:	02f41c63          	bne	s0,a5,20104718 <_fflush_r+0x66>
201046e4:	40c0                	lw	s0,4(s1)
201046e6:	00c41783          	lh	a5,12(s0)
201046ea:	dbf1                	beqz	a5,201046be <_fflush_r+0xc>
201046ec:	5078                	lw	a4,100(s0)
201046ee:	8b05                	andi	a4,a4,1
201046f0:	e711                	bnez	a4,201046fc <_fflush_r+0x4a>
201046f2:	2007f793          	andi	a5,a5,512
201046f6:	e399                	bnez	a5,201046fc <_fflush_r+0x4a>
201046f8:	4c28                	lw	a0,88(s0)
201046fa:	2c61                	jal	20104992 <__retarget_lock_acquire_recursive>
201046fc:	8526                	mv	a0,s1
201046fe:	85a2                	mv	a1,s0
20104700:	3541                	jal	20104580 <__sflush_r>
20104702:	507c                	lw	a5,100(s0)
20104704:	84aa                	mv	s1,a0
20104706:	8b85                	andi	a5,a5,1
20104708:	ffc5                	bnez	a5,201046c0 <_fflush_r+0xe>
2010470a:	245e                	lhu	a5,12(s0)
2010470c:	2007f793          	andi	a5,a5,512
20104710:	fbc5                	bnez	a5,201046c0 <_fflush_r+0xe>
20104712:	4c28                	lw	a0,88(s0)
20104714:	2441                	jal	20104994 <__retarget_lock_release_recursive>
20104716:	b76d                	j	201046c0 <_fflush_r+0xe>
20104718:	00002797          	auipc	a5,0x2
2010471c:	ad478793          	addi	a5,a5,-1324 # 201061ec <__sf_fake_stdout>
20104720:	00f41463          	bne	s0,a5,20104728 <_fflush_r+0x76>
20104724:	4480                	lw	s0,8(s1)
20104726:	b7c1                	j	201046e6 <_fflush_r+0x34>
20104728:	00002797          	auipc	a5,0x2
2010472c:	aa478793          	addi	a5,a5,-1372 # 201061cc <__sf_fake_stderr>
20104730:	faf41be3          	bne	s0,a5,201046e6 <_fflush_r+0x34>
20104734:	44c0                	lw	s0,12(s1)
20104736:	bf45                	j	201046e6 <_fflush_r+0x34>

20104738 <std>:
20104738:	1141                	addi	sp,sp,-16
2010473a:	c422                	sw	s0,8(sp)
2010473c:	c606                	sw	ra,12(sp)
2010473e:	842a                	mv	s0,a0
20104740:	a54e                	sh	a1,12(a0)
20104742:	a572                	sh	a2,14(a0)
20104744:	00052023          	sw	zero,0(a0)
20104748:	00052223          	sw	zero,4(a0)
2010474c:	00052423          	sw	zero,8(a0)
20104750:	06052223          	sw	zero,100(a0)
20104754:	00052823          	sw	zero,16(a0)
20104758:	00052a23          	sw	zero,20(a0)
2010475c:	00052c23          	sw	zero,24(a0)
20104760:	4621                	li	a2,8
20104762:	4581                	li	a1,0
20104764:	05c50513          	addi	a0,a0,92
20104768:	b63fb0ef          	jal	ra,201002ca <memset>
2010476c:	00001797          	auipc	a5,0x1
20104770:	86678793          	addi	a5,a5,-1946 # 20104fd2 <__sread>
20104774:	d05c                	sw	a5,36(s0)
20104776:	00001797          	auipc	a5,0x1
2010477a:	88678793          	addi	a5,a5,-1914 # 20104ffc <__swrite>
2010477e:	d41c                	sw	a5,40(s0)
20104780:	00001797          	auipc	a5,0x1
20104784:	8c278793          	addi	a5,a5,-1854 # 20105042 <__sseek>
20104788:	d45c                	sw	a5,44(s0)
2010478a:	00001797          	auipc	a5,0x1
2010478e:	8e678793          	addi	a5,a5,-1818 # 20105070 <__sclose>
20104792:	40b2                	lw	ra,12(sp)
20104794:	d000                	sw	s0,32(s0)
20104796:	d81c                	sw	a5,48(s0)
20104798:	4422                	lw	s0,8(sp)
2010479a:	0141                	addi	sp,sp,16
2010479c:	8082                	ret

2010479e <_cleanup_r>:
2010479e:	00000597          	auipc	a1,0x0
201047a2:	f1458593          	addi	a1,a1,-236 # 201046b2 <_fflush_r>
201047a6:	a249                	j	20104928 <_fwalk_reent>

201047a8 <__sfmoreglue>:
201047a8:	1141                	addi	sp,sp,-16
201047aa:	c226                	sw	s1,4(sp)
201047ac:	06800793          	li	a5,104
201047b0:	fff58493          	addi	s1,a1,-1
201047b4:	02f484b3          	mul	s1,s1,a5
201047b8:	c04a                	sw	s2,0(sp)
201047ba:	892e                	mv	s2,a1
201047bc:	c422                	sw	s0,8(sp)
201047be:	c606                	sw	ra,12(sp)
201047c0:	07448593          	addi	a1,s1,116
201047c4:	2e5d                	jal	20104b7a <_malloc_r>
201047c6:	842a                	mv	s0,a0
201047c8:	cd01                	beqz	a0,201047e0 <__sfmoreglue+0x38>
201047ca:	00052023          	sw	zero,0(a0)
201047ce:	01252223          	sw	s2,4(a0)
201047d2:	0531                	addi	a0,a0,12
201047d4:	c408                	sw	a0,8(s0)
201047d6:	06848613          	addi	a2,s1,104
201047da:	4581                	li	a1,0
201047dc:	aeffb0ef          	jal	ra,201002ca <memset>
201047e0:	40b2                	lw	ra,12(sp)
201047e2:	8522                	mv	a0,s0
201047e4:	4422                	lw	s0,8(sp)
201047e6:	4492                	lw	s1,4(sp)
201047e8:	4902                	lw	s2,0(sp)
201047ea:	0141                	addi	sp,sp,16
201047ec:	8082                	ret

201047ee <__sfp_lock_acquire>:
201047ee:	00041517          	auipc	a0,0x41
201047f2:	17a50513          	addi	a0,a0,378 # 20145968 <__lock___sfp_recursive_mutex>
201047f6:	aa71                	j	20104992 <__retarget_lock_acquire_recursive>

201047f8 <__sfp_lock_release>:
201047f8:	00041517          	auipc	a0,0x41
201047fc:	17050513          	addi	a0,a0,368 # 20145968 <__lock___sfp_recursive_mutex>
20104800:	aa51                	j	20104994 <__retarget_lock_release_recursive>

20104802 <__sinit_lock_acquire>:
20104802:	00041517          	auipc	a0,0x41
20104806:	16a50513          	addi	a0,a0,362 # 2014596c <__lock___sinit_recursive_mutex>
2010480a:	a261                	j	20104992 <__retarget_lock_acquire_recursive>

2010480c <__sinit_lock_release>:
2010480c:	00041517          	auipc	a0,0x41
20104810:	16050513          	addi	a0,a0,352 # 2014596c <__lock___sinit_recursive_mutex>
20104814:	a241                	j	20104994 <__retarget_lock_release_recursive>

20104816 <__sinit>:
20104816:	1141                	addi	sp,sp,-16
20104818:	c422                	sw	s0,8(sp)
2010481a:	c606                	sw	ra,12(sp)
2010481c:	842a                	mv	s0,a0
2010481e:	37d5                	jal	20104802 <__sinit_lock_acquire>
20104820:	4c1c                	lw	a5,24(s0)
20104822:	c789                	beqz	a5,2010482c <__sinit+0x16>
20104824:	4422                	lw	s0,8(sp)
20104826:	40b2                	lw	ra,12(sp)
20104828:	0141                	addi	sp,sp,16
2010482a:	b7cd                	j	2010480c <__sinit_lock_release>
2010482c:	00000797          	auipc	a5,0x0
20104830:	f7278793          	addi	a5,a5,-142 # 2010479e <_cleanup_r>
20104834:	d41c                	sw	a5,40(s0)
20104836:	04042423          	sw	zero,72(s0)
2010483a:	04042623          	sw	zero,76(s0)
2010483e:	04042823          	sw	zero,80(s0)
20104842:	8401a783          	lw	a5,-1984(gp) # 201318d0 <_global_impure_ptr>
20104846:	00879463          	bne	a5,s0,2010484e <__sinit+0x38>
2010484a:	4785                	li	a5,1
2010484c:	cc1c                	sw	a5,24(s0)
2010484e:	8522                	mv	a0,s0
20104850:	203d                	jal	2010487e <__sfp>
20104852:	c048                	sw	a0,4(s0)
20104854:	8522                	mv	a0,s0
20104856:	2025                	jal	2010487e <__sfp>
20104858:	c408                	sw	a0,8(s0)
2010485a:	8522                	mv	a0,s0
2010485c:	200d                	jal	2010487e <__sfp>
2010485e:	c448                	sw	a0,12(s0)
20104860:	4048                	lw	a0,4(s0)
20104862:	4601                	li	a2,0
20104864:	4591                	li	a1,4
20104866:	3dc9                	jal	20104738 <std>
20104868:	4408                	lw	a0,8(s0)
2010486a:	4605                	li	a2,1
2010486c:	45a5                	li	a1,9
2010486e:	35e9                	jal	20104738 <std>
20104870:	4448                	lw	a0,12(s0)
20104872:	4609                	li	a2,2
20104874:	45c9                	li	a1,18
20104876:	35c9                	jal	20104738 <std>
20104878:	4785                	li	a5,1
2010487a:	cc1c                	sw	a5,24(s0)
2010487c:	b765                	j	20104824 <__sinit+0xe>

2010487e <__sfp>:
2010487e:	1141                	addi	sp,sp,-16
20104880:	c226                	sw	s1,4(sp)
20104882:	c04a                	sw	s2,0(sp)
20104884:	c606                	sw	ra,12(sp)
20104886:	c422                	sw	s0,8(sp)
20104888:	892a                	mv	s2,a0
2010488a:	3795                	jal	201047ee <__sfp_lock_acquire>
2010488c:	8401a483          	lw	s1,-1984(gp) # 201318d0 <_global_impure_ptr>
20104890:	4c9c                	lw	a5,24(s1)
20104892:	e399                	bnez	a5,20104898 <__sfp+0x1a>
20104894:	8526                	mv	a0,s1
20104896:	3741                	jal	20104816 <__sinit>
20104898:	04848493          	addi	s1,s1,72
2010489c:	4480                	lw	s0,8(s1)
2010489e:	40dc                	lw	a5,4(s1)
201048a0:	17fd                	addi	a5,a5,-1
201048a2:	0007d663          	bgez	a5,201048ae <__sfp+0x30>
201048a6:	409c                	lw	a5,0(s1)
201048a8:	c3bd                	beqz	a5,2010490e <__sfp+0x90>
201048aa:	4084                	lw	s1,0(s1)
201048ac:	bfc5                	j	2010489c <__sfp+0x1e>
201048ae:	00c41703          	lh	a4,12(s0)
201048b2:	eb39                	bnez	a4,20104908 <__sfp+0x8a>
201048b4:	77c1                	lui	a5,0xffff0
201048b6:	0785                	addi	a5,a5,1 # ffff0001 <_eusrstack+0xdfe70001>
201048b8:	c45c                	sw	a5,12(s0)
201048ba:	05840513          	addi	a0,s0,88
201048be:	06042223          	sw	zero,100(s0)
201048c2:	20f9                	jal	20104990 <__retarget_lock_init_recursive>
201048c4:	3f15                	jal	201047f8 <__sfp_lock_release>
201048c6:	4621                	li	a2,8
201048c8:	00042023          	sw	zero,0(s0)
201048cc:	00042423          	sw	zero,8(s0)
201048d0:	00042223          	sw	zero,4(s0)
201048d4:	00042823          	sw	zero,16(s0)
201048d8:	00042a23          	sw	zero,20(s0)
201048dc:	00042c23          	sw	zero,24(s0)
201048e0:	4581                	li	a1,0
201048e2:	05c40513          	addi	a0,s0,92
201048e6:	9e5fb0ef          	jal	ra,201002ca <memset>
201048ea:	02042a23          	sw	zero,52(s0)
201048ee:	02042c23          	sw	zero,56(s0)
201048f2:	04042423          	sw	zero,72(s0)
201048f6:	04042623          	sw	zero,76(s0)
201048fa:	40b2                	lw	ra,12(sp)
201048fc:	8522                	mv	a0,s0
201048fe:	4422                	lw	s0,8(sp)
20104900:	4492                	lw	s1,4(sp)
20104902:	4902                	lw	s2,0(sp)
20104904:	0141                	addi	sp,sp,16
20104906:	8082                	ret
20104908:	06840413          	addi	s0,s0,104
2010490c:	bf51                	j	201048a0 <__sfp+0x22>
2010490e:	4591                	li	a1,4
20104910:	854a                	mv	a0,s2
20104912:	e97ff0ef          	jal	ra,201047a8 <__sfmoreglue>
20104916:	c088                	sw	a0,0(s1)
20104918:	842a                	mv	s0,a0
2010491a:	f941                	bnez	a0,201048aa <__sfp+0x2c>
2010491c:	eddff0ef          	jal	ra,201047f8 <__sfp_lock_release>
20104920:	47b1                	li	a5,12
20104922:	00f92023          	sw	a5,0(s2)
20104926:	bfd1                	j	201048fa <__sfp+0x7c>

20104928 <_fwalk_reent>:
20104928:	7179                	addi	sp,sp,-48
2010492a:	d422                	sw	s0,40(sp)
2010492c:	d04a                	sw	s2,32(sp)
2010492e:	ce4e                	sw	s3,28(sp)
20104930:	cc52                	sw	s4,24(sp)
20104932:	c85a                	sw	s6,16(sp)
20104934:	c65e                	sw	s7,12(sp)
20104936:	d606                	sw	ra,44(sp)
20104938:	d226                	sw	s1,36(sp)
2010493a:	ca56                	sw	s5,20(sp)
2010493c:	892a                	mv	s2,a0
2010493e:	8a2e                	mv	s4,a1
20104940:	04850413          	addi	s0,a0,72
20104944:	4981                	li	s3,0
20104946:	4b05                	li	s6,1
20104948:	5bfd                	li	s7,-1
2010494a:	4404                	lw	s1,8(s0)
2010494c:	00442a83          	lw	s5,4(s0)
20104950:	1afd                	addi	s5,s5,-1
20104952:	020ad063          	bgez	s5,20104972 <_fwalk_reent+0x4a>
20104956:	4000                	lw	s0,0(s0)
20104958:	f86d                	bnez	s0,2010494a <_fwalk_reent+0x22>
2010495a:	50b2                	lw	ra,44(sp)
2010495c:	5422                	lw	s0,40(sp)
2010495e:	5492                	lw	s1,36(sp)
20104960:	5902                	lw	s2,32(sp)
20104962:	4a62                	lw	s4,24(sp)
20104964:	4ad2                	lw	s5,20(sp)
20104966:	4b42                	lw	s6,16(sp)
20104968:	4bb2                	lw	s7,12(sp)
2010496a:	854e                	mv	a0,s3
2010496c:	49f2                	lw	s3,28(sp)
2010496e:	6145                	addi	sp,sp,48
20104970:	8082                	ret
20104972:	24de                	lhu	a5,12(s1)
20104974:	00fb7b63          	bgeu	s6,a5,2010498a <_fwalk_reent+0x62>
20104978:	00e49783          	lh	a5,14(s1)
2010497c:	01778763          	beq	a5,s7,2010498a <_fwalk_reent+0x62>
20104980:	85a6                	mv	a1,s1
20104982:	854a                	mv	a0,s2
20104984:	9a02                	jalr	s4
20104986:	00a9e9b3          	or	s3,s3,a0
2010498a:	06848493          	addi	s1,s1,104
2010498e:	b7c9                	j	20104950 <_fwalk_reent+0x28>

20104990 <__retarget_lock_init_recursive>:
20104990:	8082                	ret

20104992 <__retarget_lock_acquire_recursive>:
20104992:	8082                	ret

20104994 <__retarget_lock_release_recursive>:
20104994:	8082                	ret

20104996 <__swhatbuf_r>:
20104996:	7159                	addi	sp,sp,-112
20104998:	d4a2                	sw	s0,104(sp)
2010499a:	842e                	mv	s0,a1
2010499c:	00e59583          	lh	a1,14(a1)
201049a0:	d2a6                	sw	s1,100(sp)
201049a2:	d0ca                	sw	s2,96(sp)
201049a4:	d686                	sw	ra,108(sp)
201049a6:	84b2                	mv	s1,a2
201049a8:	8936                	mv	s2,a3
201049aa:	0205d263          	bgez	a1,201049ce <__swhatbuf_r+0x38>
201049ae:	245e                	lhu	a5,12(s0)
201049b0:	0807f793          	andi	a5,a5,128
201049b4:	eb8d                	bnez	a5,201049e6 <__swhatbuf_r+0x50>
201049b6:	40000713          	li	a4,1024
201049ba:	50b6                	lw	ra,108(sp)
201049bc:	5426                	lw	s0,104(sp)
201049be:	00f92023          	sw	a5,0(s2)
201049c2:	c098                	sw	a4,0(s1)
201049c4:	5906                	lw	s2,96(sp)
201049c6:	5496                	lw	s1,100(sp)
201049c8:	4501                	li	a0,0
201049ca:	6165                	addi	sp,sp,112
201049cc:	8082                	ret
201049ce:	0030                	addi	a2,sp,8
201049d0:	2721                	jal	201050d8 <_fstat_r>
201049d2:	fc054ee3          	bltz	a0,201049ae <__swhatbuf_r+0x18>
201049d6:	4732                	lw	a4,12(sp)
201049d8:	67bd                	lui	a5,0xf
201049da:	8ff9                	and	a5,a5,a4
201049dc:	7779                	lui	a4,0xffffe
201049de:	97ba                	add	a5,a5,a4
201049e0:	0017b793          	seqz	a5,a5
201049e4:	bfc9                	j	201049b6 <__swhatbuf_r+0x20>
201049e6:	4781                	li	a5,0
201049e8:	04000713          	li	a4,64
201049ec:	b7f9                	j	201049ba <__swhatbuf_r+0x24>

201049ee <__smakebuf_r>:
201049ee:	25de                	lhu	a5,12(a1)
201049f0:	7179                	addi	sp,sp,-48
201049f2:	d422                	sw	s0,40(sp)
201049f4:	d606                	sw	ra,44(sp)
201049f6:	d226                	sw	s1,36(sp)
201049f8:	d04a                	sw	s2,32(sp)
201049fa:	ce4e                	sw	s3,28(sp)
201049fc:	8b89                	andi	a5,a5,2
201049fe:	842e                	mv	s0,a1
20104a00:	cf91                	beqz	a5,20104a1c <__smakebuf_r+0x2e>
20104a02:	04740793          	addi	a5,s0,71
20104a06:	c01c                	sw	a5,0(s0)
20104a08:	c81c                	sw	a5,16(s0)
20104a0a:	4785                	li	a5,1
20104a0c:	c85c                	sw	a5,20(s0)
20104a0e:	50b2                	lw	ra,44(sp)
20104a10:	5422                	lw	s0,40(sp)
20104a12:	5492                	lw	s1,36(sp)
20104a14:	5902                	lw	s2,32(sp)
20104a16:	49f2                	lw	s3,28(sp)
20104a18:	6145                	addi	sp,sp,48
20104a1a:	8082                	ret
20104a1c:	0074                	addi	a3,sp,12
20104a1e:	0030                	addi	a2,sp,8
20104a20:	84aa                	mv	s1,a0
20104a22:	3f95                	jal	20104996 <__swhatbuf_r>
20104a24:	49a2                	lw	s3,8(sp)
20104a26:	892a                	mv	s2,a0
20104a28:	8526                	mv	a0,s1
20104a2a:	85ce                	mv	a1,s3
20104a2c:	22b9                	jal	20104b7a <_malloc_r>
20104a2e:	e919                	bnez	a0,20104a44 <__smakebuf_r+0x56>
20104a30:	00c41783          	lh	a5,12(s0)
20104a34:	2007f713          	andi	a4,a5,512
20104a38:	fb79                	bnez	a4,20104a0e <__smakebuf_r+0x20>
20104a3a:	9bf1                	andi	a5,a5,-4
20104a3c:	0027e793          	ori	a5,a5,2
20104a40:	a45e                	sh	a5,12(s0)
20104a42:	b7c1                	j	20104a02 <__smakebuf_r+0x14>
20104a44:	00000797          	auipc	a5,0x0
20104a48:	d5a78793          	addi	a5,a5,-678 # 2010479e <_cleanup_r>
20104a4c:	d49c                	sw	a5,40(s1)
20104a4e:	245e                	lhu	a5,12(s0)
20104a50:	c008                	sw	a0,0(s0)
20104a52:	c808                	sw	a0,16(s0)
20104a54:	0807e793          	ori	a5,a5,128
20104a58:	a45e                	sh	a5,12(s0)
20104a5a:	47b2                	lw	a5,12(sp)
20104a5c:	01342a23          	sw	s3,20(s0)
20104a60:	cb99                	beqz	a5,20104a76 <__smakebuf_r+0x88>
20104a62:	00e41583          	lh	a1,14(s0)
20104a66:	8526                	mv	a0,s1
20104a68:	2545                	jal	20105108 <_isatty_r>
20104a6a:	c511                	beqz	a0,20104a76 <__smakebuf_r+0x88>
20104a6c:	245e                	lhu	a5,12(s0)
20104a6e:	9bf1                	andi	a5,a5,-4
20104a70:	0017e793          	ori	a5,a5,1
20104a74:	a45e                	sh	a5,12(s0)
20104a76:	245e                	lhu	a5,12(s0)
20104a78:	0127e533          	or	a0,a5,s2
20104a7c:	a44a                	sh	a0,12(s0)
20104a7e:	bf41                	j	20104a0e <__smakebuf_r+0x20>

20104a80 <_free_r>:
20104a80:	c1c5                	beqz	a1,20104b20 <_free_r+0xa0>
20104a82:	ffc5a783          	lw	a5,-4(a1)
20104a86:	1101                	addi	sp,sp,-32
20104a88:	cc22                	sw	s0,24(sp)
20104a8a:	ce06                	sw	ra,28(sp)
20104a8c:	ffc58413          	addi	s0,a1,-4
20104a90:	0007d363          	bgez	a5,20104a96 <_free_r+0x16>
20104a94:	943e                	add	s0,s0,a5
20104a96:	c62a                	sw	a0,12(sp)
20104a98:	25e5                	jal	20105180 <__malloc_lock>
20104a9a:	00041717          	auipc	a4,0x41
20104a9e:	eda70713          	addi	a4,a4,-294 # 20145974 <__malloc_free_list>
20104aa2:	431c                	lw	a5,0(a4)
20104aa4:	4532                	lw	a0,12(sp)
20104aa6:	eb81                	bnez	a5,20104ab6 <_free_r+0x36>
20104aa8:	00042223          	sw	zero,4(s0)
20104aac:	c300                	sw	s0,0(a4)
20104aae:	4462                	lw	s0,24(sp)
20104ab0:	40f2                	lw	ra,28(sp)
20104ab2:	6105                	addi	sp,sp,32
20104ab4:	ade1                	j	2010518c <__malloc_unlock>
20104ab6:	00f47d63          	bgeu	s0,a5,20104ad0 <_free_r+0x50>
20104aba:	4010                	lw	a2,0(s0)
20104abc:	00c406b3          	add	a3,s0,a2
20104ac0:	00d79663          	bne	a5,a3,20104acc <_free_r+0x4c>
20104ac4:	4394                	lw	a3,0(a5)
20104ac6:	43dc                	lw	a5,4(a5)
20104ac8:	96b2                	add	a3,a3,a2
20104aca:	c014                	sw	a3,0(s0)
20104acc:	c05c                	sw	a5,4(s0)
20104ace:	bff9                	j	20104aac <_free_r+0x2c>
20104ad0:	873e                	mv	a4,a5
20104ad2:	43dc                	lw	a5,4(a5)
20104ad4:	c399                	beqz	a5,20104ada <_free_r+0x5a>
20104ad6:	fef47de3          	bgeu	s0,a5,20104ad0 <_free_r+0x50>
20104ada:	4314                	lw	a3,0(a4)
20104adc:	00d70633          	add	a2,a4,a3
20104ae0:	00861f63          	bne	a2,s0,20104afe <_free_r+0x7e>
20104ae4:	4010                	lw	a2,0(s0)
20104ae6:	96b2                	add	a3,a3,a2
20104ae8:	c314                	sw	a3,0(a4)
20104aea:	00d70633          	add	a2,a4,a3
20104aee:	fcc790e3          	bne	a5,a2,20104aae <_free_r+0x2e>
20104af2:	4390                	lw	a2,0(a5)
20104af4:	43dc                	lw	a5,4(a5)
20104af6:	96b2                	add	a3,a3,a2
20104af8:	c314                	sw	a3,0(a4)
20104afa:	c35c                	sw	a5,4(a4)
20104afc:	bf4d                	j	20104aae <_free_r+0x2e>
20104afe:	00c47563          	bgeu	s0,a2,20104b08 <_free_r+0x88>
20104b02:	47b1                	li	a5,12
20104b04:	c11c                	sw	a5,0(a0)
20104b06:	b765                	j	20104aae <_free_r+0x2e>
20104b08:	4010                	lw	a2,0(s0)
20104b0a:	00c406b3          	add	a3,s0,a2
20104b0e:	00d79663          	bne	a5,a3,20104b1a <_free_r+0x9a>
20104b12:	4394                	lw	a3,0(a5)
20104b14:	43dc                	lw	a5,4(a5)
20104b16:	96b2                	add	a3,a3,a2
20104b18:	c014                	sw	a3,0(s0)
20104b1a:	c05c                	sw	a5,4(s0)
20104b1c:	c340                	sw	s0,4(a4)
20104b1e:	bf41                	j	20104aae <_free_r+0x2e>
20104b20:	8082                	ret

20104b22 <sbrk_aligned>:
20104b22:	1141                	addi	sp,sp,-16
20104b24:	c04a                	sw	s2,0(sp)
20104b26:	00041917          	auipc	s2,0x41
20104b2a:	e4a90913          	addi	s2,s2,-438 # 20145970 <__malloc_sbrk_start>
20104b2e:	00092783          	lw	a5,0(s2)
20104b32:	c422                	sw	s0,8(sp)
20104b34:	c226                	sw	s1,4(sp)
20104b36:	c606                	sw	ra,12(sp)
20104b38:	84aa                	mv	s1,a0
20104b3a:	842e                	mv	s0,a1
20104b3c:	e789                	bnez	a5,20104b46 <sbrk_aligned+0x24>
20104b3e:	4581                	li	a1,0
20104b40:	218d                	jal	20104fa2 <_sbrk_r>
20104b42:	00a92023          	sw	a0,0(s2)
20104b46:	85a2                	mv	a1,s0
20104b48:	8526                	mv	a0,s1
20104b4a:	29a1                	jal	20104fa2 <_sbrk_r>
20104b4c:	597d                	li	s2,-1
20104b4e:	01251a63          	bne	a0,s2,20104b62 <sbrk_aligned+0x40>
20104b52:	547d                	li	s0,-1
20104b54:	40b2                	lw	ra,12(sp)
20104b56:	8522                	mv	a0,s0
20104b58:	4422                	lw	s0,8(sp)
20104b5a:	4492                	lw	s1,4(sp)
20104b5c:	4902                	lw	s2,0(sp)
20104b5e:	0141                	addi	sp,sp,16
20104b60:	8082                	ret
20104b62:	00350413          	addi	s0,a0,3
20104b66:	9871                	andi	s0,s0,-4
20104b68:	fe8506e3          	beq	a0,s0,20104b54 <sbrk_aligned+0x32>
20104b6c:	40a405b3          	sub	a1,s0,a0
20104b70:	8526                	mv	a0,s1
20104b72:	2905                	jal	20104fa2 <_sbrk_r>
20104b74:	ff2510e3          	bne	a0,s2,20104b54 <sbrk_aligned+0x32>
20104b78:	bfe9                	j	20104b52 <sbrk_aligned+0x30>

20104b7a <_malloc_r>:
20104b7a:	1101                	addi	sp,sp,-32
20104b7c:	ca26                	sw	s1,20(sp)
20104b7e:	00358493          	addi	s1,a1,3
20104b82:	98f1                	andi	s1,s1,-4
20104b84:	c84a                	sw	s2,16(sp)
20104b86:	04a1                	addi	s1,s1,8
20104b88:	47b1                	li	a5,12
20104b8a:	ce06                	sw	ra,28(sp)
20104b8c:	cc22                	sw	s0,24(sp)
20104b8e:	c64e                	sw	s3,12(sp)
20104b90:	892a                	mv	s2,a0
20104b92:	0af4f4b3          	maxu	s1,s1,a5
20104b96:	0004c463          	bltz	s1,20104b9e <_malloc_r+0x24>
20104b9a:	00b4fd63          	bgeu	s1,a1,20104bb4 <_malloc_r+0x3a>
20104b9e:	47b1                	li	a5,12
20104ba0:	00f92023          	sw	a5,0(s2)
20104ba4:	4501                	li	a0,0
20104ba6:	40f2                	lw	ra,28(sp)
20104ba8:	4462                	lw	s0,24(sp)
20104baa:	44d2                	lw	s1,20(sp)
20104bac:	4942                	lw	s2,16(sp)
20104bae:	49b2                	lw	s3,12(sp)
20104bb0:	6105                	addi	sp,sp,32
20104bb2:	8082                	ret
20104bb4:	23f1                	jal	20105180 <__malloc_lock>
20104bb6:	00041997          	auipc	s3,0x41
20104bba:	dbe98993          	addi	s3,s3,-578 # 20145974 <__malloc_free_list>
20104bbe:	0009a783          	lw	a5,0(s3)
20104bc2:	843e                	mv	s0,a5
20104bc4:	e439                	bnez	s0,20104c12 <_malloc_r+0x98>
20104bc6:	85a6                	mv	a1,s1
20104bc8:	854a                	mv	a0,s2
20104bca:	3fa1                	jal	20104b22 <sbrk_aligned>
20104bcc:	57fd                	li	a5,-1
20104bce:	842a                	mv	s0,a0
20104bd0:	0af51763          	bne	a0,a5,20104c7e <_malloc_r+0x104>
20104bd4:	0009a403          	lw	s0,0(s3)
20104bd8:	87a2                	mv	a5,s0
20104bda:	ebc9                	bnez	a5,20104c6c <_malloc_r+0xf2>
20104bdc:	00042983          	lw	s3,0(s0)
20104be0:	4581                	li	a1,0
20104be2:	854a                	mv	a0,s2
20104be4:	99a2                	add	s3,s3,s0
20104be6:	2e75                	jal	20104fa2 <_sbrk_r>
20104be8:	08a99563          	bne	s3,a0,20104c72 <_malloc_r+0xf8>
20104bec:	401c                	lw	a5,0(s0)
20104bee:	048d                	addi	s1,s1,3
20104bf0:	854a                	mv	a0,s2
20104bf2:	8c9d                	sub	s1,s1,a5
20104bf4:	98f1                	andi	s1,s1,-4
20104bf6:	47b1                	li	a5,12
20104bf8:	04a1                	addi	s1,s1,8
20104bfa:	0af4f4b3          	maxu	s1,s1,a5
20104bfe:	85a6                	mv	a1,s1
20104c00:	f23ff0ef          	jal	ra,20104b22 <sbrk_aligned>
20104c04:	57fd                	li	a5,-1
20104c06:	06f50663          	beq	a0,a5,20104c72 <_malloc_r+0xf8>
20104c0a:	401c                	lw	a5,0(s0)
20104c0c:	97a6                	add	a5,a5,s1
20104c0e:	c01c                	sw	a5,0(s0)
20104c10:	a015                	j	20104c34 <_malloc_r+0xba>
20104c12:	4014                	lw	a3,0(s0)
20104c14:	8e85                	sub	a3,a3,s1
20104c16:	0406c863          	bltz	a3,20104c66 <_malloc_r+0xec>
20104c1a:	472d                	li	a4,11
20104c1c:	02d77d63          	bgeu	a4,a3,20104c56 <_malloc_r+0xdc>
20104c20:	c004                	sw	s1,0(s0)
20104c22:	00940733          	add	a4,s0,s1
20104c26:	02879663          	bne	a5,s0,20104c52 <_malloc_r+0xd8>
20104c2a:	00e9a023          	sw	a4,0(s3)
20104c2e:	405c                	lw	a5,4(s0)
20104c30:	c314                	sw	a3,0(a4)
20104c32:	c35c                	sw	a5,4(a4)
20104c34:	854a                	mv	a0,s2
20104c36:	2b99                	jal	2010518c <__malloc_unlock>
20104c38:	00b40513          	addi	a0,s0,11
20104c3c:	00440793          	addi	a5,s0,4
20104c40:	9961                	andi	a0,a0,-8
20104c42:	40f50733          	sub	a4,a0,a5
20104c46:	f6f500e3          	beq	a0,a5,20104ba6 <_malloc_r+0x2c>
20104c4a:	943a                	add	s0,s0,a4
20104c4c:	8f89                	sub	a5,a5,a0
20104c4e:	c01c                	sw	a5,0(s0)
20104c50:	bf99                	j	20104ba6 <_malloc_r+0x2c>
20104c52:	c3d8                	sw	a4,4(a5)
20104c54:	bfe9                	j	20104c2e <_malloc_r+0xb4>
20104c56:	4058                	lw	a4,4(s0)
20104c58:	00879563          	bne	a5,s0,20104c62 <_malloc_r+0xe8>
20104c5c:	00e9a023          	sw	a4,0(s3)
20104c60:	bfd1                	j	20104c34 <_malloc_r+0xba>
20104c62:	c3d8                	sw	a4,4(a5)
20104c64:	bfc1                	j	20104c34 <_malloc_r+0xba>
20104c66:	87a2                	mv	a5,s0
20104c68:	4040                	lw	s0,4(s0)
20104c6a:	bfa9                	j	20104bc4 <_malloc_r+0x4a>
20104c6c:	843e                	mv	s0,a5
20104c6e:	43dc                	lw	a5,4(a5)
20104c70:	b7ad                	j	20104bda <_malloc_r+0x60>
20104c72:	47b1                	li	a5,12
20104c74:	00f92023          	sw	a5,0(s2)
20104c78:	854a                	mv	a0,s2
20104c7a:	2b09                	jal	2010518c <__malloc_unlock>
20104c7c:	b725                	j	20104ba4 <_malloc_r+0x2a>
20104c7e:	c104                	sw	s1,0(a0)
20104c80:	bf55                	j	20104c34 <_malloc_r+0xba>

20104c82 <__sfputc_r>:
20104c82:	461c                	lw	a5,8(a2)
20104c84:	17fd                	addi	a5,a5,-1
20104c86:	c61c                	sw	a5,8(a2)
20104c88:	0007da63          	bgez	a5,20104c9c <__sfputc_r+0x1a>
20104c8c:	4e18                	lw	a4,24(a2)
20104c8e:	00e7c563          	blt	a5,a4,20104c98 <__sfputc_r+0x16>
20104c92:	47a9                	li	a5,10
20104c94:	00f59463          	bne	a1,a5,20104c9c <__sfputc_r+0x1a>
20104c98:	f3eff06f          	j	201043d6 <__swbuf_r>
20104c9c:	421c                	lw	a5,0(a2)
20104c9e:	852e                	mv	a0,a1
20104ca0:	00178713          	addi	a4,a5,1
20104ca4:	c218                	sw	a4,0(a2)
20104ca6:	a38c                	sb	a1,0(a5)
20104ca8:	8082                	ret

20104caa <__sfputs_r>:
20104caa:	1101                	addi	sp,sp,-32
20104cac:	cc22                	sw	s0,24(sp)
20104cae:	ca26                	sw	s1,20(sp)
20104cb0:	c84a                	sw	s2,16(sp)
20104cb2:	c64e                	sw	s3,12(sp)
20104cb4:	c452                	sw	s4,8(sp)
20104cb6:	ce06                	sw	ra,28(sp)
20104cb8:	892a                	mv	s2,a0
20104cba:	89ae                	mv	s3,a1
20104cbc:	8432                	mv	s0,a2
20104cbe:	00d604b3          	add	s1,a2,a3
20104cc2:	5a7d                	li	s4,-1
20104cc4:	00941463          	bne	s0,s1,20104ccc <__sfputs_r+0x22>
20104cc8:	4501                	li	a0,0
20104cca:	a801                	j	20104cda <__sfputs_r+0x30>
20104ccc:	200c                	lbu	a1,0(s0)
20104cce:	864e                	mv	a2,s3
20104cd0:	854a                	mv	a0,s2
20104cd2:	3f45                	jal	20104c82 <__sfputc_r>
20104cd4:	0405                	addi	s0,s0,1
20104cd6:	ff4517e3          	bne	a0,s4,20104cc4 <__sfputs_r+0x1a>
20104cda:	40f2                	lw	ra,28(sp)
20104cdc:	4462                	lw	s0,24(sp)
20104cde:	44d2                	lw	s1,20(sp)
20104ce0:	4942                	lw	s2,16(sp)
20104ce2:	49b2                	lw	s3,12(sp)
20104ce4:	4a22                	lw	s4,8(sp)
20104ce6:	6105                	addi	sp,sp,32
20104ce8:	8082                	ret

20104cea <_vfiprintf_r>:
20104cea:	7135                	addi	sp,sp,-160
20104cec:	cd22                	sw	s0,152(sp)
20104cee:	cb26                	sw	s1,148(sp)
20104cf0:	c94a                	sw	s2,144(sp)
20104cf2:	c74e                	sw	s3,140(sp)
20104cf4:	cf06                	sw	ra,156(sp)
20104cf6:	c552                	sw	s4,136(sp)
20104cf8:	c356                	sw	s5,132(sp)
20104cfa:	c15a                	sw	s6,128(sp)
20104cfc:	dede                	sw	s7,124(sp)
20104cfe:	dce2                	sw	s8,120(sp)
20104d00:	89aa                	mv	s3,a0
20104d02:	842e                	mv	s0,a1
20104d04:	8932                	mv	s2,a2
20104d06:	84b6                	mv	s1,a3
20104d08:	c509                	beqz	a0,20104d12 <_vfiprintf_r+0x28>
20104d0a:	4d1c                	lw	a5,24(a0)
20104d0c:	e399                	bnez	a5,20104d12 <_vfiprintf_r+0x28>
20104d0e:	b09ff0ef          	jal	ra,20104816 <__sinit>
20104d12:	00001797          	auipc	a5,0x1
20104d16:	4fa78793          	addi	a5,a5,1274 # 2010620c <__sf_fake_stdin>
20104d1a:	04f41863          	bne	s0,a5,20104d6a <_vfiprintf_r+0x80>
20104d1e:	0049a403          	lw	s0,4(s3)
20104d22:	507c                	lw	a5,100(s0)
20104d24:	8b85                	andi	a5,a5,1
20104d26:	eb81                	bnez	a5,20104d36 <_vfiprintf_r+0x4c>
20104d28:	245e                	lhu	a5,12(s0)
20104d2a:	2007f793          	andi	a5,a5,512
20104d2e:	e781                	bnez	a5,20104d36 <_vfiprintf_r+0x4c>
20104d30:	4c28                	lw	a0,88(s0)
20104d32:	c61ff0ef          	jal	ra,20104992 <__retarget_lock_acquire_recursive>
20104d36:	245e                	lhu	a5,12(s0)
20104d38:	8ba1                	andi	a5,a5,8
20104d3a:	c399                	beqz	a5,20104d40 <_vfiprintf_r+0x56>
20104d3c:	481c                	lw	a5,16(s0)
20104d3e:	e3a5                	bnez	a5,20104d9e <_vfiprintf_r+0xb4>
20104d40:	85a2                	mv	a1,s0
20104d42:	854e                	mv	a0,s3
20104d44:	f4eff0ef          	jal	ra,20104492 <__swsetup_r>
20104d48:	c939                	beqz	a0,20104d9e <_vfiprintf_r+0xb4>
20104d4a:	507c                	lw	a5,100(s0)
20104d4c:	8b85                	andi	a5,a5,1
20104d4e:	c3a1                	beqz	a5,20104d8e <_vfiprintf_r+0xa4>
20104d50:	557d                	li	a0,-1
20104d52:	40fa                	lw	ra,156(sp)
20104d54:	446a                	lw	s0,152(sp)
20104d56:	44da                	lw	s1,148(sp)
20104d58:	494a                	lw	s2,144(sp)
20104d5a:	49ba                	lw	s3,140(sp)
20104d5c:	4a2a                	lw	s4,136(sp)
20104d5e:	4a9a                	lw	s5,132(sp)
20104d60:	4b0a                	lw	s6,128(sp)
20104d62:	5bf6                	lw	s7,124(sp)
20104d64:	5c66                	lw	s8,120(sp)
20104d66:	610d                	addi	sp,sp,160
20104d68:	8082                	ret
20104d6a:	00001797          	auipc	a5,0x1
20104d6e:	48278793          	addi	a5,a5,1154 # 201061ec <__sf_fake_stdout>
20104d72:	00f41563          	bne	s0,a5,20104d7c <_vfiprintf_r+0x92>
20104d76:	0089a403          	lw	s0,8(s3)
20104d7a:	b765                	j	20104d22 <_vfiprintf_r+0x38>
20104d7c:	00001797          	auipc	a5,0x1
20104d80:	45078793          	addi	a5,a5,1104 # 201061cc <__sf_fake_stderr>
20104d84:	f8f41fe3          	bne	s0,a5,20104d22 <_vfiprintf_r+0x38>
20104d88:	00c9a403          	lw	s0,12(s3)
20104d8c:	bf59                	j	20104d22 <_vfiprintf_r+0x38>
20104d8e:	245e                	lhu	a5,12(s0)
20104d90:	2007f793          	andi	a5,a5,512
20104d94:	ffd5                	bnez	a5,20104d50 <_vfiprintf_r+0x66>
20104d96:	4c28                	lw	a0,88(s0)
20104d98:	bfdff0ef          	jal	ra,20104994 <__retarget_lock_release_recursive>
20104d9c:	bf55                	j	20104d50 <_vfiprintf_r+0x66>
20104d9e:	02000793          	li	a5,32
20104da2:	02f104a3          	sb	a5,41(sp)
20104da6:	03000793          	li	a5,48
20104daa:	d202                	sw	zero,36(sp)
20104dac:	02f10523          	sb	a5,42(sp)
20104db0:	c626                	sw	s1,12(sp)
20104db2:	02500b93          	li	s7,37
20104db6:	00001a97          	auipc	s5,0x1
20104dba:	476a8a93          	addi	s5,s5,1142 # 2010622c <__sf_fake_stdin+0x20>
20104dbe:	4b29                	li	s6,10
20104dc0:	84ca                	mv	s1,s2
20104dc2:	209c                	lbu	a5,0(s1)
20104dc4:	c399                	beqz	a5,20104dca <_vfiprintf_r+0xe0>
20104dc6:	09779a63          	bne	a5,s7,20104e5a <_vfiprintf_r+0x170>
20104dca:	41248c33          	sub	s8,s1,s2
20104dce:	01248e63          	beq	s1,s2,20104dea <_vfiprintf_r+0x100>
20104dd2:	86e2                	mv	a3,s8
20104dd4:	864a                	mv	a2,s2
20104dd6:	85a2                	mv	a1,s0
20104dd8:	854e                	mv	a0,s3
20104dda:	ed1ff0ef          	jal	ra,20104caa <__sfputs_r>
20104dde:	57fd                	li	a5,-1
20104de0:	18f50663          	beq	a0,a5,20104f6c <_vfiprintf_r+0x282>
20104de4:	5792                	lw	a5,36(sp)
20104de6:	97e2                	add	a5,a5,s8
20104de8:	d23e                	sw	a5,36(sp)
20104dea:	209c                	lbu	a5,0(s1)
20104dec:	18078063          	beqz	a5,20104f6c <_vfiprintf_r+0x282>
20104df0:	57fd                	li	a5,-1
20104df2:	00148913          	addi	s2,s1,1
20104df6:	c802                	sw	zero,16(sp)
20104df8:	ce02                	sw	zero,28(sp)
20104dfa:	ca3e                	sw	a5,20(sp)
20104dfc:	cc02                	sw	zero,24(sp)
20104dfe:	040109a3          	sb	zero,83(sp)
20104e02:	d482                	sw	zero,104(sp)
20104e04:	00094583          	lbu	a1,0(s2)
20104e08:	4615                	li	a2,5
20104e0a:	8556                	mv	a0,s5
20104e0c:	2eb1                	jal	20105168 <memchr>
20104e0e:	47c2                	lw	a5,16(sp)
20104e10:	00190493          	addi	s1,s2,1
20104e14:	e529                	bnez	a0,20104e5e <_vfiprintf_r+0x174>
20104e16:	0107f713          	andi	a4,a5,16
20104e1a:	c709                	beqz	a4,20104e24 <_vfiprintf_r+0x13a>
20104e1c:	02000713          	li	a4,32
20104e20:	04e109a3          	sb	a4,83(sp)
20104e24:	0087f713          	andi	a4,a5,8
20104e28:	c709                	beqz	a4,20104e32 <_vfiprintf_r+0x148>
20104e2a:	02b00713          	li	a4,43
20104e2e:	04e109a3          	sb	a4,83(sp)
20104e32:	00094683          	lbu	a3,0(s2)
20104e36:	02a00713          	li	a4,42
20104e3a:	02e68963          	beq	a3,a4,20104e6c <_vfiprintf_r+0x182>
20104e3e:	47f2                	lw	a5,28(sp)
20104e40:	84ca                	mv	s1,s2
20104e42:	4681                	li	a3,0
20104e44:	4625                	li	a2,9
20104e46:	2098                	lbu	a4,0(s1)
20104e48:	00148593          	addi	a1,s1,1
20104e4c:	fd070713          	addi	a4,a4,-48
20104e50:	06e67263          	bgeu	a2,a4,20104eb4 <_vfiprintf_r+0x1ca>
20104e54:	c685                	beqz	a3,20104e7c <_vfiprintf_r+0x192>
20104e56:	ce3e                	sw	a5,28(sp)
20104e58:	a015                	j	20104e7c <_vfiprintf_r+0x192>
20104e5a:	0485                	addi	s1,s1,1
20104e5c:	b79d                	j	20104dc2 <_vfiprintf_r+0xd8>
20104e5e:	41550533          	sub	a0,a0,s5
20104e62:	28a797b3          	bset	a5,a5,a0
20104e66:	8926                	mv	s2,s1
20104e68:	c83e                	sw	a5,16(sp)
20104e6a:	bf69                	j	20104e04 <_vfiprintf_r+0x11a>
20104e6c:	4732                	lw	a4,12(sp)
20104e6e:	00470693          	addi	a3,a4,4
20104e72:	4318                	lw	a4,0(a4)
20104e74:	c636                	sw	a3,12(sp)
20104e76:	02074863          	bltz	a4,20104ea6 <_vfiprintf_r+0x1bc>
20104e7a:	ce3a                	sw	a4,28(sp)
20104e7c:	2098                	lbu	a4,0(s1)
20104e7e:	02e00793          	li	a5,46
20104e82:	04f71c63          	bne	a4,a5,20104eda <_vfiprintf_r+0x1f0>
20104e86:	3098                	lbu	a4,1(s1)
20104e88:	02a00793          	li	a5,42
20104e8c:	02f71a63          	bne	a4,a5,20104ec0 <_vfiprintf_r+0x1d6>
20104e90:	47b2                	lw	a5,12(sp)
20104e92:	0489                	addi	s1,s1,2
20104e94:	00478713          	addi	a4,a5,4
20104e98:	439c                	lw	a5,0(a5)
20104e9a:	c63a                	sw	a4,12(sp)
20104e9c:	577d                	li	a4,-1
20104e9e:	0ae7e7b3          	max	a5,a5,a4
20104ea2:	ca3e                	sw	a5,20(sp)
20104ea4:	a81d                	j	20104eda <_vfiprintf_r+0x1f0>
20104ea6:	40e00733          	neg	a4,a4
20104eaa:	0027e793          	ori	a5,a5,2
20104eae:	ce3a                	sw	a4,28(sp)
20104eb0:	c83e                	sw	a5,16(sp)
20104eb2:	b7e9                	j	20104e7c <_vfiprintf_r+0x192>
20104eb4:	036787b3          	mul	a5,a5,s6
20104eb8:	84ae                	mv	s1,a1
20104eba:	4685                	li	a3,1
20104ebc:	97ba                	add	a5,a5,a4
20104ebe:	b761                	j	20104e46 <_vfiprintf_r+0x15c>
20104ec0:	0485                	addi	s1,s1,1
20104ec2:	ca02                	sw	zero,20(sp)
20104ec4:	4681                	li	a3,0
20104ec6:	4781                	li	a5,0
20104ec8:	4625                	li	a2,9
20104eca:	2098                	lbu	a4,0(s1)
20104ecc:	00148593          	addi	a1,s1,1
20104ed0:	fd070713          	addi	a4,a4,-48
20104ed4:	06e67263          	bgeu	a2,a4,20104f38 <_vfiprintf_r+0x24e>
20104ed8:	f6e9                	bnez	a3,20104ea2 <_vfiprintf_r+0x1b8>
20104eda:	208c                	lbu	a1,0(s1)
20104edc:	460d                	li	a2,3
20104ede:	00001517          	auipc	a0,0x1
20104ee2:	35650513          	addi	a0,a0,854 # 20106234 <__sf_fake_stdin+0x28>
20104ee6:	2449                	jal	20105168 <memchr>
20104ee8:	cd11                	beqz	a0,20104f04 <_vfiprintf_r+0x21a>
20104eea:	00001797          	auipc	a5,0x1
20104eee:	34a78793          	addi	a5,a5,842 # 20106234 <__sf_fake_stdin+0x28>
20104ef2:	8d1d                	sub	a0,a0,a5
20104ef4:	47c2                	lw	a5,16(sp)
20104ef6:	04000713          	li	a4,64
20104efa:	00a71733          	sll	a4,a4,a0
20104efe:	8fd9                	or	a5,a5,a4
20104f00:	0485                	addi	s1,s1,1
20104f02:	c83e                	sw	a5,16(sp)
20104f04:	208c                	lbu	a1,0(s1)
20104f06:	4619                	li	a2,6
20104f08:	00001517          	auipc	a0,0x1
20104f0c:	33050513          	addi	a0,a0,816 # 20106238 <__sf_fake_stdin+0x2c>
20104f10:	00148913          	addi	s2,s1,1
20104f14:	02b10423          	sb	a1,40(sp)
20104f18:	2c81                	jal	20105168 <memchr>
20104f1a:	c935                	beqz	a0,20104f8e <_vfiprintf_r+0x2a4>
20104f1c:	00000793          	li	a5,0
20104f20:	e795                	bnez	a5,20104f4c <_vfiprintf_r+0x262>
20104f22:	4742                	lw	a4,16(sp)
20104f24:	47b2                	lw	a5,12(sp)
20104f26:	10077713          	andi	a4,a4,256
20104f2a:	cf09                	beqz	a4,20104f44 <_vfiprintf_r+0x25a>
20104f2c:	0791                	addi	a5,a5,4
20104f2e:	c63e                	sw	a5,12(sp)
20104f30:	5792                	lw	a5,36(sp)
20104f32:	97d2                	add	a5,a5,s4
20104f34:	d23e                	sw	a5,36(sp)
20104f36:	b569                	j	20104dc0 <_vfiprintf_r+0xd6>
20104f38:	036787b3          	mul	a5,a5,s6
20104f3c:	84ae                	mv	s1,a1
20104f3e:	4685                	li	a3,1
20104f40:	97ba                	add	a5,a5,a4
20104f42:	b761                	j	20104eca <_vfiprintf_r+0x1e0>
20104f44:	079d                	addi	a5,a5,7
20104f46:	9be1                	andi	a5,a5,-8
20104f48:	07a1                	addi	a5,a5,8
20104f4a:	b7d5                	j	20104f2e <_vfiprintf_r+0x244>
20104f4c:	0078                	addi	a4,sp,12
20104f4e:	00000697          	auipc	a3,0x0
20104f52:	d5c68693          	addi	a3,a3,-676 # 20104caa <__sfputs_r>
20104f56:	8622                	mv	a2,s0
20104f58:	080c                	addi	a1,sp,16
20104f5a:	854e                	mv	a0,s3
20104f5c:	00000097          	auipc	ra,0x0
20104f60:	000000e7          	jalr	zero # 0 <_sinit>
20104f64:	57fd                	li	a5,-1
20104f66:	8a2a                	mv	s4,a0
20104f68:	fcf514e3          	bne	a0,a5,20104f30 <_vfiprintf_r+0x246>
20104f6c:	507c                	lw	a5,100(s0)
20104f6e:	8b85                	andi	a5,a5,1
20104f70:	eb81                	bnez	a5,20104f80 <_vfiprintf_r+0x296>
20104f72:	245e                	lhu	a5,12(s0)
20104f74:	2007f793          	andi	a5,a5,512
20104f78:	e781                	bnez	a5,20104f80 <_vfiprintf_r+0x296>
20104f7a:	4c28                	lw	a0,88(s0)
20104f7c:	a19ff0ef          	jal	ra,20104994 <__retarget_lock_release_recursive>
20104f80:	245e                	lhu	a5,12(s0)
20104f82:	0407f793          	andi	a5,a5,64
20104f86:	dc0795e3          	bnez	a5,20104d50 <_vfiprintf_r+0x66>
20104f8a:	5512                	lw	a0,36(sp)
20104f8c:	b3d9                	j	20104d52 <_vfiprintf_r+0x68>
20104f8e:	0078                	addi	a4,sp,12
20104f90:	00000697          	auipc	a3,0x0
20104f94:	d1a68693          	addi	a3,a3,-742 # 20104caa <__sfputs_r>
20104f98:	8622                	mv	a2,s0
20104f9a:	080c                	addi	a1,sp,16
20104f9c:	854e                	mv	a0,s3
20104f9e:	2611                	jal	201052a2 <_printf_i>
20104fa0:	b7d1                	j	20104f64 <_vfiprintf_r+0x27a>

20104fa2 <_sbrk_r>:
20104fa2:	1141                	addi	sp,sp,-16
20104fa4:	c422                	sw	s0,8(sp)
20104fa6:	842a                	mv	s0,a0
20104fa8:	852e                	mv	a0,a1
20104faa:	00041797          	auipc	a5,0x41
20104fae:	9c07a723          	sw	zero,-1586(a5) # 20145978 <errno>
20104fb2:	c606                	sw	ra,12(sp)
20104fb4:	a7afc0ef          	jal	ra,2010122e <_sbrk>
20104fb8:	57fd                	li	a5,-1
20104fba:	00f51863          	bne	a0,a5,20104fca <_sbrk_r+0x28>
20104fbe:	00041797          	auipc	a5,0x41
20104fc2:	9ba7a783          	lw	a5,-1606(a5) # 20145978 <errno>
20104fc6:	c391                	beqz	a5,20104fca <_sbrk_r+0x28>
20104fc8:	c01c                	sw	a5,0(s0)
20104fca:	40b2                	lw	ra,12(sp)
20104fcc:	4422                	lw	s0,8(sp)
20104fce:	0141                	addi	sp,sp,16
20104fd0:	8082                	ret

20104fd2 <__sread>:
20104fd2:	1141                	addi	sp,sp,-16
20104fd4:	c422                	sw	s0,8(sp)
20104fd6:	842e                	mv	s0,a1
20104fd8:	00e59583          	lh	a1,14(a1)
20104fdc:	c606                	sw	ra,12(sp)
20104fde:	2381                	jal	2010551e <_read_r>
20104fe0:	00054963          	bltz	a0,20104ff2 <__sread+0x20>
20104fe4:	487c                	lw	a5,84(s0)
20104fe6:	97aa                	add	a5,a5,a0
20104fe8:	c87c                	sw	a5,84(s0)
20104fea:	40b2                	lw	ra,12(sp)
20104fec:	4422                	lw	s0,8(sp)
20104fee:	0141                	addi	sp,sp,16
20104ff0:	8082                	ret
20104ff2:	245e                	lhu	a5,12(s0)
20104ff4:	48c79793          	bclri	a5,a5,0xc
20104ff8:	a45e                	sh	a5,12(s0)
20104ffa:	bfc5                	j	20104fea <__sread+0x18>

20104ffc <__swrite>:
20104ffc:	25de                	lhu	a5,12(a1)
20104ffe:	1101                	addi	sp,sp,-32
20105000:	cc22                	sw	s0,24(sp)
20105002:	ca26                	sw	s1,20(sp)
20105004:	c84a                	sw	s2,16(sp)
20105006:	c64e                	sw	s3,12(sp)
20105008:	ce06                	sw	ra,28(sp)
2010500a:	1007f793          	andi	a5,a5,256
2010500e:	84aa                	mv	s1,a0
20105010:	842e                	mv	s0,a1
20105012:	8932                	mv	s2,a2
20105014:	89b6                	mv	s3,a3
20105016:	c791                	beqz	a5,20105022 <__swrite+0x26>
20105018:	00e59583          	lh	a1,14(a1)
2010501c:	4689                	li	a3,2
2010501e:	4601                	li	a2,0
20105020:	2a19                	jal	20105136 <_lseek_r>
20105022:	245e                	lhu	a5,12(s0)
20105024:	00e41583          	lh	a1,14(s0)
20105028:	40f2                	lw	ra,28(sp)
2010502a:	48c79793          	bclri	a5,a5,0xc
2010502e:	a45e                	sh	a5,12(s0)
20105030:	4462                	lw	s0,24(sp)
20105032:	86ce                	mv	a3,s3
20105034:	864a                	mv	a2,s2
20105036:	49b2                	lw	s3,12(sp)
20105038:	4942                	lw	s2,16(sp)
2010503a:	8526                	mv	a0,s1
2010503c:	44d2                	lw	s1,20(sp)
2010503e:	6105                	addi	sp,sp,32
20105040:	a81d                	j	20105076 <_write_r>

20105042 <__sseek>:
20105042:	1141                	addi	sp,sp,-16
20105044:	c422                	sw	s0,8(sp)
20105046:	842e                	mv	s0,a1
20105048:	00e59583          	lh	a1,14(a1)
2010504c:	c606                	sw	ra,12(sp)
2010504e:	20e5                	jal	20105136 <_lseek_r>
20105050:	577d                	li	a4,-1
20105052:	245e                	lhu	a5,12(s0)
20105054:	00e51963          	bne	a0,a4,20105066 <__sseek+0x24>
20105058:	48c79793          	bclri	a5,a5,0xc
2010505c:	a45e                	sh	a5,12(s0)
2010505e:	40b2                	lw	ra,12(sp)
20105060:	4422                	lw	s0,8(sp)
20105062:	0141                	addi	sp,sp,16
20105064:	8082                	ret
20105066:	28c79793          	bseti	a5,a5,0xc
2010506a:	c868                	sw	a0,84(s0)
2010506c:	a45e                	sh	a5,12(s0)
2010506e:	bfc5                	j	2010505e <__sseek+0x1c>

20105070 <__sclose>:
20105070:	00e59583          	lh	a1,14(a1)
20105074:	a81d                	j	201050aa <_close_r>

20105076 <_write_r>:
20105076:	1141                	addi	sp,sp,-16
20105078:	c422                	sw	s0,8(sp)
2010507a:	842a                	mv	s0,a0
2010507c:	852e                	mv	a0,a1
2010507e:	85b2                	mv	a1,a2
20105080:	8636                	mv	a2,a3
20105082:	00041797          	auipc	a5,0x41
20105086:	8e07ab23          	sw	zero,-1802(a5) # 20145978 <errno>
2010508a:	c606                	sw	ra,12(sp)
2010508c:	968fc0ef          	jal	ra,201011f4 <_write>
20105090:	57fd                	li	a5,-1
20105092:	00f51863          	bne	a0,a5,201050a2 <_write_r+0x2c>
20105096:	00041797          	auipc	a5,0x41
2010509a:	8e27a783          	lw	a5,-1822(a5) # 20145978 <errno>
2010509e:	c391                	beqz	a5,201050a2 <_write_r+0x2c>
201050a0:	c01c                	sw	a5,0(s0)
201050a2:	40b2                	lw	ra,12(sp)
201050a4:	4422                	lw	s0,8(sp)
201050a6:	0141                	addi	sp,sp,16
201050a8:	8082                	ret

201050aa <_close_r>:
201050aa:	1141                	addi	sp,sp,-16
201050ac:	c422                	sw	s0,8(sp)
201050ae:	842a                	mv	s0,a0
201050b0:	852e                	mv	a0,a1
201050b2:	00041797          	auipc	a5,0x41
201050b6:	8c07a323          	sw	zero,-1850(a5) # 20145978 <errno>
201050ba:	c606                	sw	ra,12(sp)
201050bc:	2951                	jal	20105550 <_close>
201050be:	57fd                	li	a5,-1
201050c0:	00f51863          	bne	a0,a5,201050d0 <_close_r+0x26>
201050c4:	00041797          	auipc	a5,0x41
201050c8:	8b47a783          	lw	a5,-1868(a5) # 20145978 <errno>
201050cc:	c391                	beqz	a5,201050d0 <_close_r+0x26>
201050ce:	c01c                	sw	a5,0(s0)
201050d0:	40b2                	lw	ra,12(sp)
201050d2:	4422                	lw	s0,8(sp)
201050d4:	0141                	addi	sp,sp,16
201050d6:	8082                	ret

201050d8 <_fstat_r>:
201050d8:	1141                	addi	sp,sp,-16
201050da:	c422                	sw	s0,8(sp)
201050dc:	842a                	mv	s0,a0
201050de:	852e                	mv	a0,a1
201050e0:	85b2                	mv	a1,a2
201050e2:	00041797          	auipc	a5,0x41
201050e6:	8807ab23          	sw	zero,-1898(a5) # 20145978 <errno>
201050ea:	c606                	sw	ra,12(sp)
201050ec:	2995                	jal	20105560 <_fstat>
201050ee:	57fd                	li	a5,-1
201050f0:	00f51863          	bne	a0,a5,20105100 <_fstat_r+0x28>
201050f4:	00041797          	auipc	a5,0x41
201050f8:	8847a783          	lw	a5,-1916(a5) # 20145978 <errno>
201050fc:	c391                	beqz	a5,20105100 <_fstat_r+0x28>
201050fe:	c01c                	sw	a5,0(s0)
20105100:	40b2                	lw	ra,12(sp)
20105102:	4422                	lw	s0,8(sp)
20105104:	0141                	addi	sp,sp,16
20105106:	8082                	ret

20105108 <_isatty_r>:
20105108:	1141                	addi	sp,sp,-16
2010510a:	c422                	sw	s0,8(sp)
2010510c:	842a                	mv	s0,a0
2010510e:	852e                	mv	a0,a1
20105110:	00041797          	auipc	a5,0x41
20105114:	8607a423          	sw	zero,-1944(a5) # 20145978 <errno>
20105118:	c606                	sw	ra,12(sp)
2010511a:	2999                	jal	20105570 <_isatty>
2010511c:	57fd                	li	a5,-1
2010511e:	00f51863          	bne	a0,a5,2010512e <_isatty_r+0x26>
20105122:	00041797          	auipc	a5,0x41
20105126:	8567a783          	lw	a5,-1962(a5) # 20145978 <errno>
2010512a:	c391                	beqz	a5,2010512e <_isatty_r+0x26>
2010512c:	c01c                	sw	a5,0(s0)
2010512e:	40b2                	lw	ra,12(sp)
20105130:	4422                	lw	s0,8(sp)
20105132:	0141                	addi	sp,sp,16
20105134:	8082                	ret

20105136 <_lseek_r>:
20105136:	1141                	addi	sp,sp,-16
20105138:	c422                	sw	s0,8(sp)
2010513a:	842a                	mv	s0,a0
2010513c:	852e                	mv	a0,a1
2010513e:	85b2                	mv	a1,a2
20105140:	8636                	mv	a2,a3
20105142:	00041797          	auipc	a5,0x41
20105146:	8207ab23          	sw	zero,-1994(a5) # 20145978 <errno>
2010514a:	c606                	sw	ra,12(sp)
2010514c:	2915                	jal	20105580 <_lseek>
2010514e:	57fd                	li	a5,-1
20105150:	00f51863          	bne	a0,a5,20105160 <_lseek_r+0x2a>
20105154:	00041797          	auipc	a5,0x41
20105158:	8247a783          	lw	a5,-2012(a5) # 20145978 <errno>
2010515c:	c391                	beqz	a5,20105160 <_lseek_r+0x2a>
2010515e:	c01c                	sw	a5,0(s0)
20105160:	40b2                	lw	ra,12(sp)
20105162:	4422                	lw	s0,8(sp)
20105164:	0141                	addi	sp,sp,16
20105166:	8082                	ret

20105168 <memchr>:
20105168:	0ff5f593          	zext.b	a1,a1
2010516c:	962a                	add	a2,a2,a0
2010516e:	00c51463          	bne	a0,a2,20105176 <memchr+0xe>
20105172:	4501                	li	a0,0
20105174:	8082                	ret
20105176:	211c                	lbu	a5,0(a0)
20105178:	feb78ee3          	beq	a5,a1,20105174 <memchr+0xc>
2010517c:	0505                	addi	a0,a0,1
2010517e:	bfc5                	j	2010516e <memchr+0x6>

20105180 <__malloc_lock>:
20105180:	00040517          	auipc	a0,0x40
20105184:	7e450513          	addi	a0,a0,2020 # 20145964 <__lock___malloc_recursive_mutex>
20105188:	80bff06f          	j	20104992 <__retarget_lock_acquire_recursive>

2010518c <__malloc_unlock>:
2010518c:	00040517          	auipc	a0,0x40
20105190:	7d850513          	addi	a0,a0,2008 # 20145964 <__lock___malloc_recursive_mutex>
20105194:	801ff06f          	j	20104994 <__retarget_lock_release_recursive>

20105198 <_printf_common>:
20105198:	7179                	addi	sp,sp,-48
2010519a:	ca56                	sw	s5,20(sp)
2010519c:	499c                	lw	a5,16(a1)
2010519e:	8aba                	mv	s5,a4
201051a0:	4598                	lw	a4,8(a1)
201051a2:	d422                	sw	s0,40(sp)
201051a4:	d04a                	sw	s2,32(sp)
201051a6:	ce4e                	sw	s3,28(sp)
201051a8:	cc52                	sw	s4,24(sp)
201051aa:	d606                	sw	ra,44(sp)
201051ac:	d226                	sw	s1,36(sp)
201051ae:	c85a                	sw	s6,16(sp)
201051b0:	c65e                	sw	s7,12(sp)
201051b2:	0ae7e7b3          	max	a5,a5,a4
201051b6:	c21c                	sw	a5,0(a2)
201051b8:	0435c703          	lbu	a4,67(a1)
201051bc:	89aa                	mv	s3,a0
201051be:	842e                	mv	s0,a1
201051c0:	8932                	mv	s2,a2
201051c2:	8a36                	mv	s4,a3
201051c4:	c319                	beqz	a4,201051ca <_printf_common+0x32>
201051c6:	0785                	addi	a5,a5,1
201051c8:	c21c                	sw	a5,0(a2)
201051ca:	401c                	lw	a5,0(s0)
201051cc:	0207f793          	andi	a5,a5,32
201051d0:	c791                	beqz	a5,201051dc <_printf_common+0x44>
201051d2:	00092783          	lw	a5,0(s2)
201051d6:	0789                	addi	a5,a5,2
201051d8:	00f92023          	sw	a5,0(s2)
201051dc:	4004                	lw	s1,0(s0)
201051de:	8899                	andi	s1,s1,6
201051e0:	e891                	bnez	s1,201051f4 <_printf_common+0x5c>
201051e2:	01940b13          	addi	s6,s0,25
201051e6:	5bfd                	li	s7,-1
201051e8:	445c                	lw	a5,12(s0)
201051ea:	00092703          	lw	a4,0(s2)
201051ee:	8f99                	sub	a5,a5,a4
201051f0:	04f4cc63          	blt	s1,a5,20105248 <_printf_common+0xb0>
201051f4:	04344783          	lbu	a5,67(s0)
201051f8:	00f036b3          	snez	a3,a5
201051fc:	401c                	lw	a5,0(s0)
201051fe:	0207f793          	andi	a5,a5,32
20105202:	eba5                	bnez	a5,20105272 <_printf_common+0xda>
20105204:	04340613          	addi	a2,s0,67
20105208:	85d2                	mv	a1,s4
2010520a:	854e                	mv	a0,s3
2010520c:	9a82                	jalr	s5
2010520e:	57fd                	li	a5,-1
20105210:	04f50363          	beq	a0,a5,20105256 <_printf_common+0xbe>
20105214:	401c                	lw	a5,0(s0)
20105216:	4711                	li	a4,4
20105218:	4481                	li	s1,0
2010521a:	8b99                	andi	a5,a5,6
2010521c:	00e79963          	bne	a5,a4,2010522e <_printf_common+0x96>
20105220:	00092783          	lw	a5,0(s2)
20105224:	4444                	lw	s1,12(s0)
20105226:	8c9d                	sub	s1,s1,a5
20105228:	4781                	li	a5,0
2010522a:	0af4e4b3          	max	s1,s1,a5
2010522e:	441c                	lw	a5,8(s0)
20105230:	4818                	lw	a4,16(s0)
20105232:	00f75463          	bge	a4,a5,2010523a <_printf_common+0xa2>
20105236:	8f99                	sub	a5,a5,a4
20105238:	94be                	add	s1,s1,a5
2010523a:	4901                	li	s2,0
2010523c:	0469                	addi	s0,s0,26
2010523e:	5b7d                	li	s6,-1
20105240:	05249863          	bne	s1,s2,20105290 <_printf_common+0xf8>
20105244:	4501                	li	a0,0
20105246:	a809                	j	20105258 <_printf_common+0xc0>
20105248:	4685                	li	a3,1
2010524a:	865a                	mv	a2,s6
2010524c:	85d2                	mv	a1,s4
2010524e:	854e                	mv	a0,s3
20105250:	9a82                	jalr	s5
20105252:	01751e63          	bne	a0,s7,2010526e <_printf_common+0xd6>
20105256:	557d                	li	a0,-1
20105258:	50b2                	lw	ra,44(sp)
2010525a:	5422                	lw	s0,40(sp)
2010525c:	5492                	lw	s1,36(sp)
2010525e:	5902                	lw	s2,32(sp)
20105260:	49f2                	lw	s3,28(sp)
20105262:	4a62                	lw	s4,24(sp)
20105264:	4ad2                	lw	s5,20(sp)
20105266:	4b42                	lw	s6,16(sp)
20105268:	4bb2                	lw	s7,12(sp)
2010526a:	6145                	addi	sp,sp,48
2010526c:	8082                	ret
2010526e:	0485                	addi	s1,s1,1
20105270:	bfa5                	j	201051e8 <_printf_common+0x50>
20105272:	00d40733          	add	a4,s0,a3
20105276:	03000613          	li	a2,48
2010527a:	04c701a3          	sb	a2,67(a4)
2010527e:	04544703          	lbu	a4,69(s0)
20105282:	00168793          	addi	a5,a3,1
20105286:	97a2                	add	a5,a5,s0
20105288:	0689                	addi	a3,a3,2
2010528a:	04e781a3          	sb	a4,67(a5)
2010528e:	bf9d                	j	20105204 <_printf_common+0x6c>
20105290:	4685                	li	a3,1
20105292:	8622                	mv	a2,s0
20105294:	85d2                	mv	a1,s4
20105296:	854e                	mv	a0,s3
20105298:	9a82                	jalr	s5
2010529a:	fb650ee3          	beq	a0,s6,20105256 <_printf_common+0xbe>
2010529e:	0905                	addi	s2,s2,1
201052a0:	b745                	j	20105240 <_printf_common+0xa8>

201052a2 <_printf_i>:
201052a2:	7179                	addi	sp,sp,-48
201052a4:	d422                	sw	s0,40(sp)
201052a6:	d04a                	sw	s2,32(sp)
201052a8:	ce4e                	sw	s3,28(sp)
201052aa:	cc52                	sw	s4,24(sp)
201052ac:	d606                	sw	ra,44(sp)
201052ae:	d226                	sw	s1,36(sp)
201052b0:	ca56                	sw	s5,20(sp)
201052b2:	c85a                	sw	s6,16(sp)
201052b4:	0185c803          	lbu	a6,24(a1)
201052b8:	07800793          	li	a5,120
201052bc:	892a                	mv	s2,a0
201052be:	842e                	mv	s0,a1
201052c0:	89b2                	mv	s3,a2
201052c2:	8a36                	mv	s4,a3
201052c4:	0307e263          	bltu	a5,a6,201052e8 <_printf_i+0x46>
201052c8:	06200793          	li	a5,98
201052cc:	04358693          	addi	a3,a1,67
201052d0:	0307e163          	bltu	a5,a6,201052f2 <_printf_i+0x50>
201052d4:	1c080c63          	beqz	a6,201054ac <_printf_i+0x20a>
201052d8:	05800793          	li	a5,88
201052dc:	00001617          	auipc	a2,0x1
201052e0:	f6460613          	addi	a2,a2,-156 # 20106240 <__sf_fake_stdin+0x34>
201052e4:	14f80863          	beq	a6,a5,20105434 <_printf_i+0x192>
201052e8:	04240493          	addi	s1,s0,66
201052ec:	05040123          	sb	a6,66(s0)
201052f0:	a815                	j	20105324 <_printf_i+0x82>
201052f2:	f9d80793          	addi	a5,a6,-99
201052f6:	0ff7f793          	zext.b	a5,a5
201052fa:	4655                	li	a2,21
201052fc:	fef666e3          	bltu	a2,a5,201052e8 <_printf_i+0x46>
20105300:	00001617          	auipc	a2,0x1
20105304:	f6860613          	addi	a2,a2,-152 # 20106268 <__sf_fake_stdin+0x5c>
20105308:	20c7c7b3          	sh2add	a5,a5,a2
2010530c:	439c                	lw	a5,0(a5)
2010530e:	97b2                	add	a5,a5,a2
20105310:	8782                	jr	a5
20105312:	431c                	lw	a5,0(a4)
20105314:	04258493          	addi	s1,a1,66
20105318:	00478693          	addi	a3,a5,4
2010531c:	439c                	lw	a5,0(a5)
2010531e:	c314                	sw	a3,0(a4)
20105320:	04f58123          	sb	a5,66(a1)
20105324:	4785                	li	a5,1
20105326:	a275                	j	201054d2 <_printf_i+0x230>
20105328:	4190                	lw	a2,0(a1)
2010532a:	431c                	lw	a5,0(a4)
2010532c:	08067513          	andi	a0,a2,128
20105330:	00478593          	addi	a1,a5,4
20105334:	c129                	beqz	a0,20105376 <_printf_i+0xd4>
20105336:	439c                	lw	a5,0(a5)
20105338:	c30c                	sw	a1,0(a4)
2010533a:	4058                	lw	a4,4(s0)
2010533c:	1207df63          	bgez	a5,2010547a <_printf_i+0x1d8>
20105340:	02d00593          	li	a1,45
20105344:	04b401a3          	sb	a1,67(s0)
20105348:	c418                	sw	a4,8(s0)
2010534a:	02075e63          	bgez	a4,20105386 <_printf_i+0xe4>
2010534e:	40f007b3          	neg	a5,a5
20105352:	00001617          	auipc	a2,0x1
20105356:	eee60613          	addi	a2,a2,-274 # 20106240 <__sf_fake_stdin+0x34>
2010535a:	4829                	li	a6,10
2010535c:	84b6                	mv	s1,a3
2010535e:	0307f733          	remu	a4,a5,a6
20105362:	14fd                	addi	s1,s1,-1
20105364:	9732                	add	a4,a4,a2
20105366:	2318                	lbu	a4,0(a4)
20105368:	a098                	sb	a4,0(s1)
2010536a:	873e                	mv	a4,a5
2010536c:	0307d7b3          	divu	a5,a5,a6
20105370:	ff0777e3          	bgeu	a4,a6,2010535e <_printf_i+0xbc>
20105374:	a085                	j	201053d4 <_printf_i+0x132>
20105376:	439c                	lw	a5,0(a5)
20105378:	04067513          	andi	a0,a2,64
2010537c:	c30c                	sw	a1,0(a4)
2010537e:	dd55                	beqz	a0,2010533a <_printf_i+0x98>
20105380:	60579793          	sext.h	a5,a5
20105384:	bf5d                	j	2010533a <_printf_i+0x98>
20105386:	9a6d                	andi	a2,a2,-5
20105388:	c010                	sw	a2,0(s0)
2010538a:	b7d1                	j	2010534e <_printf_i+0xac>
2010538c:	4190                	lw	a2,0(a1)
2010538e:	431c                	lw	a5,0(a4)
20105390:	08067513          	andi	a0,a2,128
20105394:	00478593          	addi	a1,a5,4
20105398:	c501                	beqz	a0,201053a0 <_printf_i+0xfe>
2010539a:	c30c                	sw	a1,0(a4)
2010539c:	439c                	lw	a5,0(a5)
2010539e:	a031                	j	201053aa <_printf_i+0x108>
201053a0:	04067613          	andi	a2,a2,64
201053a4:	c30c                	sw	a1,0(a4)
201053a6:	da7d                	beqz	a2,2010539c <_printf_i+0xfa>
201053a8:	239e                	lhu	a5,0(a5)
201053aa:	06f00713          	li	a4,111
201053ae:	00001617          	auipc	a2,0x1
201053b2:	e9260613          	addi	a2,a2,-366 # 20106240 <__sf_fake_stdin+0x34>
201053b6:	0ce81063          	bne	a6,a4,20105476 <_printf_i+0x1d4>
201053ba:	4821                	li	a6,8
201053bc:	040401a3          	sb	zero,67(s0)
201053c0:	4058                	lw	a4,4(s0)
201053c2:	c418                	sw	a4,8(s0)
201053c4:	f8074ce3          	bltz	a4,2010535c <_printf_i+0xba>
201053c8:	400c                	lw	a1,0(s0)
201053ca:	99ed                	andi	a1,a1,-5
201053cc:	c00c                	sw	a1,0(s0)
201053ce:	f7d9                	bnez	a5,2010535c <_printf_i+0xba>
201053d0:	84b6                	mv	s1,a3
201053d2:	f749                	bnez	a4,2010535c <_printf_i+0xba>
201053d4:	47a1                	li	a5,8
201053d6:	00f81e63          	bne	a6,a5,201053f2 <_printf_i+0x150>
201053da:	401c                	lw	a5,0(s0)
201053dc:	8b85                	andi	a5,a5,1
201053de:	cb91                	beqz	a5,201053f2 <_printf_i+0x150>
201053e0:	4058                	lw	a4,4(s0)
201053e2:	481c                	lw	a5,16(s0)
201053e4:	00e7c763          	blt	a5,a4,201053f2 <_printf_i+0x150>
201053e8:	03000793          	li	a5,48
201053ec:	fef48fa3          	sb	a5,-1(s1)
201053f0:	14fd                	addi	s1,s1,-1
201053f2:	8e85                	sub	a3,a3,s1
201053f4:	c814                	sw	a3,16(s0)
201053f6:	8752                	mv	a4,s4
201053f8:	86ce                	mv	a3,s3
201053fa:	0070                	addi	a2,sp,12
201053fc:	85a2                	mv	a1,s0
201053fe:	854a                	mv	a0,s2
20105400:	d99ff0ef          	jal	ra,20105198 <_printf_common>
20105404:	5afd                	li	s5,-1
20105406:	0d551a63          	bne	a0,s5,201054da <_printf_i+0x238>
2010540a:	557d                	li	a0,-1
2010540c:	50b2                	lw	ra,44(sp)
2010540e:	5422                	lw	s0,40(sp)
20105410:	5492                	lw	s1,36(sp)
20105412:	5902                	lw	s2,32(sp)
20105414:	49f2                	lw	s3,28(sp)
20105416:	4a62                	lw	s4,24(sp)
20105418:	4ad2                	lw	s5,20(sp)
2010541a:	4b42                	lw	s6,16(sp)
2010541c:	6145                	addi	sp,sp,48
2010541e:	8082                	ret
20105420:	419c                	lw	a5,0(a1)
20105422:	0207e793          	ori	a5,a5,32
20105426:	c19c                	sw	a5,0(a1)
20105428:	07800813          	li	a6,120
2010542c:	00001617          	auipc	a2,0x1
20105430:	e2860613          	addi	a2,a2,-472 # 20106254 <__sf_fake_stdin+0x48>
20105434:	050402a3          	sb	a6,69(s0)
20105438:	400c                	lw	a1,0(s0)
2010543a:	431c                	lw	a5,0(a4)
2010543c:	0805f813          	andi	a6,a1,128
20105440:	00478513          	addi	a0,a5,4
20105444:	00080563          	beqz	a6,2010544e <_printf_i+0x1ac>
20105448:	c308                	sw	a0,0(a4)
2010544a:	439c                	lw	a5,0(a5)
2010544c:	a039                	j	2010545a <_printf_i+0x1b8>
2010544e:	0405f813          	andi	a6,a1,64
20105452:	c308                	sw	a0,0(a4)
20105454:	fe080be3          	beqz	a6,2010544a <_printf_i+0x1a8>
20105458:	239e                	lhu	a5,0(a5)
2010545a:	0015f713          	andi	a4,a1,1
2010545e:	c701                	beqz	a4,20105466 <_printf_i+0x1c4>
20105460:	0205e593          	ori	a1,a1,32
20105464:	c00c                	sw	a1,0(s0)
20105466:	c399                	beqz	a5,2010546c <_printf_i+0x1ca>
20105468:	4841                	li	a6,16
2010546a:	bf89                	j	201053bc <_printf_i+0x11a>
2010546c:	4018                	lw	a4,0(s0)
2010546e:	fdf77713          	andi	a4,a4,-33
20105472:	c018                	sw	a4,0(s0)
20105474:	bfd5                	j	20105468 <_printf_i+0x1c6>
20105476:	4829                	li	a6,10
20105478:	b791                	j	201053bc <_printf_i+0x11a>
2010547a:	00001617          	auipc	a2,0x1
2010547e:	dc660613          	addi	a2,a2,-570 # 20106240 <__sf_fake_stdin+0x34>
20105482:	4829                	li	a6,10
20105484:	bf35                	j	201053c0 <_printf_i+0x11e>
20105486:	4190                	lw	a2,0(a1)
20105488:	431c                	lw	a5,0(a4)
2010548a:	49cc                	lw	a1,20(a1)
2010548c:	08067813          	andi	a6,a2,128
20105490:	00478513          	addi	a0,a5,4
20105494:	00080663          	beqz	a6,201054a0 <_printf_i+0x1fe>
20105498:	c308                	sw	a0,0(a4)
2010549a:	439c                	lw	a5,0(a5)
2010549c:	c38c                	sw	a1,0(a5)
2010549e:	a039                	j	201054ac <_printf_i+0x20a>
201054a0:	c308                	sw	a0,0(a4)
201054a2:	04067613          	andi	a2,a2,64
201054a6:	439c                	lw	a5,0(a5)
201054a8:	da75                	beqz	a2,2010549c <_printf_i+0x1fa>
201054aa:	a38e                	sh	a1,0(a5)
201054ac:	00042823          	sw	zero,16(s0)
201054b0:	84b6                	mv	s1,a3
201054b2:	b791                	j	201053f6 <_printf_i+0x154>
201054b4:	431c                	lw	a5,0(a4)
201054b6:	41d0                	lw	a2,4(a1)
201054b8:	4581                	li	a1,0
201054ba:	00478693          	addi	a3,a5,4
201054be:	c314                	sw	a3,0(a4)
201054c0:	4384                	lw	s1,0(a5)
201054c2:	8526                	mv	a0,s1
201054c4:	ca5ff0ef          	jal	ra,20105168 <memchr>
201054c8:	c501                	beqz	a0,201054d0 <_printf_i+0x22e>
201054ca:	409507b3          	sub	a5,a0,s1
201054ce:	c05c                	sw	a5,4(s0)
201054d0:	405c                	lw	a5,4(s0)
201054d2:	c81c                	sw	a5,16(s0)
201054d4:	040401a3          	sb	zero,67(s0)
201054d8:	bf39                	j	201053f6 <_printf_i+0x154>
201054da:	4814                	lw	a3,16(s0)
201054dc:	8626                	mv	a2,s1
201054de:	85ce                	mv	a1,s3
201054e0:	854a                	mv	a0,s2
201054e2:	9a02                	jalr	s4
201054e4:	f35503e3          	beq	a0,s5,2010540a <_printf_i+0x168>
201054e8:	401c                	lw	a5,0(s0)
201054ea:	8b89                	andi	a5,a5,2
201054ec:	e785                	bnez	a5,20105514 <_printf_i+0x272>
201054ee:	4448                	lw	a0,12(s0)
201054f0:	47b2                	lw	a5,12(sp)
201054f2:	0af56533          	max	a0,a0,a5
201054f6:	bf19                	j	2010540c <_printf_i+0x16a>
201054f8:	4685                	li	a3,1
201054fa:	8656                	mv	a2,s5
201054fc:	85ce                	mv	a1,s3
201054fe:	854a                	mv	a0,s2
20105500:	9a02                	jalr	s4
20105502:	f16504e3          	beq	a0,s6,2010540a <_printf_i+0x168>
20105506:	0485                	addi	s1,s1,1
20105508:	445c                	lw	a5,12(s0)
2010550a:	4732                	lw	a4,12(sp)
2010550c:	8f99                	sub	a5,a5,a4
2010550e:	fef4c5e3          	blt	s1,a5,201054f8 <_printf_i+0x256>
20105512:	bff1                	j	201054ee <_printf_i+0x24c>
20105514:	4481                	li	s1,0
20105516:	01940a93          	addi	s5,s0,25
2010551a:	5b7d                	li	s6,-1
2010551c:	b7f5                	j	20105508 <_printf_i+0x266>

2010551e <_read_r>:
2010551e:	1141                	addi	sp,sp,-16
20105520:	c422                	sw	s0,8(sp)
20105522:	842a                	mv	s0,a0
20105524:	852e                	mv	a0,a1
20105526:	85b2                	mv	a1,a2
20105528:	8636                	mv	a2,a3
2010552a:	00040797          	auipc	a5,0x40
2010552e:	4407a723          	sw	zero,1102(a5) # 20145978 <errno>
20105532:	c606                	sw	ra,12(sp)
20105534:	28b1                	jal	20105590 <_read>
20105536:	57fd                	li	a5,-1
20105538:	00f51863          	bne	a0,a5,20105548 <_read_r+0x2a>
2010553c:	00040797          	auipc	a5,0x40
20105540:	43c7a783          	lw	a5,1084(a5) # 20145978 <errno>
20105544:	c391                	beqz	a5,20105548 <_read_r+0x2a>
20105546:	c01c                	sw	a5,0(s0)
20105548:	40b2                	lw	ra,12(sp)
2010554a:	4422                	lw	s0,8(sp)
2010554c:	0141                	addi	sp,sp,16
2010554e:	8082                	ret

20105550 <_close>:
20105550:	05800793          	li	a5,88
20105554:	00040717          	auipc	a4,0x40
20105558:	42f72223          	sw	a5,1060(a4) # 20145978 <errno>
2010555c:	557d                	li	a0,-1
2010555e:	8082                	ret

20105560 <_fstat>:
20105560:	05800793          	li	a5,88
20105564:	00040717          	auipc	a4,0x40
20105568:	40f72a23          	sw	a5,1044(a4) # 20145978 <errno>
2010556c:	557d                	li	a0,-1
2010556e:	8082                	ret

20105570 <_isatty>:
20105570:	05800793          	li	a5,88
20105574:	00040717          	auipc	a4,0x40
20105578:	40f72223          	sw	a5,1028(a4) # 20145978 <errno>
2010557c:	4501                	li	a0,0
2010557e:	8082                	ret

20105580 <_lseek>:
20105580:	05800793          	li	a5,88
20105584:	00040717          	auipc	a4,0x40
20105588:	3ef72a23          	sw	a5,1012(a4) # 20145978 <errno>
2010558c:	557d                	li	a0,-1
2010558e:	8082                	ret

20105590 <_read>:
20105590:	05800793          	li	a5,88
20105594:	00040717          	auipc	a4,0x40
20105598:	3ef72223          	sw	a5,996(a4) # 20145978 <errno>
2010559c:	557d                	li	a0,-1
2010559e:	8082                	ret
201055a0:	573c                	lw	a5,104(a4)
201055a2:	2010                	lbu	a2,0(s0)
201055a4:	5744                	lw	s1,44(a4)
201055a6:	2010                	lbu	a2,0(s0)
201055a8:	574c                	lw	a1,44(a4)
201055aa:	2010                	lbu	a2,0(s0)
201055ac:	5758                	lw	a4,44(a4)
201055ae:	2010                	lbu	a2,0(s0)
201055b0:	5764                	lw	s1,108(a4)
201055b2:	2010                	lbu	a2,0(s0)
201055b4:	5770                	lw	a2,108(a4)
201055b6:	2010                	lbu	a2,0(s0)
201055b8:	577c                	lw	a5,108(a4)
201055ba:	2010                	lbu	a2,0(s0)
201055bc:	5784                	lw	s1,40(a5)
201055be:	2010                	lbu	a2,0(s0)
201055c0:	5788                	lw	a0,40(a5)
201055c2:	2010                	lbu	a2,0(s0)
201055c4:	3356                	lhu	a3,36(a4)
201055c6:	2046                	lhu	s1,4(s0)
201055c8:	5655                	li	a2,-11
201055ca:	72502043          	.4byte	0x72502043
201055ce:	7365636f          	jal	t1,2015bd04 <_ebss+0x3f18>
201055d2:	676e6973          	csrrsi	s2,0x676,28
201055d6:	4320                	lw	s0,64(a4)
201055d8:	2065726f          	jal	tp,2015c7de <_ebss+0x49f2>
201055dc:	72617453          	.4byte	0x72617453
201055e0:	6574                	.2byte	0x6574
201055e2:	0d64                	addi	s1,sp,668
201055e4:	0000                	unimp
201055e6:	0000                	unimp
201055e8:	74737953          	.4byte	0x74737953
201055ec:	6d65                	lui	s10,0x19
201055ee:	65726f43          	.4byte	0x65726f43
201055f2:	3a6b6c43          	.4byte	0x3a6b6c43
201055f6:	6425                	lui	s0,0x9
201055f8:	0a0d                	addi	s4,s4,3
201055fa:	0000                	unimp
201055fc:	6e49                	lui	t3,0x12
201055fe:	7469                	lui	s0,0xffffa
20105600:	6169                	addi	sp,sp,208
20105602:	696c                	.2byte	0x696c
20105604:	697a                	.2byte	0x697a
20105606:	676e                	.2byte	0x676e
20105608:	6420                	.2byte	0x6420
2010560a:	6175                	addi	sp,sp,368
2010560c:	2d6c                	lbu	a1,30(a0)
2010560e:	65726f63          	bltu	tp,s7,20105c6c <MyManuInfo+0x18>
20105612:	6d20                	.2byte	0x6d20
20105614:	2065646f          	jal	s0,2015b81a <_ebss+0x3a2e>
20105618:	5628                	lw	a0,104(a2)
2010561a:	6d204633          	.4byte	0x6d204633
2010561e:	6961                	lui	s2,0x18
20105620:	2c6e                	lhu	a1,30(s0)
20105622:	5620                	lw	s0,104(a2)
20105624:	4635                	li	a2,13
20105626:	7320                	.2byte	0x7320
20105628:	616c                	.2byte	0x616c
2010562a:	6576                	.2byte	0x6576
2010562c:	2e29                	jal	20105946 <ov2640_uxga_init_reg_tbl+0xce>
2010562e:	2e2e                	lhu	a1,26(a2)
20105630:	000d                	c.nop	3
20105632:	0000                	unimp
20105634:	696b6157          	.4byte	0x696b6157
20105638:	676e                	.2byte	0x676e
2010563a:	7520                	.2byte	0x7520
2010563c:	2070                	lbu	a2,6(s0)
2010563e:	3556                	lhu	a3,44(a0)
20105640:	2046                	lhu	s1,4(s0)
20105642:	65726f63          	bltu	tp,s7,20105ca0 <SS_ConfigDescriptor+0x24>
20105646:	2e2e                	lhu	a1,26(a2)
20105648:	0d2e                	slli	s10,s10,0xb
2010564a:	0000                	unimp
2010564c:	3356                	lhu	a3,36(a4)
2010564e:	2046                	lhu	s1,4(s0)
20105650:	6e65                	lui	t3,0x19
20105652:	6574                	.2byte	0x6574
20105654:	6972                	.2byte	0x6972
20105656:	676e                	.2byte	0x676e
20105658:	5320                	lw	s0,96(a4)
2010565a:	4f54                	lw	a3,28(a4)
2010565c:	2050                	lbu	a2,4(s0)
2010565e:	6f6d                	lui	t5,0x1b
20105660:	6564                	.2byte	0x6564
20105662:	202c                	lbu	a1,2(s0)
20105664:	74696177          	.4byte	0x74696177
20105668:	6e69                	lui	t3,0x1a
2010566a:	6f662067          	.4byte	0x6f662067
2010566e:	2072                	lhu	a2,6(s0)
20105670:	636e7973          	csrrci	s2,0x636,28
20105674:	2e2e                	lhu	a1,26(a2)
20105676:	0d2e                	slli	s10,s10,0xb
20105678:	0000                	unimp
2010567a:	0000                	unimp
2010567c:	3356                	lhu	a3,36(a4)
2010567e:	2046                	lhu	s1,4(s0)
20105680:	656b6177          	.4byte	0x656b6177
20105684:	7520                	.2byte	0x7520
20105686:	2c70                	lbu	a2,30(s0)
20105688:	6320                	.2byte	0x6320
2010568a:	69746e6f          	jal	t3,2014c520 <USBSS_EP1_Rx_Buf+0x4934>
2010568e:	756e                	.2byte	0x756e
20105690:	6e69                	lui	t3,0x1a
20105692:	78652067          	.4byte	0x78652067
20105696:	6365                	lui	t1,0x19
20105698:	7475                	lui	s0,0xffffd
2010569a:	6f69                	lui	t5,0x1a
2010569c:	2e6e                	lhu	a1,30(a2)
2010569e:	2e2e                	lhu	a1,26(a2)
201056a0:	000d                	c.nop	3
201056a2:	0000                	unimp
201056a4:	7544                	.2byte	0x7544
201056a6:	6c61                	lui	s8,0x18
201056a8:	632d                	lui	t1,0xb
201056aa:	2065726f          	jal	tp,2015c8b0 <_ebss+0x4ac4>
201056ae:	636e7973          	csrrci	s2,0x636,28
201056b2:	7268                	.2byte	0x7268
201056b4:	7a696e6f          	jal	t3,2019be5a <_eusrstack+0x1be5a>
201056b8:	7461                	lui	s0,0xffff8
201056ba:	6f69                	lui	t5,0x1a
201056bc:	206e                	lhu	a1,6(s0)
201056be:	706d6f63          	bltu	s10,t1,20105ddc <SS_ConfigDescriptor+0x160>
201056c2:	656c                	.2byte	0x656c
201056c4:	6574                	.2byte	0x6574
201056c6:	2e64                	lbu	s1,30(a2)
201056c8:	000d                	c.nop	3
201056ca:	0000                	unimp
201056cc:	72617453          	.4byte	0x72617453
201056d0:	6974                	.2byte	0x6974
201056d2:	676e                	.2byte	0x676e
201056d4:	5520                	lw	s0,104(a0)
201056d6:	4356                	lw	t1,84(sp)
201056d8:	7620                	.2byte	0x7620
201056da:	6469                	lui	s0,0x1a
201056dc:	6f65                	lui	t5,0x19
201056de:	7320                	.2byte	0x7320
201056e0:	7274                	.2byte	0x7274
201056e2:	6165                	addi	sp,sp,112
201056e4:	206d                	jal	2010578e <_read+0x1fe>
201056e6:	6e61                	lui	t3,0x18
201056e8:	2064                	lbu	s1,6(s0)
201056ea:	74736567          	.4byte	0x74736567
201056ee:	7275                	lui	tp,0xffffd
201056f0:	2065                	jal	20105798 <ov2640_YUVframe_resolution_USB20+0x8>
201056f2:	6572                	.2byte	0x6572
201056f4:	6e676f63          	bltu	a4,t1,20105df2 <SS_ConfigDescriptor+0x176>
201056f8:	7469                	lui	s0,0xffffa
201056fa:	6f69                	lui	t5,0x1a
201056fc:	206e                	lhu	a1,6(s0)
201056fe:	7270                	.2byte	0x7270
20105700:	7365636f          	jal	t1,2015be36 <_ebss+0x404a>
20105704:	676e6973          	csrrsi	s2,0x676,28
20105708:	2e2e                	lhu	a1,26(a2)
2010570a:	0d2e                	slli	s10,s10,0xb
2010570c:	0000                	unimp
2010570e:	0000                	unimp
20105710:	74736547          	.4byte	0x74736547
20105714:	7275                	lui	tp,0xffffd
20105716:	2065                	jal	201057be <ov2640_JPEGframe_resolution_USB20+0x6>
20105718:	6572                	.2byte	0x6572
2010571a:	6e676f63          	bltu	a4,t1,20105e18 <SS_ConfigDescriptor+0x19c>
2010571e:	7a69                	lui	s4,0xffffa
20105720:	6465                	lui	s0,0x19
20105722:	203a                	lhu	a4,2(s0)
20105724:	7325                	lui	t1,0xfffe9
20105726:	202c                	lbu	a1,2(s0)
20105728:	666e6f43          	.4byte	0x666e6f43
2010572c:	6469                	lui	s0,0x1a
2010572e:	6e65                	lui	t3,0x19
20105730:	203a6563          	bltu	s4,gp,2010593a <ov2640_uxga_init_reg_tbl+0xc2>
20105734:	2e25                	jal	20105a6c <yuv_uxga+0x90>
20105736:	6632                	.2byte	0x6632
20105738:	0a0d                	addi	s4,s4,3 # ffffa003 <_eusrstack+0xdfe7a003>
2010573a:	0000                	unimp
2010573c:	4946                	lw	s2,80(sp)
2010573e:	00005453          	.4byte	0x5453
20105742:	0000                	unimp
20105744:	4150                	lw	a2,4(a0)
20105746:	4d4c                	lw	a1,28(a0)
20105748:	0000                	unimp
2010574a:	0000                	unimp
2010574c:	50495753          	.4byte	0x50495753
20105750:	5f45                	li	t5,-15
20105752:	454c                	lw	a1,12(a0)
20105754:	5446                	lw	s0,112(sp)
20105756:	0000                	unimp
20105758:	50495753          	.4byte	0x50495753
2010575c:	5f45                	li	t5,-15
2010575e:	4952                	lw	s2,20(sp)
20105760:	00544847          	.4byte	0x544847
20105764:	50495753          	.4byte	0x50495753
20105768:	5f45                	li	t5,-15
2010576a:	5055                	c.li	zero,-11
2010576c:	0000                	unimp
2010576e:	0000                	unimp
20105770:	50495753          	.4byte	0x50495753
20105774:	5f45                	li	t5,-15
20105776:	4f44                	lw	s1,28(a4)
20105778:	00004e57          	.4byte	0x4e57
2010577c:	4950                	lw	a2,20(a0)
2010577e:	434e                	lw	t1,208(sp)
20105780:	0048                	addi	a0,sp,4
20105782:	0000                	unimp
20105784:	00004b4f          	.4byte	0x4b4f
20105788:	4f4e                	lw	t5,208(sp)
2010578a:	454e                	lw	a0,208(sp)
2010578c:	0000                	unimp
	...

20105790 <ov2640_YUVframe_resolution_USB20>:
20105790:	0280 01e0 0320 0258 00b0 0090 0140 00f0     .... .X.....@...
201057a0:	0160 0120                                   `. .

201057a4 <ov2640_YUVframe_resolution_USB30>:
201057a4:	0280 01e0 0640 04b0 0500 03c0 0400 0300     ....@...........
201057b4:	0160 0120                                   `. .

201057b8 <ov2640_JPEGframe_resolution_USB20>:
201057b8:	0320 0258 0160 0120 0280 01e0 0400 0300      .X.`. .........
201057c8:	0640 04b0                                   @...

201057cc <ov2640_JPEGframe_resolution_USB30>:
201057cc:	0320 0258 0160 0120 0280 01e0 0400 0300      .X.`. .........
201057dc:	0640 04b0 1a9e 2010 1b36 2010 1b6e 2010     @...... 6.. n.. 
201057ec:	1ae0 2010 1ba0 2010 1ae0 2010 1bd2 2010     ... ... ... ... 
201057fc:	1c04 2010 1c12 2010 1c1e 2010 1c2a 2010     ... ... ... *.. 
2010580c:	1c36 2010 1c42 2010 1c4c 2010 1c8e 2010     6.. B.. L.. ... 
2010581c:	1d26 2010 1d5e 2010 1c9e 2010 1d90 2010     &.. ^.. ... ... 
2010582c:	1c9e 2010 1dc2 2010 1df4 2010 1e02 2010     ... ... ... ... 
2010583c:	1e0e 2010 1e1a 2010 1e26 2010 1e32 2010     ... ... &.. 2.. 
2010584c:	1e3c 2010 494d 3a44 6425 0a0d 0000 0000     <.. MID:%d......
2010585c:	4948 3a44 6425 0a0d 0000 0000               HID:%d......

20105868 <ov2640_jpeg_reg_tbl>:
20105868:	00ff 10da 03d7 00df 8033 403c 77e1 0000     ........3.<@.w..

20105878 <ov2640_uxga_init_reg_tbl>:
20105878:	00ff ff2c df2e 01ff 323c 0011 0209 d804     ..,.....<2......
20105888:	e513 4814 0c2c 7833 333a fb3b 003e 1143     ...H,.3x:3;.>.C.
20105898:	1016 9239 da35 1a22 c337 0023 c034 1a36     ..9.5.".7.#.4.6.
201058a8:	8806 c007 870d 410e 004c 0048 005b 0342     .......AL.H.[.B.
201058b8:	814a 9921 4024 3825 8226 005c 0063 0046     J.!.$@%8&.\.c.F.
201058c8:	3c0c 7061 8062 057c 8020 3028 006c 806d     .<apb.|. .(0l.m.
201058d8:	006e 0270 9471 c173 343d 575a 0012 1117     n.p.q.s.=4ZW....
201058e8:	7518 0119 971a 3632 0f03 4037 ca4f a850     .u....26..7@O.P.
201058f8:	235a 006d 386d 00ff 7fe5 c0f9 2441 14e0     Z#m.m8......A$..
20105908:	ff76 a033 2042 1843 004c d587 3f88 03d7     v.3.B C.L....?..
20105918:	10d9 82d3 08c8 80c9 007c 007d 037c 487d     ........|.}.|.}H
20105928:	487d 087c 207d 107d 0e7d 0090 0e91 1a91     }H|.} }.}.......
20105938:	3191 5a91 6991 7591 7e91 8891 8f91 9691     .1.Z.i.u.~......
20105948:	a391 af91 c491 d791 e891 2091 0092 0693     ........... ....
20105958:	e393 0593 0593 0093 0493 0093 0093 0093     ................
20105968:	0093 0093 0093 0093 0096 0897 1997 0297     ................
20105978:	0c97 2497 3097 2897 2697 0297 9897 8097     ...$.0.(.&......
20105988:	0097 0097 efc3 00a4 00a8 11c5 51c6 80bf     .............Q..
20105998:	10c7 66b6 a5b8 64b7 7cb9 afb3 97b4 ffb5     ...f...d.|......
201059a8:	c5b0 94b1 0fb2 5cc4 c8c0 96c1 008c 3d86     .......\.......=
201059b8:	0050 9051 2c52 0053 0054 8855 905a 2c5b     P.Q.R,S.T.U.Z.[,
201059c8:	055c 02d3 edc3 007f 09da 1fe5 67e1 00e0     \............g..
201059d8:	7fdd 0005                                   ....

201059dc <yuv_uxga>:
201059dc:	00ff ff2c df2e 01ff 323c 0011 0209 d804     ..,.....<2......
201059ec:	e513 4814 0c2c 7833 333a fb3b 003e 1143     ...H,.3x:3;.>.C.
201059fc:	1016 8239 8835 0a22 4037 0023 a034 1a36     ..9.5.".7@#.4.6.
20105a0c:	0206 c007 b70d 010e 004c 4a60 6081 9921     ........L.`J.`!.
20105a1c:	4024 3825 8226 005c 0063 3f46 3c0c 7061     $@%8&.\.c.F?.<ap
20105a2c:	8062 057c 8020 3028 006c 806d 006e 0270     b.|. .(0l.m.n.p.
20105a3c:	9471 c173 343d 575a bb4f 9c50 00ff 7fe5     q.s.=4ZWO.P.....
20105a4c:	c0f9 2441 14e0 ff76 a033 2042 1843 004c     ..A$..v.3.B C.L.
20105a5c:	d087 3f88 03d7 10d9 82d3 08c8 80c9 007c     ...?..........|.
20105a6c:	007d 037c 487d 487d 087c 207d 107d 0e7d     }.|.}H}H|.} }.}.
20105a7c:	0090 0e91 1a91 3191 5a91 6991 7591 7e91     .......1.Z.i.u.~
20105a8c:	8891 8f91 9691 a391 af91 c491 d791 e891     ................
20105a9c:	2091 0092 0693 e393 0593 0593 0093 0493     . ..............
20105aac:	0093 0093 0093 0093 0093 0093 0093 0096     ................
20105abc:	0897 1997 0297 0c97 2497 3097 2897 2697     .........$.0.(.&
20105acc:	0297 9897 8097 0097 0097 edc3 00a4 00a8     ................
20105adc:	11c5 51c6 80bf 10c7 66b6 a5b8 64b7 7cb9     ...Q.....f...d.|
20105aec:	afb3 97b4 ffb5 c5b0 94b1 0fb2 5cc4 c8c0     .............\..
20105afc:	96c1 3d86 0050 9051 2c52 0053 0054 8855     ...=P.Q.R,S.T.U.
20105b0c:	0057 905a 2c5b 055c edc3 007f 00da 1fe5     W.Z.[,\.........
20105b1c:	67e1 00e0 7fdd 0005 2d1a 2010 2ae4 2010     .g.......-. .*. 
20105b2c:	28bc 2010 2b96 2010 28bc 2010 2a92 2010     .(. .+. .(. .*. 
20105b3c:	28ea 2010 28bc 2010 2aa4 2010 2abe 2010     .(. .(. .*. .*. 
20105b4c:	2d0e 2010 2d14 2010 2910 2010 2920 2010     .-. .-. .).  ). 
20105b5c:	29ba 2010 29e2 2010 29e2 2010 2a08 2010     .). .). .). .*. 
20105b6c:	2a12 2010 3c3a 2010 3b66 2010 393e 2010     .*. :<. f;. >9. 
20105b7c:	3bd2 2010 39a2 2010 3aba 2010 39b8 2010     .;. .9. .:. .9. 
20105b8c:	39a2 2010 3aca 2010 3af2 2010 3c34 2010     .9. .:. .:. 4<. 
20105b9c:	3c1e 2010 39de 2010 39ee 2010 3a04 2010     .<. .9. .9. .:. 
20105bac:	3a76 2010 3a76 2010 3aa6 2010 3a76 2010     v:. v:. .:. v:. 
20105bbc:	3a76 2010 3a76 2010 3a76 2010 3a76 2010     v:. v:. v:. v:. 
20105bcc:	3a76 2010 3a76 2010 3a76 2010 3ab0 2010     v:. v:. v:. .:. 
20105bdc:	6143 656d 6172 6d20 646f 6c65 4520 7272     Camera model Err
20105bec:	000d 0000                                   ....

20105bf0 <MyBOSDesc_SS>:
20105bf0:	0f05 0016 0702 0210 0006 0000 100a 0003     ................
20105c00:	000e 0a01 07ff 0000                         ........

20105c08 <OSStringDescriptor>:
20105c08:	0312 004d 0053 0046 0054 0031 0030 0030     ..M.S.F.T.1.0.0.
20105c18:	0001 0000                                   ....

20105c1c <MySerNumInfo>:
20105c1c:	0316 0030 0031 0032 0033 0034 0035 0036     ..0.1.2.3.4.5.6.
20105c2c:	0037 0038 0039 0000                         7.8.9...

20105c34 <MyProdInfo>:
20105c34:	032a 0043 0048 0033 0032 0048 0034 0031     *.C.H.3.2.H.4.1.
20105c44:	0037 005f 0043 0061 006d 0065 0072 0061     7._.C.a.m.e.r.a.

20105c54 <MyManuInfo>:
20105c54:	0326 0057 0043 0048 0049 0043 0072 006f     &.W.C.H.I.C.r.o.
20105c64:	0065 006c 0065 0063 0074 0072 006f 006e     e.l.e.c.t.r.o.n.
20105c74:	0069 0063 0073 0000                         i.c.s...

20105c7c <SS_ConfigDescriptor>:
20105c7c:	0209 01f2 0102 a000 084b 000b 0e02 0003     ........K.......
20105c8c:	0908 0004 0000 010e 0800 240d 0001 4d01     ...........$...M
20105c9c:	0000 270e 0107 1201 0224 0101 0002 0000     ...'....$.......
20105cac:	0000 0000 0300 0000 0b00 0524 0103 0000     ..........$.....
20105cbc:	0002 0000 2409 0203 0101 0400 1a00 0624     .....$........$.
20105ccc:	5b04 6d12 80c6 4404 8c08 b826 3a36 de84     .[.m...D..&.6:..
20105cdc:	0363 0301 0701 0900 0104 0000 020e 0000     c...............
20105cec:	240e 0101 016c 0081 0002 0000 0001 240b     .$..l..........$
20105cfc:	0106 0105 0001 0000 1e00 0724 0001 0320     ..........$... .
20105d0c:	0258 a000 0dbb a000 0dbb a600 000e 2c2a     X.............*,
20105d1c:	000a 2a01 0a2c 1e00 0724 0002 0160 0120     ...*,...$...`. .
20105d2c:	8000 02e6 8000 02e6 1800 0003 2c2a 000a     ............*,..
20105d3c:	2a01 0a2c 1e00 0724 0003 0280 01e0 0000     .*,...$.........
20105d4c:	08ca 0000 08ca 6000 0009 2c2a 000a 2a01     .......`..*,...*
20105d5c:	0a2c 1e00 0724 0004 0400 0300 0000 1680     ,...$...........
20105d6c:	0000 1680 0000 0018 2c2a 000a 2a01 0a2c     ........*,...*,.
20105d7c:	1e00 0724 0005 0640 04b0 8000 36ee 8000     ..$...@......6..
20105d8c:	36ee 9800 003a 2c2a 000a 2a01 0a2c 0600     .6..:.*,...*,...
20105d9c:	0d24 0101 1b04 0424 0502 5559 3259 0000     $.....$...YUY2..
20105dac:	0010 0080 aa00 3800 719b 0110 0000 0000     .......8.q......
20105dbc:	241e 0105 8000 e002 0001 ca00 0008 ca00     .$..............
20105dcc:	0008 0960 2a00 0a2c 0100 2c2a 000a 241e     ..`..*,...*,...$
20105ddc:	0205 4000 b006 0004 ee80 0036 ee80 0036     ...@......6...6.
20105dec:	3a98 2a00 0a2c 0100 2c2a 000a 241e 0305     .:.*,...*,...$..
20105dfc:	0000 c005 0003 28a0 0023 28a0 0023 2580     .......(#..(#..%
20105e0c:	2a00 0a2c 0100 2c2a 000a 241e 0405 0000     .*,...*,...$....
20105e1c:	0004 0003 8000 0016 8000 0016 1800 2a00     ...............*
20105e2c:	0a2c 0100 2c2a 000a 241e 0505 6000 2001     ,...*,...$...`. 
20105e3c:	0001 e680 0002 e680 0002 0318 2a00 0a2c     .............*,.
20105e4c:	0100 2c2a 000a 2406 010d 0401 0409 0101     ..*,...$........
20105e5c:	0e01 0002 0700 8105 0005 0104 3006 000b     .............0..
20105e6c:	8000 0000                                   ....

20105e70 <SS_DeviceDescriptor>:
20105e70:	0112 0300 02ef 0901 1a86 fe1c 0001 0201     ................
20105e80:	0103 0000                                   ....

20105e84 <MyQuaDesc>:
20105e84:	060a 0200 ffff 40ff 0001 0000               .......@....

20105e90 <MyCfgDescr_FS>:
20105e90:	0209 003c 0101 8000 0932 0004 0600 ffff     ..<.....2.......
20105ea0:	00ff 0507 0201 0040 0700 8105 4002 0000     ......@......@..
20105eb0:	0507 0203 0040 0700 8405 4002 0000 0507     ....@......@....
20105ec0:	0205 0040 0700 8605 4002 0000               ..@......@..

20105ecc <MyCfgDescr_HS>:
20105ecc:	0209 01ec 0102 a000 084b 000b 0e02 0003     ........K.......
20105edc:	0908 0004 0000 010e 0800 240d 0001 4d01     ...........$...M
20105eec:	0000 270e 0107 1201 0224 0101 0002 0000     ...'....$.......
20105efc:	0000 0000 0300 0000 0b00 0524 0103 0000     ..........$.....
20105f0c:	0002 0000 2409 0203 0101 0400 1a00 0624     .....$........$.
20105f1c:	5b04 6d12 80c6 4404 8c08 b826 3a36 de84     .[.m...D..&.6:..
20105f2c:	0363 0301 0701 0900 0104 0000 020e 0000     c...............
20105f3c:	240e 0101 016c 0081 0002 0000 0001 240b     .$..l..........$
20105f4c:	0106 0105 0001 0000 1e00 0724 0001 0320     ..........$... .
20105f5c:	0258 a000 0dbb a000 0dbb a600 000e 2c2a     X.............*,
20105f6c:	000a 2a01 0a2c 1e00 0724 0002 0160 0120     ...*,...$...`. .
20105f7c:	8000 02e6 8000 02e6 1800 0003 2c2a 000a     ............*,..
20105f8c:	2a01 0a2c 1e00 0724 0003 0280 01e0 0000     .*,...$.........
20105f9c:	08ca 0000 08ca 6000 0009 2c2a 000a 2a01     .......`..*,...*
20105fac:	0a2c 1e00 0724 0004 0400 0300 0000 1680     ,...$...........
20105fbc:	0000 1680 0000 0018 2c2a 000a 2a01 0a2c     ........*,...*,.
20105fcc:	1e00 0724 0005 0640 04b0 8000 36ee 8000     ..$...@......6..
20105fdc:	36ee 9800 003a 2c2a 000a 2a01 0a2c 0600     .6..:.*,...*,...
20105fec:	0d24 0101 1b04 0424 0502 5559 3259 0000     $.....$...YUY2..
20105ffc:	0010 0080 aa00 3800 719b 0110 0000 0000     .......8.q......
2010600c:	241e 0105 8000 e002 0001 ca00 0008 ca00     .$..............
2010601c:	0008 0960 2a00 0a2c 0100 2c2a 000a 241e     ..`..*,...*,...$
2010602c:	0205 2000 5803 0002 bba0 000d bba0 000d     ... .X..........
2010603c:	0ea6 2a00 0a2c 0100 2c2a 000a 241e 0305     ...*,...*,...$..
2010604c:	b000 9000 0000 b9a0 0000 b9a0 0000 00c6     ................
2010605c:	2a00 0a2c 0100 2c2a 000a 241e 0405 4000     .*,...*,...$...@
2010606c:	f001 0000 3280 0002 3280 0002 0258 2a00     .....2...2..X..*
2010607c:	0a2c 0100 2c2a 000a 241e 0505 6000 2001     ,...*,...$...`. 
2010608c:	0001 e680 0002 e680 0002 0318 2a00 0a2c     .............*,.
2010609c:	0100 2c2a 000a 2406 010d 0401 0409 0101     ..*,...$........
201060ac:	0e01 0002 0700 8105 0005 0114               ............

201060b8 <MyDevDescr>:
201060b8:	0112 0200 02ef 4001 1a86 fe1c 0001 0201     .......@........
201060c8:	0103 0000                                   ....

201060cc <__clz_tab>:
201060cc:	0100 0202 0303 0303 0404 0404 0404 0404     ................
201060dc:	0505 0505 0505 0505 0505 0505 0505 0505     ................
201060ec:	0606 0606 0606 0606 0606 0606 0606 0606     ................
201060fc:	0606 0606 0606 0606 0606 0606 0606 0606     ................
2010610c:	0707 0707 0707 0707 0707 0707 0707 0707     ................
2010611c:	0707 0707 0707 0707 0707 0707 0707 0707     ................
2010612c:	0707 0707 0707 0707 0707 0707 0707 0707     ................
2010613c:	0707 0707 0707 0707 0707 0707 0707 0707     ................
2010614c:	0808 0808 0808 0808 0808 0808 0808 0808     ................
2010615c:	0808 0808 0808 0808 0808 0808 0808 0808     ................
2010616c:	0808 0808 0808 0808 0808 0808 0808 0808     ................
2010617c:	0808 0808 0808 0808 0808 0808 0808 0808     ................
2010618c:	0808 0808 0808 0808 0808 0808 0808 0808     ................
2010619c:	0808 0808 0808 0808 0808 0808 0808 0808     ................
201061ac:	0808 0808 0808 0808 0808 0808 0808 0808     ................
201061bc:	0808 0808 0808 0808 0808 0808 0808 0808     ................

201061cc <__sf_fake_stderr>:
	...

201061ec <__sf_fake_stdout>:
	...

2010620c <__sf_fake_stdin>:
	...
2010622c:	2d23 2b30 0020 0000 6c68 004c 6665 4567     #-0+ ...hlL.efgE
2010623c:	4746 0000 3130 3332 3534 3736 3938 4241     FG..0123456789AB
2010624c:	4443 4645 0000 0000 3130 3332 3534 3736     CDEF....01234567
2010625c:	3938 6261 6463 6665 0000 0000 f0aa ffff     89abcdef........
2010626c:	f0c0 ffff f080 ffff f080 ffff f080 ffff     ................
2010627c:	f080 ffff f0c0 ffff f080 ffff f080 ffff     ................
2010628c:	f080 ffff f080 ffff f21e ffff f124 ffff     ............$...
2010629c:	f1b8 ffff f080 ffff f080 ffff f24c ffff     ............L...
201062ac:	f080 ffff f124 ffff f080 ffff f080 ffff     ....$...........
201062bc:	f1c0 ffff                                   ....

Disassembly of section .text:

000063b4 <handle_reset>:
    63b4:	2012c197          	auipc	gp,0x2012c
    63b8:	cdc18193          	addi	gp,gp,-804 # 20132090 <__global_pointer$>
    63bc:	2017a117          	auipc	sp,0x2017a
    63c0:	c4410113          	addi	sp,sp,-956 # 20180000 <_eusrstack>
    63c4:	00800513          	li	a0,8
    63c8:	2012a597          	auipc	a1,0x2012a
    63cc:	c3858593          	addi	a1,a1,-968 # 20130000 <_loadcode_vma_start>
    63d0:	2012a617          	auipc	a2,0x2012a
    63d4:	d1c60613          	addi	a2,a2,-740 # 201300ec <_loadcode_vma_end>
    63d8:	00c5fa63          	bgeu	a1,a2,63ec <handle_reset+0x38>
    63dc:	00052283          	lw	t0,0(a0)
    63e0:	0055a023          	sw	t0,0(a1)
    63e4:	0511                	addi	a0,a0,4
    63e6:	0591                	addi	a1,a1,4
    63e8:	fec5eae3          	bltu	a1,a2,63dc <handle_reset+0x28>
    63ec:	2012a097          	auipc	ra,0x2012a
    63f0:	c14080e7          	jalr	-1004(ra) # 20130000 <_loadcode_vma_start>
    63f4:	123702b7          	lui	t0,0x12370
    63f8:	3e128293          	addi	t0,t0,993 # 123703e1 <_data_lma+0x12369fa9>
    63fc:	bc029073          	csrw	0xbc0,t0
    6400:	4285                	li	t0,1
    6402:	bc129073          	csrw	0xbc1,t0
    6406:	42ad                	li	t0,11
    6408:	80429073          	csrw	0x804,t0
    640c:	6299                	lui	t0,0x6
    640e:	08828293          	addi	t0,t0,136 # 6088 <__stack_size+0x5888>
    6412:	30029073          	csrw	mstatus,t0
    6416:	200fa297          	auipc	t0,0x200fa
    641a:	bea28293          	addi	t0,t0,-1046 # 20100000 <_highcode_vma_start>
    641e:	0032e293          	ori	t0,t0,3
    6422:	30529073          	csrw	mtvec,t0

00006426 <BP>:
    6426:	200fa297          	auipc	t0,0x200fa
    642a:	ec628293          	addi	t0,t0,-314 # 201002ec <main>
    642e:	34129073          	csrw	mepc,t0
    6432:	30200073          	mret
	...
