
CH32H417_TFLM_V5F.elf:     file format elf32-littleriscv
CH32H417_TFLM_V5F.elf
architecture: riscv:rv32, flags 0x00000112:
EXEC_P, HAS_SYMS, D_PAGED
start address 0x00030000

Program Header:
0x70000003 off    0x00064791 vaddr 0x00000000 paddr 0x00000000 align 2**0
         filesz 0x00000056 memsz 0x00000000 flags r--
    LOAD off    0x00001000 vaddr 0x00030000 paddr 0x00030000 align 2**12
         filesz 0x00000008 memsz 0x00000008 flags r-x
    LOAD off    0x00001200 vaddr 0x200c0200 paddr 0x00030008 align 2**12
         filesz 0x000000e4 memsz 0x000000e4 flags r-x
    LOAD off    0x00002000 vaddr 0x200a0000 paddr 0x000300ec align 2**12
         filesz 0x0000a068 memsz 0x0000a068 flags r-x
    LOAD off    0x0000c154 vaddr 0x0003a154 paddr 0x0003a154 align 2**12
         filesz 0x00000054 memsz 0x00000054 flags r-x
    LOAD off    0x0000c300 vaddr 0x200c0300 paddr 0x0003a1a8 align 2**12
         filesz 0x00001990 memsz 0x00001990 flags rw-
    LOAD off    0x0000dca0 vaddr 0x200c1ca0 paddr 0x0003bb38 align 2**12
         filesz 0x00014000 memsz 0x0002650c flags rw-
    LOAD off    0x00000800 vaddr 0x200ff800 paddr 0x200ff800 align 2**12
         filesz 0x00000000 memsz 0x00000800 flags rw-

Sections:
Idx Name          Size      VMA       LMA       File off  Algn
  0 .init         00000008  00030000  00030000  00001000  2**2
                  CONTENTS, ALLOC, LOAD, READONLY, CODE
  1 .loadcodelalign 00000000  00030008  00030008  00021ca0  2**0
                  CONTENTS
  2 .loadcode     000000e4  200c0200  00030008  00001200  2**1
                  CONTENTS, ALLOC, LOAD, READONLY, CODE
  3 .highcodelalign 00000000  000300ec  000300ec  00021ca0  2**0
                  CONTENTS
  4 .highcode     0000a068  200a0000  000300ec  00002000  2**3
                  CONTENTS, ALLOC, LOAD, READONLY, CODE
  5 .text         00000054  0003a154  0003a154  0000c154  2**1
                  CONTENTS, ALLOC, LOAD, READONLY, CODE
  6 .highcodelalign1 00000000  0003a1a8  0003a1a8  00021ca0  2**0
                  CONTENTS
  7 .fini         00000000  200aa068  200aa068  00021ca0  2**0
                  CONTENTS, ALLOC, LOAD, CODE
  8 .dtors        00000000  200aa068  200aa068  00021ca0  2**0
                  CONTENTS
  9 .dalign       00000000  200c0300  200c0300  00021ca0  2**0
                  CONTENTS
 10 .dlalign      00000000  0003a1a8  0003a1a8  00021ca0  2**0
                  CONTENTS
 11 .data         00001990  200c0300  0003a1a8  0000c300  2**3
                  CONTENTS, ALLOC, LOAD, DATA
 12 .DMADATA      00014000  200c1ca0  0003bb38  0000dca0  2**5
                  CONTENTS, ALLOC, LOAD, DATA
 13 .bss          0001250c  200d5ca0  0004fb38  00021ca0  2**2
                  ALLOC
 14 .stack        00000800  200ff800  200ff800  00022800  2**0
                  ALLOC
 15 .debug_info   00028f93  00000000  00000000  00021ca0  2**0
                  CONTENTS, READONLY, DEBUGGING, OCTETS
 16 .debug_abbrev 00002c38  00000000  00000000  0004ac33  2**0
                  CONTENTS, READONLY, DEBUGGING, OCTETS
 17 .debug_aranges 00000bf8  00000000  00000000  0004d870  2**3
                  CONTENTS, READONLY, DEBUGGING, OCTETS
 18 .debug_rnglists 00000e8f  00000000  00000000  0004e468  2**0
                  CONTENTS, READONLY, DEBUGGING, OCTETS
 19 .debug_line   00010477  00000000  00000000  0004f2f7  2**0
                  CONTENTS, READONLY, DEBUGGING, OCTETS
 20 .debug_str    0000466b  00000000  00000000  0005f76e  2**0
                  CONTENTS, READONLY, DEBUGGING, OCTETS
 21 .debug_line_str 00000987  00000000  00000000  00063dd9  2**0
                  CONTENTS, READONLY, DEBUGGING, OCTETS
 22 .comment      00000031  00000000  00000000  00064760  2**0
                  CONTENTS, READONLY
 23 .riscv.attributes 00000056  00000000  00000000  00064791  2**0
                  CONTENTS, READONLY
 24 .debug_frame  00001a20  00000000  00000000  000647e8  2**2
                  CONTENTS, READONLY, DEBUGGING, OCTETS
 25 .debug_loclists 000049bc  00000000  00000000  00066208  2**0
                  CONTENTS, READONLY, DEBUGGING, OCTETS
SYMBOL TABLE:
00030000 l    d  .init	00000000 .init
00030008 l    d  .loadcodelalign	00000000 .loadcodelalign
200c0200 l    d  .loadcode	00000000 .loadcode
000300ec l    d  .highcodelalign	00000000 .highcodelalign
200a0000 l    d  .highcode	00000000 .highcode
0003a154 l    d  .text	00000000 .text
0003a1a8 l    d  .highcodelalign1	00000000 .highcodelalign1
200aa068 l    d  .fini	00000000 .fini
200aa068 l    d  .dtors	00000000 .dtors
200c0300 l    d  .dalign	00000000 .dalign
0003a1a8 l    d  .dlalign	00000000 .dlalign
200c0300 l    d  .data	00000000 .data
200c1ca0 l    d  .DMADATA	00000000 .DMADATA
200d5ca0 l    d  .bss	00000000 .bss
200ff800 l    d  .stack	00000000 .stack
00000000 l    d  .debug_info	00000000 .debug_info
00000000 l    d  .debug_abbrev	00000000 .debug_abbrev
00000000 l    d  .debug_aranges	00000000 .debug_aranges
00000000 l    d  .debug_rnglists	00000000 .debug_rnglists
00000000 l    d  .debug_line	00000000 .debug_line
00000000 l    d  .debug_str	00000000 .debug_str
00000000 l    d  .debug_line_str	00000000 .debug_line_str
00000000 l    d  .comment	00000000 .comment
00000000 l    d  .riscv.attributes	00000000 .riscv.attributes
00000000 l    d  .debug_frame	00000000 .debug_frame
00000000 l    d  .debug_loclists	00000000 .debug_loclists
00000000 l    df *ABS*	00000000 startup_ch32h417_v5f.o
200a0000 l       .highcode	00000000 _vector_base
200c0200 l       .loadcode	00000000 _load_base
200c02c2 l       .loadcode	00000000 skip_clock_config
00000000 l    df *ABS*	00000000 save-restore.o
00000000 l    df *ABS*	00000000 lib_a-memcpy-asm.o
00000000 l    df *ABS*	00000000 lib_a-memset.o
00000000 l    df *ABS*	00000000 ch32h417_it.c
00000000 l    df *ABS*	00000000 main.c
200a02ec l     F .highcode	00000074 Control_Relay.part.0
200d5ca4 l     O .bss	00000003 relay_state
200c1bf8 l     O .data	00000001 last_gesture
200d5ca0 l     O .bss	00000004 gesture_counter.0
00000000 l    df *ABS*	00000000 system_ch32h417.c
200c0320 l     O .data	00000020 PLLMULTB
200c0310 l     O .data	00000010 HBPrescTB
200c1bfc l     O .data	00000004 FPRETB
200c0300 l     O .data	00000010 SERDESPLLMULTB
00000000 l    df *ABS*	00000000 ch32h417_gpio.c
00000000 l    df *ABS*	00000000 ch32h417_hsem.c
00000000 l    df *ABS*	00000000 ch32h417_rcc.c
200c0360 l     O .data	00000020 PLLMULTable
200c0350 l     O .data	00000010 HBPrescTable
200c1c0c l     O .data	00000004 FPRETable
200c0340 l     O .data	00000010 SERDESPLLMULTable
200c1c04 l     O .data	00000008 PPRE2Table
200c1c00 l     O .data	00000004 ADCPRETable
00000000 l    df *ABS*	00000000 ch32h417_tim.c
00000000 l    df *ABS*	00000000 ch32h417_usart.c
00000000 l    df *ABS*	00000000 debug.c
200d5cb8 l     O .bss	00000002 p_us
200d5cb4 l     O .bss	00000004 p_ms
200c1c10 l     O .data	00000004 curbrk.0
00000000 l    df *ABS*	00000000 uvc.c
200d5cec l     O .bss	00000004 Dvp_Class
200d5cdc l     O .bss	00000004 UVC_DvpStart
200d5ce8 l     O .bss	00000004 Dvp_Addrcount
200d5ce4 l     O .bss	00000004 Dvp_Start
200d5ce0 l     O .bss	00000004 Dvp_End
200d5cd8 l     O .bss	00000004 Dvp_Reclength
200d5cd4 l     O .bss	00000004 DVP_Recaddpoint
200d5cd0 l     O .bss	00000001 USB_Uploadflg
200d5ccc l     O .bss	00000004 USB_MframeUploadLength
200d5cc4 l     O .bss	00000004 USB_Uploadcount
200d5cc0 l     O .bss	00000004 USB_Uploadpoint
200c1c18 l     O .data	00000004 USBUploadaddr
200d5cc8 l     O .bss	00000004 USB_LastMframeUploadLength
200d5cba l     O .bss	00000001 togGG.0
00000000 l    df *ABS*	00000000 uvcclassdes.c
00000000 l    df *ABS*	00000000 dvp.c
00000000 l    df *ABS*	00000000 ov2640.c
00000000 l    df *ABS*	00000000 ch32h417_usbhs_device.c
200a201a l     F .highcode	00000058 USBHS_RCC_Init.part.0
200d5cf1 l     O .bss	00000001 format.1
200d5cf0 l     O .bss	00000001 frame.0
00000000 l    df *ABS*	00000000 ch32h417_usbss_device.c
200a2b24 l     F .highcode	00000034 USB_Timer_Start.part.0
200a2b58 l     F .highcode	0000001c USBSS_PLL_Init.part.0
200a2b74 l     F .highcode	00000032 USBSS_RCC_Init.part.0
200d5d09 l     O .bss	00000001 link_low_power.0
200d5d0a l     O .bss	00000001 u3_first_count.1
00000000 l    df *ABS*	00000000 ch32h417_usbss_it.c
200d5d12 l     O .bss	00000001 format.1
200d5d11 l     O .bss	00000001 frame.0
00000000 l    df *ABS*	00000000 _udivdi3.o
00000000 l    df *ABS*	00000000 adddf3.o
00000000 l    df *ABS*	00000000 divdf3.o
00000000 l    df *ABS*	00000000 eqdf2.o
00000000 l    df *ABS*	00000000 gedf2.o
00000000 l    df *ABS*	00000000 ledf2.o
00000000 l    df *ABS*	00000000 muldf3.o
00000000 l    df *ABS*	00000000 subdf3.o
00000000 l    df *ABS*	00000000 unorddf2.o
00000000 l    df *ABS*	00000000 fixdfsi.o
00000000 l    df *ABS*	00000000 floatsidf.o
00000000 l    df *ABS*	00000000 floatunsidf.o
00000000 l    df *ABS*	00000000 gesf2.o
00000000 l    df *ABS*	00000000 extendsfdf2.o
00000000 l    df *ABS*	00000000 lib_a-abort.o
00000000 l    df *ABS*	00000000 lib_a-assert.o
00000000 l    df *ABS*	00000000 lib_a-fprintf.o
00000000 l    df *ABS*	00000000 lib_a-malloc.o
00000000 l    df *ABS*	00000000 lib_a-nano-freer.o
00000000 l    df *ABS*	00000000 lib_a-nano-mallocr.o
200a5ab6 l     F .highcode	0000005e sbrk_aligned
00000000 l    df *ABS*	00000000 lib_a-nano-vfprintf_float.o
00000000 l    df *ABS*	00000000 lib_a-nano-vfprintf_i.o
00000000 l    df *ABS*	00000000 lib_a-nano-vfprintf.o
200a65f6 l     F .highcode	00000026 __sfputc_r
00000000 l    df *ABS*	00000000 lib_a-printf.o
00000000 l    df *ABS*	00000000 lib_a-puts.o
00000000 l    df *ABS*	00000000 lib_a-sbrkr.o
00000000 l    df *ABS*	00000000 lib_a-signal.o
00000000 l    df *ABS*	00000000 lib_a-signalr.o
00000000 l    df *ABS*	00000000 lib_a-strlen.o
00000000 l    df *ABS*	00000000 lib_a-wbuf.o
00000000 l    df *ABS*	00000000 lib_a-wsetup.o
00000000 l    df *ABS*	00000000 lib_a-dtoa.o
200a6cfa l     F .highcode	0000012c quorem
00000000 l    df *ABS*	00000000 lib_a-fflush.o
00000000 l    df *ABS*	00000000 lib_a-findfp.o
200a7c7e l     F .highcode	00000066 std
00000000 l    df *ABS*	00000000 lib_a-fwalk.o
00000000 l    df *ABS*	00000000 lib_a-localeconv.o
00000000 l    df *ABS*	00000000 lib_a-lock.o
00000000 l    df *ABS*	00000000 lib_a-makebuf.o
00000000 l    df *ABS*	00000000 lib_a-mbtowc_r.o
00000000 l    df *ABS*	00000000 lib_a-memchr.o
00000000 l    df *ABS*	00000000 lib_a-mlock.o
00000000 l    df *ABS*	00000000 lib_a-mprec.o
200a9f6c l     O .highcode	0000000c p05.0
00000000 l    df *ABS*	00000000 lib_a-nano-callocr.o
00000000 l    df *ABS*	00000000 lib_a-stdio.o
00000000 l    df *ABS*	00000000 lib_a-wctomb_r.o
00000000 l    df *ABS*	00000000 lib_a-writer.o
00000000 l    df *ABS*	00000000 lib_a-closer.o
00000000 l    df *ABS*	00000000 lib_a-fstatr.o
00000000 l    df *ABS*	00000000 lib_a-isattyr.o
00000000 l    df *ABS*	00000000 lib_a-lseekr.o
00000000 l    df *ABS*	00000000 lib_a-readr.o
00000000 l    df *ABS*	00000000 trunctfdf2.o
00000000 l    df *ABS*	00000000 close.o
00000000 l    df *ABS*	00000000 fstat.o
00000000 l    df *ABS*	00000000 getpid.o
00000000 l    df *ABS*	00000000 isatty.o
00000000 l    df *ABS*	00000000 kill.o
00000000 l    df *ABS*	00000000 lseek.o
00000000 l    df *ABS*	00000000 read.o
00000000 l    df *ABS*	00000000 _exit.o
00000000 l    df *ABS*	00000000 usb_desc.c
00000000 l    df *ABS*	00000000 lib_a-impure.o
200c1a2c l     O .data	00000060 impure_data
200a0578 g     F .highcode	000001a2 main
200a0dde g     F .highcode	00000016 RCC_PIPECmd
200a6a68 g     F .highcode	00000030 _sbrk_r
200a896c g     F .highcode	00000034 _write_r
200dffac g     O .bss	00008000 USBSS_EP1_Tx_Buf
200a0890  w      .highcode	00000000 USBHSWakeup_IRQHandler
200a0890  w      .highcode	00000000 DMA1_Channel4_IRQHandler
200a8a5e g     F .highcode	00000032 _read_r
200a8632 g     F .highcode	00000166 __mdiff
200a0890  w      .highcode	00000000 SWPMI_IRQHandler
200a6e26 g     F .highcode	00000c9c _dtoa_r
200a599c g     F .highcode	00000010 abort
200d5d38 g     O .bss	00000004 errno
200a0e2e g     F .highcode	00000018 RCC_USBHSPLLClockSourceDivConfig
200a0db2 g     F .highcode	00000016 RCC_USBHS_PLLCmd
200a85fc g     F .highcode	00000036 __mcmp
200a025c g     F .highcode	00000028 .hidden __riscv_save_10
200d5cb0 g     O .bss	00000004 HCLKClock
200a89ce g     F .highcode	00000030 _fstat_r
200d7d50 g     O .bss	00000200 USBHS_EP1_Tx_Buf
200a0890  w      .highcode	00000000 USART6_IRQHandler
200a0b94 g     F .highcode	00000020 HSEM_ReleaseOneSem
200a0254 g     F .highcode	00000030 .hidden __riscv_save_12
200a8d7c g     F .highcode	00000002 _exit
200a025c g     F .highcode	00000028 .hidden __riscv_save_11
200a0890  w      .highcode	00000000 USBFS_IRQHandler
200a0890  w      .highcode	00000000 USBFSWakeup_IRQHandler
200d5cd2 g     O .bss	00000002 Dvp_DataSize
200a6afe g     F .highcode	00000032 _kill_r
200e81ac g       .bss	00000000 _ebss
200a7ef6 g     F .highcode	00000002 __retarget_lock_release_recursive
200a0890  w      .highcode	00000000 CAN3_TX_IRQHandler
200a0890  w      .highcode	00000000 SAI_IRQHandler
200a2072 g     F .highcode	000000ba USB_TestMode_Deal
200a0890  w      .highcode	00000000 TIM8_CC_IRQHandler
200a7ee8 g     F .highcode	0000000a _localeconv_r
200a0890  w      .highcode	00000000 CAN3_RX1_IRQHandler
200a98c4 g     O .highcode	000001ec MyCfgDescr_HS
200a9e88 g     O .highcode	00000020 __sf_fake_stderr
200a0890  w      .highcode	00000000 ETH_IRQHandler
200a0890  w      .highcode	00000000 SPI2_IRQHandler
200a03fc g     F .highcode	0000001e Control_All_Relays
200a9600 g     O .highcode	00000012 OSStringDescriptor
200a7e80 g     F .highcode	00000068 _fwalk_reent
200d5cf8 g     O .bss	00000001 USBHS_DevAddr
200d5cbc g     O .bss	00000002 Resolution_height
200a0890  w      .highcode	00000000 USBPD_IRQHandler
200a4942 g     F .highcode	000000be .hidden __gtdf2
200d5d16 g     O .bss	00000002 USBSS_SetupReqLen
200a8d2c g     F .highcode	00000010 _getpid
200a0890  w      .highcode	00000000 HSEM_Handler
200a0890  w      .highcode	00000000 I3C_ER_IRQHandler
200a4a00 g     F .highcode	000000bc .hidden __ltdf2
200a0890  w      .highcode	00000000 TIM8_TRG_COM_IRQHandler
200a0890  w      .highcode	00000000 SPI1_IRQHandler
200a0890  w      .highcode	00000000 TIM5_IRQHandler
200a5da8  w    F .highcode	000004c8 _printf_float
200a6b44 g     F .highcode	000000c2 __swbuf_r
200c1c20 g     O .data	00000004 _impure_ptr
200a21ba g     F .highcode	0000004e USBHS_Device_Init
200d5d24 g     O .bss	00000004 __malloc_sbrk_start
200a0524 g     F .highcode	00000024 Perform_Gesture_Recognition
200a0bb4 g     F .highcode	000001aa RCC_GetClocksFreq
200a02ca g     F .highcode	00000010 memset
200a4942 g     F .highcode	000000be .hidden __gedf2
200a10a0 g     F .highcode	0000013a SS_CtrlCamera
200c039c g     O .data	00000627 ExtensionID2
200ff800 g       .stack	00000000 _heap_end
200a9ea8 g     O .highcode	00000020 __sf_fake_stdout
200a637a g     F .highcode	0000027c _printf_i
200a8d4c g     F .highcode	00000010 _kill
200a31a8 g     F .highcode	0000004c USBSS_Endp_Clear_Frature
200a03ea g     F .highcode	00000012 Control_Relay
200a0890  w      .highcode	00000000 I2C4_EV_IRQHandler
200a9ab0 g     O .highcode	00000012 MyDevDescr
200a58dc g     F .highcode	000000c0 .hidden __extendsfdf2
200a8d3c g     F .highcode	00000010 _isatty
200a5a08 g     F .highcode	00000008 malloc
200a84fa g     F .highcode	00000102 __lshift
200a0e0a g     F .highcode	00000012 RCC_USBHSPLLCLKConfig
200a1f28 g     F .highcode	00000024 OV2640_Speed_Mode
200a097a g     F .highcode	0000000a GPIO_WriteBit
200a0890  w      .highcode	00000000 USART7_IRQHandler
200a5846 g     F .highcode	00000096 .hidden __gtsf2
200c09c4 g     O .data	000002f4 ExtensionID1
200a041a g     F .highcode	000000f6 Process_Gesture
200c0380 g     O .data	0000001a Get_Curr
200e7fac g     O .bss	00000200 USBSS_EP0_Buf
200a0df4 g     F .highcode	00000016 RCC_UTMIcmd
200d5d2c g     O .bss	00000001 __lock___malloc_recursive_mutex
200a025c g     F .highcode	00000028 .hidden __riscv_save_8
200a025c g     F .highcode	00000028 .hidden __riscv_save_9
200a2bd0 g     F .highcode	00000014 USBSS_Device_Endp_Deinit
200a0890  w      .highcode	00000000 WWDG_IRQHandler
200a0890  w      .highcode	00000000 ADC1_2_IRQHandler
200a0890  w      .highcode	00000000 DMA1_Channel5_IRQHandler
200a0890  w      .highcode	00000000 QSPI2_IRQHandler
200a0890  w      .highcode	00000000 DMA2_Channel5_IRQHandler
200a0890  w      .highcode	00000000 EXTI15_8_IRQHandler
200d5d18 g     O .bss	00000002 USBSS_SetupReqIndex
200a8d6c g     F .highcode	00000010 _read
200a0890  w      .highcode	00000000 I2C3_EV_IRQHandler
200a0890  w      .highcode	00000000 SPI4_IRQHandler
200a7f52 g     F .highcode	00000098 __smakebuf_r
200a0890  w      .highcode	00000000 Break_Point_Handler
200a80da g     F .highcode	00000044 _Bfree
200a0efa g     F .highcode	00000014 USART_Cmd
200a5b14 g     F .highcode	0000010e _malloc_r
200a9274 g     O .highcode	00000010 ov2640_jpeg_reg_tbl
200a0890  w      .highcode	00000000 RCC_IRQHandler
200a0890  w      .highcode	00000000 I2C1_ER_IRQHandler
200a0890  w      .highcode	00000000 IPC_CH0_Handler
200a8d1c g     F .highcode	00000010 _fstat
200a9f78 g     O .highcode	00000028 __mprec_bigtens
200a7fea g     F .highcode	00000032 __ascii_mbtowc
200a0890  w      .highcode	00000000 RTC_IRQHandler
200a0890  w      .highcode	00000000 DMA1_Channel6_IRQHandler
200c0cb8 g     O .data	000004ec ProcessID
200a57f4 g     F .highcode	00000052 .hidden __floatunsidf
200a0890  w      .highcode	00000000 LPTIM1_WKUP_IRQHandler
200a1c92 g     F .highcode	00000006 DVP_IRQHandler
200d5d1a g     O .bss	00000002 USBSS_SetupReqValue
200a0890  w      .highcode	00000000 GPHA_IRQHandler
200a7d4a g     F .highcode	0000000a __sinit_lock_acquire
200c23f8 g       .data	00000000 __global_pointer$
200a6c06 g     F .highcode	000000f4 __swsetup_r
200a0890  w      .highcode	00000000 TIM1_UP_IRQHandler
200a8d5c g     F .highcode	00000010 _lseek
200d5cf4 g     O .bss	00000001 USBHS_DevSpeed
200d5cfe g     O .bss	00000002 USBHS_SetupReqValue
200d5d1d g     O .bss	00000001 USBSS_SetupReqType
200d5d3c g     O .bss	00000014 UVC
200a0f4e g     F .highcode	00000042 Delay_Us
200a811e g     F .highcode	000000ba __multadd
200a89a0 g     F .highcode	0000002e _close_r
200a0890  w      .highcode	00000000 DMA1_Channel2_IRQHandler
200a0d7a g     F .highcode	0000001c RCC_HB2PeriphClockCmd
200a59ac g     F .highcode	00000036 __assert_func
200a11da g     F .highcode	0000015a HS_CtrlCamera
200a0890  w      .highcode	00000000 I2C2_EV_IRQHandler
200a0890  w      .highcode	00000000 CAN1_RX0_IRQHandler
200a964c g     O .highcode	00000026 MyManuInfo
200a0284 g     F .highcode	0000000c .hidden __riscv_save_2
200a15c2 g     F .highcode	00000196 SS_Endp1_Hander
200d5cfc g     O .bss	00000002 USBHS_SetupReqIndex
200a9284 g     O .highcode	00000164 ov2640_uxga_init_reg_tbl
200a0890  w      .highcode	00000000 TIM3_IRQHandler
200a0890  w      .highcode	00000000 DMA1_Channel7_IRQHandler
200c1c8c g     O .data	00000004 _global_impure_ptr
200a0284 g     F .highcode	0000000c .hidden __riscv_save_0
200d5d0c g     O .bss	00000004 Chip
200a0284 g     F .highcode	0000000c .hidden __riscv_save_1
200a0890  w      .highcode	00000000 UHSIF_IRQHandler
200d5cbe g     O .bss	00000002 Resolution_width
200a0284 g     F .highcode	0000000c .hidden __riscv_save_3
200a5a10 g     F .highcode	000000a6 _free_r
200d5d10 g     O .bss	00000001 USB_Enum_Status
200d5ca8 g     O .bss	00000004 SystemCoreClock
200a31f4 g     F .highcode	00000040 USBSS_Endp_Set_Frature
00030008 g       .loadcodelalign	00000000 _loadcode_lma
00000800 g       *ABS*	00000000 __stack_size
200a026a g     F .highcode	0000001a .hidden __riscv_save_7
200a026a g     F .highcode	0000001a .hidden __riscv_save_6
200a1758 g     F .highcode	0000015a DVP_Hander
200d5cac g     O .bss	00000004 SystemClock
200c1c88 g     O .data	00000004 MyLangDescr
200a5c22 g     F .highcode	000000f4 __cvt
200a18b2 g     F .highcode	000001f0 USBHS_UVC_NonStandardReq
200a0d96 g     F .highcode	0000001c RCC_HB1PeriphClockCmd
200c0200 g       .loadcode	00000000 _loadcode_vma_start
200a026a g     F .highcode	0000001a .hidden __riscv_save_4
200a026a g     F .highcode	0000001a .hidden __riscv_save_5
200c0300 g       .dalign	00000000 _data_vma
200a0890  w      .highcode	00000000 USART2_IRQHandler
200a0e46 g     F .highcode	00000018 TIM_GetITStatus
200a02a8 g     F .highcode	0000000c .hidden __riscv_restore_1
200a2f9c g     F .highcode	00000050 USBSS_CFG_MOD
200a6270 g     F .highcode	0000010a _printf_common
200a7ef8 g     F .highcode	0000005a __swhatbuf_r
200a136e g     F .highcode	00000254 HS_Endp1_ISOHander
200a0890  w      .highcode	00000000 USART5_IRQHandler
200d7fac g     O .bss	00008000 USBSS_EP1_Rx_Buf
200a9cec g     O .highcode	00000101 _ctype_
200a7ac2 g     F .highcode	00000134 __sflush_r
200a6918 g     F .highcode	0000003c printf
200a02dc g     F .highcode	00000010 HardFault_Handler
200a0dc8 g     F .highcode	00000016 RCC_USBSS_PLLCmd
200a0890  w      .highcode	00000000 CAN3_RX0_IRQHandler
200a7d40 g     F .highcode	0000000a __sfp_lock_release
200a0890  w      .highcode	00000000 Ecall_M_Mode_Handler
200a0b6c g     F .highcode	00000028 HSEM_FastTake
200a0890  w      .highcode	00000000 SWPMI_WKUP_IRQHandler
200a0890  w      .highcode	00000000 SERDES_IRQHandler
200a0294 g     F .highcode	00000020 .hidden __riscv_restore_8
200a2cd6 g     F .highcode	000002b4 USBSS_LINK_Handle
200a029e g     F .highcode	00000016 .hidden __riscv_restore_6
200a91dc g     O .highcode	00000014 ov2640_JPEGframe_resolution_USB20
200a0f90 g     F .highcode	00000042 Delay_Ms
200a029e g     F .highcode	00000016 .hidden __riscv_restore_5
200a02a8 g     F .highcode	0000000c .hidden __riscv_restore_2
200a029e g     F .highcode	00000016 .hidden __riscv_restore_7
200a7d5e g     F .highcode	00000072 __sinit
00030000 g       .init	00000000 _start
200a02a8 g     F .highcode	0000000c .hidden __riscv_restore_3
200a9fa0 g     O .highcode	000000c8 __mprec_tens
200a0890  w      .highcode	00000000 PIOC_IRQHandler
200a02a8 g     F .highcode	0000000c .hidden __riscv_restore_0
200a0890  w      .highcode	00000000 LTDC_IRQHandler
200a665c g     F .highcode	000002bc _vfprintf_r
200a029e g     F .highcode	00000016 .hidden __riscv_restore_4
200a1e98 g     F .highcode	00000066 OV2640_OutSize_Set
200a0890  w      .highcode	00000000 IPC_CH2_Handler
200a0890  w      .highcode	00000000 ECDC_IRQHandler
200a0890  w      .highcode	00000000 DFSDM0_IRQHandler
200a0890  w      .highcode	00000000 FMC_IRQHandler
200a0890  w      .highcode	00000000 TIM8_BRK_IRQHandler
0003a1a8 g       .highcodelalign1	00000000 _highcode_lma1
200a0890  w      .highcode	00000000 CAN2_TX_IRQHandler
200a0890  w      .highcode	00000000 FLASH_IRQHandler
200a0890  w      .highcode	00000000 USART4_IRQHandler
200a0890  w      .highcode	00000000 CAN1_TX_IRQHandler
200a0f16 g     F .highcode	0000000a USART_GetFlagStatus
200a7ef2 g     F .highcode	00000002 __retarget_lock_init_recursive
200a661c g     F .highcode	00000040 __sfputs_r
200a0890  w      .highcode	00000000 SDIO_IRQHandler
200a0890  w      .highcode	00000000 TIM11_IRQHandler
200c1c14 g     O .data	00000001 Formatchange_flag
200a0890  w      .highcode	00000000 IPC_CH3_Handler
200a0890  w      .highcode	00000000 HSADC_IRQHandler
200a0294 g     F .highcode	00000020 .hidden __riscv_restore_9
200a0890  w      .highcode	00000000 DMA2_Channel8_IRQHandler
200a0890  w      .highcode	00000000 TIM1_BRK_IRQHandler
200a0890  w      .highcode	00000000 USART1_IRQHandler
200c1c1c g     O .data	00000004 Dvp_Recaddr
200a6af6 g     F .highcode	00000008 raise
200a0890  w      .highcode	00000000 TIM2_IRQHandler
200a2c98 g     F .highcode	0000003e USB_Timer_Start
200d5cf6 g     O .bss	00000002 USBHS_DevMaxPackLen
200a59e2 g     F .highcode	00000026 fprintf
200a7d54 g     F .highcode	0000000a __sinit_lock_release
200a0890  w      .highcode	00000000 I2C4_ER_IRQHandler
200a0890  w      .highcode	00000000 DMA1_Channel8_IRQHandler
200a8798 g     F .highcode	000000dc __d2b
200c1840 g     O .data	000001ec TAB_USB_FS_OSC_DESC
200d5d14 g     O .bss	00000001 USBSS_DevSleepStatus
200a0890  w      .highcode	00000000 CAN1_SCE_IRQHandler
200a91c8 g     O .highcode	00000014 ov2640_YUVframe_resolution_USB30
200a0890  w      .highcode	00000000 DFSDM1_IRQHandler
200a2f8a g     F .highcode	00000012 SET_Device_Address
200a828e g     F .highcode	00000038 __i2b
200a8d0c g     F .highcode	00000010 _close
200a7d36 g     F .highcode	0000000a __sfp_lock_acquire
200aa068 g       .fini	00000000 _highcode_vma_start1
200a9888 g     O .highcode	0000003c MyCfgDescr_FS
200a0890  w      .highcode	00000000 EXTI7_0_IRQHandler
200a1d4e g     F .highcode	00000090 SCCB_WR_Byte
200a0890  w      .highcode	00000000 SysTick0_Handler
200a0892 g     F .highcode	000000e0 GPIO_Init
200a3234 g     F .highcode	00000052 USBSS_Get_Endp_Status
200a88d4 g     F .highcode	00000046 __swrite
200c17cc g     O .data	00000035 IFTest_Buf
200a962c g     O .highcode	00000020 MyProdInfo
200a0890  w      .highcode	00000000 LPTIM2_IRQHandler
200a804c g     F .highcode	0000008e _Balloc
200a0f0e g     F .highcode	00000008 USART_SendData
200aa068 g       .highcode	00000000 _highcode_vma_end
200a2ba6 g     F .highcode	0000002a USBSS_RCC_Init
200a0890  w      .highcode	00000000 QSPI1_IRQHandler
200a0e6a g     F .highcode	00000090 USART_Init
200a5846 g     F .highcode	00000096 .hidden __gesf2
200a7ce4 g     F .highcode	0000000a _cleanup_r
200a0890  w      .highcode	00000000 DMA2_Channel3_IRQHandler
20100000 g       .stack	00000000 _eusrstack
200d5d04 g     O .bss	00000004 pUSBHS_Descr
200a0890  w      .highcode	00000000 SysTick1_Handler
200a891a g     F .highcode	0000002e __sseek
200a56e2 g     F .highcode	0000003e .hidden __unorddf2
200a59e2 g     F .highcode	00000026 fiprintf
200a2fec g     F .highcode	000000f4 USBSS_Device_Init
200d5ca0 g       .bss	00000000 _sbss
200d5d34 g     O .bss	00000001 __lock___sinit_recursive_mutex
200a93e8 g     O .highcode	00000148 yuv_uxga
200a1040 g     F .highcode	00000036 _write
200a0890  w      .highcode	00000000 TIM9_IRQHandler
200a0890  w      .highcode	00000000 DMA2_Channel7_IRQHandler
200a0890  w      .highcode	00000000 TIM8_UP_IRQHandler
200a0890  w      .highcode	00000000 SDMMC_IRQHandler
200a0890  w      .highcode	00000000 SW_Handler
200a4abc g     F .highcode	00000508 .hidden __muldf3
200a6b30 g     F .highcode	00000004 _getpid_r
200a0890  w      .highcode	00000000 DMA2_Channel6_IRQHandler
200c1804 g     O .data	0000003c TAB_USB_HS_OSC_DESC
200a0290 g     F .highcode	00000024 .hidden __riscv_restore_12
200a0890  w      .highcode	00000000 Ecall_U_Mode_Handler
200a0294 g     F .highcode	00000020 .hidden __riscv_restore_11
200a9868 g     O .highcode	00000012 SS_DeviceDescriptor
00030000 g       .init	00000000 _sinit
200d5d00 g     O .bss	00000001 USBHS_SetupReqType
200d5d15 g     O .bss	00000001 USBSS_DevConfig
200a665c g     F .highcode	000002bc _vfiprintf_r
200d5d1c g     O .bss	00000001 USBSS_SetupReqCode
200a0890  w      .highcode	00000000 RNG_IRQHandler
200a0890  w      .highcode	00000000 ETH_WKUP_IRQHandler
200d5cf3 g     O .bss	00000001 USBHS_DevSleepStatus
200a212c g     F .highcode	00000056 USBHS_Device_Endp_Init
200d5d20 g     O .bss	00000004 pUSBSS_Descr
200a6954 g     F .highcode	0000010c _puts_r
200a894e g     F .highcode	0000001e __ascii_wctomb
200a0890  w      .highcode	00000000 DMA1_Channel3_IRQHandler
200a91f0 g     O .highcode	00000014 ov2640_JPEGframe_resolution_USB30
200a9b04 g     O .highcode	00000100 .hidden __clz_tab
200d5d08 g     O .bss	00000001 USBHS_Test_Flag
200a5d16 g     F .highcode	00000092 __exponent
200d5d01 g     O .bss	00000001 USBHS_SetupReqCode
200a1ce4 g     F .highcode	00000034 SCCB_Start
200a071a g     F .highcode	00000176 SystemAndCoreClockUpdate
200a9ec8 g     O .highcode	00000020 __sf_fake_stdin
200d5d30 g     O .bss	00000001 __lock___sfp_recursive_mutex
200a0548 g     F .highcode	00000030 Initialize_Gesture_Model
200a0000 g       .highcode	00000000 _highcode_vma_start
200aa068 g       .dtors	00000000 _highcode_vma_end1
200a0890  w      .highcode	00000000 I3C_WKUP_IRQHandler
0003a154  w      .text	00000000 handle_reset
200a0890  w      .highcode	00000000 TIM4_IRQHandler
200a0890  w      .highcode	00000000 USART3_IRQHandler
200a9614 g     O .highcode	00000016 MySerNumInfo
200a1e20 g     F .highcode	00000078 OV2640_Format_Mode
200a8948 g     F .highcode	00000006 __sclose
200a1f4c g     F .highcode	000000ce OV2640_Change_Resolution
200a9674 g     O .highcode	000001f2 SS_ConfigDescriptor
200c1a8c g     O .data	0000016c __global_locale
200a0890  w      .highcode	00000000 I2C3_ER_IRQHandler
200a02da g     F .highcode	00000002 NMI_Handler
200a1334 g     F .highcode	0000003a HS_Endp1_Hander
200a7ef4 g     F .highcode	00000002 __retarget_lock_acquire_recursive
200a0890  w      .highcode	00000000 IPC_CH1_Handler
200a8874 g     F .highcode	00000036 _calloc_r
200c02e4 g       .loadcode	00000000 _loadcode_vma_end
200a0890  w      .highcode	00000000 USART8_IRQHandler
200d7f50 g     O .bss	00000040 USBHS_EP0_Buf
200a0890  w      .highcode	00000000 USBPDWakeUp_IRQHandler
200a38c8 g     F .highcode	0000039a .hidden __udivdi3
200a3286 g     F .highcode	00000642 USBSS_IRQHandler
200a0984 g     F .highcode	000001e8 GPIO_PinAFConfig
200d7f90 g     O .bss	0000001c USBSS_Dev_Info
200a1dde g     F .highcode	00000042 SCCB_WR_Reg
200a2be4 g     F .highcode	0000005e USBSS_Device_Endp_Init
200a0972 g     F .highcode	00000004 GPIO_SetBits
200a2182 g     F .highcode	00000038 USBHS_RCC_Init
0003a1a8 g       .dlalign	00000000 _data_lma
200a82c6 g     F .highcode	00000176 __multiply
200a843c g     F .highcode	000000be __pow5mult
200a91b4 g     O .highcode	00000014 ov2640_YUVframe_resolution_USB20
200a0fd2 g     F .highcode	0000006e USART_Printf_Init
200a1d18 g     F .highcode	00000036 SCCB_Stop
200d5d13 g     O .bss	00000001 USBSS_DevEnumStatus
200a0890  w      .highcode	00000000 I2C2_ER_IRQHandler
200a2c42 g     F .highcode	00000056 USBSS_Reset_Init
200a0e5e g     F .highcode	0000000c TIM_ClearITPendingBit
200a8034 g     F .highcode	0000000c __malloc_lock
200a1aa2 g     F .highcode	000001f0 USBSS_UVC_NonStandardReq
200a6a98 g     F .highcode	0000005e _raise_r
200a0890  w      .highcode	00000000 CAN2_RX0_IRQHandler
200a0890  w      .highcode	00000000 TIM1_TRG_COM_IRQHandler
200a8a90 g     F .highcode	0000027c .hidden __trunctfdf2
200a8226 g     F .highcode	00000068 __lo0bits
200a30e0 g     F .highcode	000000bc TIM12_IRQHandler
200a4fc4 g     F .highcode	0000071e .hidden __subdf3
200a4a00 g     F .highcode	000000bc .hidden __ledf2
200a319c g     F .highcode	0000000c USBSS_LINK_IRQHandler
200a3c62 g     F .highcode	00000706 .hidden __adddf3
200c16d0 g     O .data	000000fc VAICSID
200a7bf6 g     F .highcode	00000088 _fflush_r
200a4368 g     F .highcode	0000056e .hidden __divdf3
200d5d50 g     O .bss	00002000 Data_Buffer
200a801c g     F .highcode	00000018 memchr
200a88aa g     F .highcode	0000002a __sread
200a0890  w      .highcode	00000000 TIM6_IRQHandler
200c1c90 g       .data	00000000 _edata
200d5cf9 g     O .bss	00000001 USBHS_DevConfig
200a0890  w      .highcode	00000000 CAN2_RX1_IRQHandler
200a0890  w      .highcode	00000000 RTCAlarm_IRQHandler
200a6a60 g     F .highcode	00000008 puts
200a0890  w      .highcode	00000000 I2C1_EV_IRQHandler
200a0890  w      .highcode	00000000 TIM1_CC_IRQHandler
200a0976 g     F .highcode	00000004 GPIO_ResetBits
200a1076 g     F .highcode	0000002a _sbrk
200a8a2c g     F .highcode	00000032 _lseek_r
200a0890  w      .highcode	00000000 LPTIM1_IRQHandler
00030008 g       .init	00000000 _einit
200a0360 g     F .highcode	0000008a Relay_Init
200a0890  w      .highcode	00000000 SPI3_IRQHandler
200a0890  w      .highcode	00000000 DMA1_Channel1_IRQHandler
200a5784 g     F .highcode	00000070 .hidden __floatsidf
200a0890  w      .highcode	00000000 USBSSWakeup_IRQHandler
200a0890  w      .highcode	00000000 TIM7_IRQHandler
200a7cee g     F .highcode	00000048 __sfmoreglue
200a0890  w      .highcode	00000000 DMA2_Channel4_IRQHandler
200a0510 g     F .highcode	00000014 Get_Gesture_From_Shared_Memory
200a2208 g     F .highcode	0000091c USBHS_IRQHandler
200d5d28 g     O .bss	00000004 __malloc_free_list
200a0890  w      .highcode	00000000 DMA2_Channel2_IRQHandler
200e81ac g       .bss	00000000 _end
200c11a4 g     O .data	0000052b CameraID
200a987c g     O .highcode	0000000a MyQuaDesc
200a02b4 g     F .highcode	00000016 memcpy
200a0e1c g     F .highcode	00000012 RCC_USBHSPLLReferConfig
200a48d6 g     F .highcode	0000006c .hidden __nedf2
200a0294 g     F .highcode	00000020 .hidden __riscv_restore_10
200a0890  w      .highcode	00000000 LPTIM2_WKUP_IRQHandler
200a8040 g     F .highcode	0000000c __malloc_unlock
200a0890  w      .highcode	00000000 DMA2_Channel1_IRQHandler
200a0890  w      .highcode	00000000 CAN3_SCE_IRQHandler
200a6b34 g     F .highcode	00000010 strlen
200a7dd0 g     F .highcode	000000b0 __sfp
200a0890  w      .highcode	00000000 I3C_EV_IRQHandler
200d5cf2 g     O .bss	00000001 USBHS_DevEnumStatus
200a0d5e g     F .highcode	0000001c RCC_HBPeriphClockCmd
200a0890  w      .highcode	00000000 CAN1_RX1_IRQHandler
200a81d8 g     F .highcode	0000004e __hi0bits
200a1efe g     F .highcode	0000002a ov2640_speed_ctrl
200a1c98 g     F .highcode	0000004c Dvp_Row_Col_Set
000300ec g       .highcodelalign	00000000 _highcode_lma
200a0890  w      .highcode	00000000 CAN2_SCE_IRQHandler
200a48d6 g     F .highcode	0000006c .hidden __eqdf2
200a6918 g     F .highcode	0000003c iprintf
200d5cfa g     O .bss	00000002 USBHS_SetupReqLen
200a5720 g     F .highcode	00000064 .hidden __fixdfsi
200a89fe g     F .highcode	0000002e _isatty_r
200a0890  w      .highcode	00000000 USART_WKUP_IRQHandler
200a0890  w      .highcode	00000000 TIM10_IRQHandler
200a95e8 g     O .highcode	00000016 MyBOSDesc_SS
200a0f20 g     F .highcode	0000002e Delay_Init
200c1ca0 g     O .DMADATA	00014000 UVC_DMABuffer



Disassembly of section .init:

00030000 <_sinit>:
   30000:	1540a06f          	j	3a154 <handle_reset>
   30004:	0000                	unimp
	...

Disassembly of section .loadcode:

200c0200 <_loadcode_vma_start>:
200c0200:	dff70517          	auipc	a0,0xdff70
200c0204:	eec50513          	addi	a0,a0,-276 # 300ec <_highcode_lma>
200c0208:	fffe0597          	auipc	a1,0xfffe0
200c020c:	df858593          	addi	a1,a1,-520 # 200a0000 <_highcode_vma_start>
200c0210:	fffea617          	auipc	a2,0xfffea
200c0214:	e5860613          	addi	a2,a2,-424 # 200aa068 <_highcode_vma_end>
200c0218:	00c5fa63          	bgeu	a1,a2,200c022c <_loadcode_vma_start+0x2c>
200c021c:	00052283          	lw	t0,0(a0)
200c0220:	0055a023          	sw	t0,0(a1)
200c0224:	0511                	addi	a0,a0,4
200c0226:	0591                	addi	a1,a1,4
200c0228:	fec5eae3          	bltu	a1,a2,200c021c <_loadcode_vma_start+0x1c>
200c022c:	dff7a517          	auipc	a0,0xdff7a
200c0230:	f7c50513          	addi	a0,a0,-132 # 3a1a8 <_data_lma>
200c0234:	fffea597          	auipc	a1,0xfffea
200c0238:	e3458593          	addi	a1,a1,-460 # 200aa068 <_highcode_vma_end>
200c023c:	fffea617          	auipc	a2,0xfffea
200c0240:	e2c60613          	addi	a2,a2,-468 # 200aa068 <_highcode_vma_end>
200c0244:	00c5fa63          	bgeu	a1,a2,200c0258 <_loadcode_vma_start+0x58>
200c0248:	00052283          	lw	t0,0(a0)
200c024c:	0055a023          	sw	t0,0(a1)
200c0250:	0511                	addi	a0,a0,4
200c0252:	0591                	addi	a1,a1,4
200c0254:	fec5eae3          	bltu	a1,a2,200c0248 <_loadcode_vma_start+0x48>
200c0258:	dff7a517          	auipc	a0,0xdff7a
200c025c:	f5050513          	addi	a0,a0,-176 # 3a1a8 <_data_lma>
200c0260:	00000597          	auipc	a1,0x0
200c0264:	0a058593          	addi	a1,a1,160 # 200c0300 <SERDESPLLMULTB>
200c0268:	89818613          	addi	a2,gp,-1896 # 200c1c90 <_edata>
200c026c:	00c5fa63          	bgeu	a1,a2,200c0280 <_loadcode_vma_start+0x80>
200c0270:	00052283          	lw	t0,0(a0)
200c0274:	0055a023          	sw	t0,0(a1)
200c0278:	0511                	addi	a0,a0,4
200c027a:	0591                	addi	a1,a1,4
200c027c:	fec5eae3          	bltu	a1,a2,200c0270 <_loadcode_vma_start+0x70>
200c0280:	00016517          	auipc	a0,0x16
200c0284:	a2050513          	addi	a0,a0,-1504 # 200d5ca0 <gesture_counter.0>
200c0288:	00028597          	auipc	a1,0x28
200c028c:	f2458593          	addi	a1,a1,-220 # 200e81ac <_ebss>
200c0290:	00b57763          	bgeu	a0,a1,200c029e <_loadcode_vma_start+0x9e>
200c0294:	00052023          	sw	zero,0(a0)
200c0298:	0511                	addi	a0,a0,4
200c029a:	feb56de3          	bltu	a0,a1,200c0294 <_loadcode_vma_start+0x94>
200c029e:	a015                	j	200c02c2 <skip_clock_config>
200c02a0:	1237b2b7          	lui	t0,0x1237b
200c02a4:	3e028293          	addi	t0,t0,992 # 1237b3e0 <_data_lma+0x12341238>
200c02a8:	bc029073          	csrw	0xbc0,t0
200c02ac:	429d                	li	t0,7
200c02ae:	bc129073          	csrw	0xbc1,t0
200c02b2:	42bd                	li	t0,15
200c02b4:	80429073          	csrw	0x804,t0
200c02b8:	6299                	lui	t0,0x6
200c02ba:	08828293          	addi	t0,t0,136 # 6088 <__stack_size+0x5888>
200c02be:	30029073          	csrw	mstatus,t0

200c02c2 <skip_clock_config>:
200c02c2:	fffe0297          	auipc	t0,0xfffe0
200c02c6:	d3e28293          	addi	t0,t0,-706 # 200a0000 <_highcode_vma_start>
200c02ca:	0032e293          	ori	t0,t0,3
200c02ce:	30529073          	csrw	mtvec,t0
200c02d2:	fffe0297          	auipc	t0,0xfffe0
200c02d6:	2a628293          	addi	t0,t0,678 # 200a0578 <main>
200c02da:	34129073          	csrw	mepc,t0
200c02de:	30200073          	mret
	...

Disassembly of section .highcode:

200a0000 <_highcode_vma_start>:
200a0000:	00030000          	.word	0x00030000
200a0004:	00000000          	.word	0x00000000
200a0008:	200a02da          	.word	0x200a02da
200a000c:	200a02dc          	.word	0x200a02dc
200a0010:	00000000          	.word	0x00000000
200a0014:	200a0890          	.word	0x200a0890
	...
200a0020:	200a0890          	.word	0x200a0890
200a0024:	200a0890          	.word	0x200a0890
	...
200a0030:	200a0890          	.word	0x200a0890
200a0034:	200a0890          	.word	0x200a0890
200a0038:	200a0890          	.word	0x200a0890
200a003c:	00000000          	.word	0x00000000
200a0040:	200a0890          	.word	0x200a0890
200a0044:	200a0890          	.word	0x200a0890
200a0048:	200a0890          	.word	0x200a0890
200a004c:	200a0890          	.word	0x200a0890
	...
200a0070:	200a0890          	.word	0x200a0890
	...
200a0080:	200a0890          	.word	0x200a0890
200a0084:	200a0890          	.word	0x200a0890
200a0088:	200a0890          	.word	0x200a0890
200a008c:	200a0890          	.word	0x200a0890
200a0090:	200a0890          	.word	0x200a0890
200a0094:	200a0890          	.word	0x200a0890
200a0098:	200a0890          	.word	0x200a0890
200a009c:	200a0890          	.word	0x200a0890
200a00a0:	200a0890          	.word	0x200a0890
200a00a4:	200a0890          	.word	0x200a0890
200a00a8:	200a0890          	.word	0x200a0890
200a00ac:	200a0890          	.word	0x200a0890
200a00b0:	200a0890          	.word	0x200a0890
200a00b4:	200a0890          	.word	0x200a0890
200a00b8:	200a0890          	.word	0x200a0890
200a00bc:	200a0890          	.word	0x200a0890
200a00c0:	200a0890          	.word	0x200a0890
200a00c4:	200a0890          	.word	0x200a0890
200a00c8:	200a0890          	.word	0x200a0890
200a00cc:	200a0890          	.word	0x200a0890
200a00d0:	200a0890          	.word	0x200a0890
200a00d4:	200a0890          	.word	0x200a0890
200a00d8:	200a0890          	.word	0x200a0890
200a00dc:	200a0890          	.word	0x200a0890
200a00e0:	200a2208          	.word	0x200a2208
200a00e4:	200a0890          	.word	0x200a0890
200a00e8:	200a0890          	.word	0x200a0890
200a00ec:	200a0890          	.word	0x200a0890
200a00f0:	200a0890          	.word	0x200a0890
200a00f4:	200a0890          	.word	0x200a0890
200a00f8:	200a3286          	.word	0x200a3286
200a00fc:	200a319c          	.word	0x200a319c
200a0100:	200a0890          	.word	0x200a0890
200a0104:	200a0890          	.word	0x200a0890
200a0108:	200a0890          	.word	0x200a0890
200a010c:	200a0890          	.word	0x200a0890
200a0110:	200a0890          	.word	0x200a0890
200a0114:	200a0890          	.word	0x200a0890
200a0118:	200a0890          	.word	0x200a0890
200a011c:	200a0890          	.word	0x200a0890
200a0120:	200a0890          	.word	0x200a0890
200a0124:	200a0890          	.word	0x200a0890
200a0128:	200a0890          	.word	0x200a0890
200a012c:	200a0890          	.word	0x200a0890
200a0130:	200a0890          	.word	0x200a0890
200a0134:	200a0890          	.word	0x200a0890
200a0138:	200a0890          	.word	0x200a0890
200a013c:	200a0890          	.word	0x200a0890
200a0140:	200a0890          	.word	0x200a0890
200a0144:	200a0890          	.word	0x200a0890
200a0148:	200a0890          	.word	0x200a0890
200a014c:	200a0890          	.word	0x200a0890
200a0150:	200a0890          	.word	0x200a0890
200a0154:	200a0890          	.word	0x200a0890
200a0158:	200a0890          	.word	0x200a0890
200a015c:	200a0890          	.word	0x200a0890
200a0160:	200a0890          	.word	0x200a0890
200a0164:	200a0890          	.word	0x200a0890
200a0168:	200a0890          	.word	0x200a0890
200a016c:	200a0890          	.word	0x200a0890
200a0170:	200a0890          	.word	0x200a0890
200a0174:	200a30e0          	.word	0x200a30e0
200a0178:	200a0890          	.word	0x200a0890
200a017c:	200a0890          	.word	0x200a0890
200a0180:	200a0890          	.word	0x200a0890
200a0184:	200a0890          	.word	0x200a0890
200a0188:	200a0890          	.word	0x200a0890
200a018c:	200a0890          	.word	0x200a0890
200a0190:	200a0890          	.word	0x200a0890
200a0194:	200a0890          	.word	0x200a0890
200a0198:	200a0890          	.word	0x200a0890
200a019c:	200a0890          	.word	0x200a0890
200a01a0:	200a0890          	.word	0x200a0890
200a01a4:	200a0890          	.word	0x200a0890
200a01a8:	200a0890          	.word	0x200a0890
200a01ac:	200a0890          	.word	0x200a0890
200a01b0:	200a0890          	.word	0x200a0890
200a01b4:	200a0890          	.word	0x200a0890
200a01b8:	200a0890          	.word	0x200a0890
200a01bc:	200a0890          	.word	0x200a0890
200a01c0:	200a0890          	.word	0x200a0890
200a01c4:	200a0890          	.word	0x200a0890
200a01c8:	200a0890          	.word	0x200a0890
200a01cc:	200a0890          	.word	0x200a0890
200a01d0:	200a0890          	.word	0x200a0890
200a01d4:	200a0890          	.word	0x200a0890
200a01d8:	200a0890          	.word	0x200a0890
200a01dc:	200a0890          	.word	0x200a0890
200a01e0:	200a1c92          	.word	0x200a1c92
200a01e4:	200a0890          	.word	0x200a0890
200a01e8:	200a0890          	.word	0x200a0890
200a01ec:	200a0890          	.word	0x200a0890
200a01f0:	200a0890          	.word	0x200a0890
200a01f4:	200a0890          	.word	0x200a0890
200a01f8:	00000000          	.word	0x00000000
200a01fc:	200a0890          	.word	0x200a0890
200a0200:	200a0890          	.word	0x200a0890
	...
200a020c:	200a0890          	.word	0x200a0890
	...
200a0218:	200a0890          	.word	0x200a0890
200a021c:	200a0890          	.word	0x200a0890
200a0220:	200a0890          	.word	0x200a0890
200a0224:	200a0890          	.word	0x200a0890
200a0228:	200a0890          	.word	0x200a0890
200a022c:	200a0890          	.word	0x200a0890
200a0230:	200a0890          	.word	0x200a0890
200a0234:	200a0890          	.word	0x200a0890
200a0238:	200a0890          	.word	0x200a0890
200a023c:	200a0890          	.word	0x200a0890
200a0240:	200a0890          	.word	0x200a0890
200a0244:	200a0890          	.word	0x200a0890
200a0248:	200a0890          	.word	0x200a0890
200a024c:	200a0890          	.word	0x200a0890
200a0250:	200a0890          	.word	0x200a0890

200a0254 <__riscv_save_12>:
200a0254:	7139                	addi	sp,sp,-64
200a0256:	4301                	li	t1,0
200a0258:	c66e                	sw	s11,12(sp)
200a025a:	a019                	j	200a0260 <__riscv_save_10+0x4>

200a025c <__riscv_save_10>:
200a025c:	7139                	addi	sp,sp,-64
200a025e:	5341                	li	t1,-16
200a0260:	c86a                	sw	s10,16(sp)
200a0262:	ca66                	sw	s9,20(sp)
200a0264:	cc62                	sw	s8,24(sp)
200a0266:	ce5e                	sw	s7,28(sp)
200a0268:	a019                	j	200a026e <__riscv_save_4+0x4>

200a026a <__riscv_save_4>:
200a026a:	7139                	addi	sp,sp,-64
200a026c:	5301                	li	t1,-32
200a026e:	d05a                	sw	s6,32(sp)
200a0270:	d256                	sw	s5,36(sp)
200a0272:	d452                	sw	s4,40(sp)
200a0274:	d64e                	sw	s3,44(sp)
200a0276:	d84a                	sw	s2,48(sp)
200a0278:	da26                	sw	s1,52(sp)
200a027a:	dc22                	sw	s0,56(sp)
200a027c:	de06                	sw	ra,60(sp)
200a027e:	40610133          	sub	sp,sp,t1
200a0282:	8282                	jr	t0

200a0284 <__riscv_save_0>:
200a0284:	1141                	addi	sp,sp,-16
200a0286:	c04a                	sw	s2,0(sp)
200a0288:	c226                	sw	s1,4(sp)
200a028a:	c422                	sw	s0,8(sp)
200a028c:	c606                	sw	ra,12(sp)
200a028e:	8282                	jr	t0

200a0290 <__riscv_restore_12>:
200a0290:	4db2                	lw	s11,12(sp)
200a0292:	0141                	addi	sp,sp,16

200a0294 <__riscv_restore_10>:
200a0294:	4d02                	lw	s10,0(sp)
200a0296:	4c92                	lw	s9,4(sp)
200a0298:	4c22                	lw	s8,8(sp)
200a029a:	4bb2                	lw	s7,12(sp)
200a029c:	0141                	addi	sp,sp,16

200a029e <__riscv_restore_4>:
200a029e:	4b02                	lw	s6,0(sp)
200a02a0:	4a92                	lw	s5,4(sp)
200a02a2:	4a22                	lw	s4,8(sp)
200a02a4:	49b2                	lw	s3,12(sp)
200a02a6:	0141                	addi	sp,sp,16

200a02a8 <__riscv_restore_0>:
200a02a8:	4902                	lw	s2,0(sp)
200a02aa:	4492                	lw	s1,4(sp)
200a02ac:	4422                	lw	s0,8(sp)
200a02ae:	40b2                	lw	ra,12(sp)
200a02b0:	0141                	addi	sp,sp,16
200a02b2:	8082                	ret

200a02b4 <memcpy>:
200a02b4:	832a                	mv	t1,a0
200a02b6:	ca09                	beqz	a2,200a02c8 <memcpy+0x14>
200a02b8:	00058383          	lb	t2,0(a1)
200a02bc:	00730023          	sb	t2,0(t1)
200a02c0:	167d                	addi	a2,a2,-1
200a02c2:	0305                	addi	t1,t1,1
200a02c4:	0585                	addi	a1,a1,1
200a02c6:	fa6d                	bnez	a2,200a02b8 <memcpy+0x4>
200a02c8:	8082                	ret

200a02ca <memset>:
200a02ca:	832a                	mv	t1,a0
200a02cc:	c611                	beqz	a2,200a02d8 <memset+0xe>
200a02ce:	00b30023          	sb	a1,0(t1)
200a02d2:	167d                	addi	a2,a2,-1
200a02d4:	0305                	addi	t1,t1,1
200a02d6:	fe65                	bnez	a2,200a02ce <memset+0x4>
200a02d8:	8082                	ret

200a02da <NMI_Handler>:
200a02da:	a001                	j	200a02da <NMI_Handler>

200a02dc <HardFault_Handler>:
200a02dc:	beef07b7          	lui	a5,0xbeef0
200a02e0:	e000e737          	lui	a4,0xe000e
200a02e4:	08078793          	addi	a5,a5,128 # beef0080 <_eusrstack+0x9edf0080>
200a02e8:	c73c                	sw	a5,72(a4)
200a02ea:	a001                	j	200a02ea <HardFault_Handler+0xe>

200a02ec <Control_Relay.part.0>:
200a02ec:	f99ff2ef          	jal	t0,200a0284 <__riscv_save_0>
200a02f0:	4709                	li	a4,2
200a02f2:	87ae                	mv	a5,a1
200a02f4:	1141                	addi	sp,sp,-16
200a02f6:	842a                	mv	s0,a0
200a02f8:	45c1                	li	a1,16
200a02fa:	00e50863          	beq	a0,a4,200a030a <Control_Relay.part.0+0x1e>
200a02fe:	470d                	li	a4,3
200a0300:	02000593          	li	a1,32
200a0304:	00e50363          	beq	a0,a4,200a030a <Control_Relay.part.0+0x1e>
200a0308:	45a1                	li	a1,8
200a030a:	00240613          	addi	a2,s0,2
200a030e:	200d64b7          	lui	s1,0x200d6
200a0312:	40012537          	lui	a0,0x40012
200a0316:	c632                	sw	a2,12(sp)
200a0318:	fff40913          	addi	s2,s0,-1
200a031c:	ca448493          	addi	s1,s1,-860 # 200d5ca4 <relay_state>
200a0320:	80050513          	addi	a0,a0,-2048 # 40011800 <_eusrstack+0x1ff11800>
200a0324:	c39d                	beqz	a5,200a034a <Control_Relay.part.0+0x5e>
200a0326:	2d81                	jal	200a0976 <GPIO_ResetBits>
200a0328:	4632                	lw	a2,12(sp)
200a032a:	94ca                	add	s1,s1,s2
200a032c:	4785                	li	a5,1
200a032e:	200a9537          	lui	a0,0x200a9
200a0332:	a09c                	sb	a5,0(s1)
200a0334:	85a2                	mv	a1,s0
200a0336:	d8050513          	addi	a0,a0,-640 # 200a8d80 <_exit+0x4>
200a033a:	5de060ef          	jal	ra,200a6918 <iprintf>
200a033e:	06400513          	li	a0,100
200a0342:	44f000ef          	jal	ra,200a0f90 <Delay_Ms>
200a0346:	0141                	addi	sp,sp,16
200a0348:	b785                	j	200a02a8 <__riscv_restore_0>
200a034a:	2525                	jal	200a0972 <GPIO_SetBits>
200a034c:	94ca                	add	s1,s1,s2
200a034e:	200a9537          	lui	a0,0x200a9
200a0352:	4632                	lw	a2,12(sp)
200a0354:	00048023          	sb	zero,0(s1)
200a0358:	85a2                	mv	a1,s0
200a035a:	da050513          	addi	a0,a0,-608 # 200a8da0 <_exit+0x24>
200a035e:	bff1                	j	200a033a <Control_Relay.part.0+0x4e>

200a0360 <Relay_Init>:
200a0360:	f25ff2ef          	jal	t0,200a0284 <__riscv_save_0>
200a0364:	1141                	addi	sp,sp,-16
200a0366:	4585                	li	a1,1
200a0368:	04000513          	li	a0,64
200a036c:	c202                	sw	zero,4(sp)
200a036e:	c402                	sw	zero,8(sp)
200a0370:	c602                	sw	zero,12(sp)
200a0372:	209000ef          	jal	ra,200a0d7a <RCC_HB2PeriphClockCmd>
200a0376:	03800793          	li	a5,56
200a037a:	40012437          	lui	s0,0x40012
200a037e:	827c                	sh	a5,4(sp)
200a0380:	47c1                	li	a5,16
200a0382:	004c                	addi	a1,sp,4
200a0384:	c63e                	sw	a5,12(sp)
200a0386:	80040513          	addi	a0,s0,-2048 # 40011800 <_eusrstack+0x1ff11800>
200a038a:	478d                	li	a5,3
200a038c:	c43e                	sw	a5,8(sp)
200a038e:	2311                	jal	200a0892 <GPIO_Init>
200a0390:	4529                	li	a0,10
200a0392:	3ff000ef          	jal	ra,200a0f90 <Delay_Ms>
200a0396:	80040513          	addi	a0,s0,-2048
200a039a:	4605                	li	a2,1
200a039c:	45a1                	li	a1,8
200a039e:	2bf1                	jal	200a097a <GPIO_WriteBit>
200a03a0:	80040513          	addi	a0,s0,-2048
200a03a4:	4605                	li	a2,1
200a03a6:	45c1                	li	a1,16
200a03a8:	2bc9                	jal	200a097a <GPIO_WriteBit>
200a03aa:	4605                	li	a2,1
200a03ac:	02000593          	li	a1,32
200a03b0:	80040513          	addi	a0,s0,-2048
200a03b4:	23d9                	jal	200a097a <GPIO_WriteBit>
200a03b6:	200a9537          	lui	a0,0x200a9
200a03ba:	dc050513          	addi	a0,a0,-576 # 200a8dc0 <_exit+0x44>
200a03be:	6a2060ef          	jal	ra,200a6a60 <puts>
200a03c2:	200a9537          	lui	a0,0x200a9
200a03c6:	de050513          	addi	a0,a0,-544 # 200a8de0 <_exit+0x64>
200a03ca:	696060ef          	jal	ra,200a6a60 <puts>
200a03ce:	200a9537          	lui	a0,0x200a9
200a03d2:	df850513          	addi	a0,a0,-520 # 200a8df8 <_exit+0x7c>
200a03d6:	68a060ef          	jal	ra,200a6a60 <puts>
200a03da:	200a9537          	lui	a0,0x200a9
200a03de:	e1050513          	addi	a0,a0,-496 # 200a8e10 <_exit+0x94>
200a03e2:	67e060ef          	jal	ra,200a6a60 <puts>
200a03e6:	0141                	addi	sp,sp,16
200a03e8:	b5c1                	j	200a02a8 <__riscv_restore_0>

200a03ea <Control_Relay>:
200a03ea:	fff50793          	addi	a5,a0,-1
200a03ee:	0ff7f793          	zext.b	a5,a5
200a03f2:	4709                	li	a4,2
200a03f4:	00f76363          	bltu	a4,a5,200a03fa <Control_Relay+0x10>
200a03f8:	bdd5                	j	200a02ec <Control_Relay.part.0>
200a03fa:	8082                	ret

200a03fc <Control_All_Relays>:
200a03fc:	e89ff2ef          	jal	t0,200a0284 <__riscv_save_0>
200a0400:	1141                	addi	sp,sp,-16
200a0402:	85aa                	mv	a1,a0
200a0404:	c62a                	sw	a0,12(sp)
200a0406:	4505                	li	a0,1
200a0408:	37cd                	jal	200a03ea <Control_Relay>
200a040a:	45b2                	lw	a1,12(sp)
200a040c:	4509                	li	a0,2
200a040e:	3ff1                	jal	200a03ea <Control_Relay>
200a0410:	45b2                	lw	a1,12(sp)
200a0412:	450d                	li	a0,3
200a0414:	3fd9                	jal	200a03ea <Control_Relay>
200a0416:	0141                	addi	sp,sp,16
200a0418:	bd41                	j	200a02a8 <__riscv_restore_0>

200a041a <Process_Gesture>:
200a041a:	200c27b7          	lui	a5,0x200c2
200a041e:	bf87c703          	lbu	a4,-1032(a5) # 200c1bf8 <last_gesture>
200a0422:	0ea70663          	beq	a4,a0,200a050e <Process_Gesture+0xf4>
200a0426:	bea78c23          	sb	a0,-1032(a5)
200a042a:	479d                	li	a5,7
200a042c:	0ea7e163          	bltu	a5,a0,200a050e <Process_Gesture+0xf4>
200a0430:	e55ff2ef          	jal	t0,200a0284 <__riscv_save_0>
200a0434:	200a97b7          	lui	a5,0x200a9
200a0438:	f3078793          	addi	a5,a5,-208 # 200a8f30 <_exit+0x1b4>
200a043c:	20f54533          	sh2add	a0,a0,a5
200a0440:	411c                	lw	a5,0(a0)
200a0442:	8782                	jr	a5
200a0444:	4501                	li	a0,0
200a0446:	3f5d                	jal	200a03fc <Control_All_Relays>
200a0448:	200a9537          	lui	a0,0x200a9
200a044c:	e2850513          	addi	a0,a0,-472 # 200a8e28 <_exit+0xac>
200a0450:	610060ef          	jal	ra,200a6a60 <puts>
200a0454:	bd91                	j	200a02a8 <__riscv_restore_0>
200a0456:	4505                	li	a0,1
200a0458:	3755                	jal	200a03fc <Control_All_Relays>
200a045a:	200a9537          	lui	a0,0x200a9
200a045e:	e4850513          	addi	a0,a0,-440 # 200a8e48 <_exit+0xcc>
200a0462:	b7fd                	j	200a0450 <Process_Gesture+0x36>
200a0464:	200d67b7          	lui	a5,0x200d6
200a0468:	ca47c583          	lbu	a1,-860(a5) # 200d5ca4 <relay_state>
200a046c:	4505                	li	a0,1
200a046e:	0015b593          	seqz	a1,a1
200a0472:	3dad                	jal	200a02ec <Control_Relay.part.0>
200a0474:	200a9537          	lui	a0,0x200a9
200a0478:	e6850513          	addi	a0,a0,-408 # 200a8e68 <_exit+0xec>
200a047c:	bfd1                	j	200a0450 <Process_Gesture+0x36>
200a047e:	200d67b7          	lui	a5,0x200d6
200a0482:	ca57c583          	lbu	a1,-859(a5) # 200d5ca5 <relay_state+0x1>
200a0486:	4509                	li	a0,2
200a0488:	0015b593          	seqz	a1,a1
200a048c:	3585                	jal	200a02ec <Control_Relay.part.0>
200a048e:	200a9537          	lui	a0,0x200a9
200a0492:	e8850513          	addi	a0,a0,-376 # 200a8e88 <_exit+0x10c>
200a0496:	bf6d                	j	200a0450 <Process_Gesture+0x36>
200a0498:	200d67b7          	lui	a5,0x200d6
200a049c:	ca67c583          	lbu	a1,-858(a5) # 200d5ca6 <relay_state+0x2>
200a04a0:	450d                	li	a0,3
200a04a2:	0015b593          	seqz	a1,a1
200a04a6:	3599                	jal	200a02ec <Control_Relay.part.0>
200a04a8:	200a9537          	lui	a0,0x200a9
200a04ac:	ea850513          	addi	a0,a0,-344 # 200a8ea8 <_exit+0x12c>
200a04b0:	b745                	j	200a0450 <Process_Gesture+0x36>
200a04b2:	4501                	li	a0,0
200a04b4:	37a1                	jal	200a03fc <Control_All_Relays>
200a04b6:	200a9537          	lui	a0,0x200a9
200a04ba:	ec450513          	addi	a0,a0,-316 # 200a8ec4 <_exit+0x148>
200a04be:	bf49                	j	200a0450 <Process_Gesture+0x36>
200a04c0:	200d6437          	lui	s0,0x200d6
200a04c4:	ca444583          	lbu	a1,-860(s0) # 200d5ca4 <relay_state>
200a04c8:	4505                	li	a0,1
200a04ca:	ca440413          	addi	s0,s0,-860
200a04ce:	0015b593          	seqz	a1,a1
200a04d2:	3d29                	jal	200a02ec <Control_Relay.part.0>
200a04d4:	300c                	lbu	a1,1(s0)
200a04d6:	4509                	li	a0,2
200a04d8:	0015b593          	seqz	a1,a1
200a04dc:	3d01                	jal	200a02ec <Control_Relay.part.0>
200a04de:	200a9537          	lui	a0,0x200a9
200a04e2:	ee450513          	addi	a0,a0,-284 # 200a8ee4 <_exit+0x168>
200a04e6:	b7ad                	j	200a0450 <Process_Gesture+0x36>
200a04e8:	200d6437          	lui	s0,0x200d6
200a04ec:	ca440413          	addi	s0,s0,-860 # 200d5ca4 <relay_state>
200a04f0:	300c                	lbu	a1,1(s0)
200a04f2:	4509                	li	a0,2
200a04f4:	0015b593          	seqz	a1,a1
200a04f8:	3bd5                	jal	200a02ec <Control_Relay.part.0>
200a04fa:	202c                	lbu	a1,2(s0)
200a04fc:	450d                	li	a0,3
200a04fe:	0015b593          	seqz	a1,a1
200a0502:	33ed                	jal	200a02ec <Control_Relay.part.0>
200a0504:	200a9537          	lui	a0,0x200a9
200a0508:	f0c50513          	addi	a0,a0,-244 # 200a8f0c <_exit+0x190>
200a050c:	b791                	j	200a0450 <Process_Gesture+0x36>
200a050e:	8082                	ret

200a0510 <Get_Gesture_From_Shared_Memory>:
200a0510:	200c87b7          	lui	a5,0x200c8
200a0514:	239c                	lbu	a5,0(a5)
200a0516:	1141                	addi	sp,sp,-16
200a0518:	0ff7f793          	zext.b	a5,a5
200a051c:	87dc                	sb	a5,15(sp)
200a051e:	8788                	lbu	a0,15(sp)
200a0520:	0141                	addi	sp,sp,16
200a0522:	8082                	ret

200a0524 <Perform_Gesture_Recognition>:
200a0524:	200d6737          	lui	a4,0x200d6
200a0528:	ca072783          	lw	a5,-864(a4) # 200d5ca0 <gesture_counter.0>
200a052c:	4521                	li	a0,8
200a052e:	0785                	addi	a5,a5,1 # 200c8001 <__global_pointer$+0x5c09>
200a0530:	caf72023          	sw	a5,-864(a4)
200a0534:	06400713          	li	a4,100
200a0538:	02e7f6b3          	remu	a3,a5,a4
200a053c:	e689                	bnez	a3,200a0546 <Perform_Gesture_Recognition+0x22>
200a053e:	02e7d7b3          	divu	a5,a5,a4
200a0542:	0077f513          	andi	a0,a5,7
200a0546:	8082                	ret

200a0548 <Initialize_Gesture_Model>:
200a0548:	d3dff2ef          	jal	t0,200a0284 <__riscv_save_0>
200a054c:	65e5                	lui	a1,0x19
200a054e:	200a9537          	lui	a0,0x200a9
200a0552:	f0858593          	addi	a1,a1,-248 # 18f08 <__stack_size+0x18708>
200a0556:	f5050513          	addi	a0,a0,-176 # 200a8f50 <_exit+0x1d4>
200a055a:	3be060ef          	jal	ra,200a6918 <iprintf>
200a055e:	200a9537          	lui	a0,0x200a9
200a0562:	f7850513          	addi	a0,a0,-136 # 200a8f78 <_exit+0x1fc>
200a0566:	3b2060ef          	jal	ra,200a6918 <iprintf>
200a056a:	200a9537          	lui	a0,0x200a9
200a056e:	f9450513          	addi	a0,a0,-108 # 200a8f94 <_exit+0x218>
200a0572:	4ee060ef          	jal	ra,200a6a60 <puts>
200a0576:	bb0d                	j	200a02a8 <__riscv_restore_0>

200a0578 <main>:
200a0578:	ce5ff2ef          	jal	t0,200a025c <__riscv_save_10>
200a057c:	2a79                	jal	200a071a <SystemAndCoreClockUpdate>
200a057e:	1a3000ef          	jal	ra,200a0f20 <Delay_Init>
200a0582:	6571                	lui	a0,0x1c
200a0584:	20050513          	addi	a0,a0,512 # 1c200 <__stack_size+0x1ba00>
200a0588:	24b000ef          	jal	ra,200a0fd2 <USART_Printf_Init>
200a058c:	200a9537          	lui	a0,0x200a9
200a0590:	fec50513          	addi	a0,a0,-20 # 200a8fec <_exit+0x270>
200a0594:	4cc060ef          	jal	ra,200a6a60 <puts>
200a0598:	200d67b7          	lui	a5,0x200d6
200a059c:	ca87a583          	lw	a1,-856(a5) # 200d5ca8 <SystemCoreClock>
200a05a0:	200a9537          	lui	a0,0x200a9
200a05a4:	01850513          	addi	a0,a0,24 # 200a9018 <_exit+0x29c>
200a05a8:	370060ef          	jal	ra,200a6918 <iprintf>
200a05ac:	3f71                	jal	200a0548 <Initialize_Gesture_Model>
200a05ae:	3b4d                	jal	200a0360 <Relay_Init>
200a05b0:	1f400513          	li	a0,500
200a05b4:	1dd000ef          	jal	ra,200a0f90 <Delay_Ms>
200a05b8:	200a9537          	lui	a0,0x200a9
200a05bc:	02c50513          	addi	a0,a0,44 # 200a902c <_exit+0x2b0>
200a05c0:	4a0060ef          	jal	ra,200a6a60 <puts>
200a05c4:	4585                	li	a1,1
200a05c6:	4505                	li	a0,1
200a05c8:	3315                	jal	200a02ec <Control_Relay.part.0>
200a05ca:	3e800513          	li	a0,1000
200a05ce:	1c3000ef          	jal	ra,200a0f90 <Delay_Ms>
200a05d2:	4581                	li	a1,0
200a05d4:	4505                	li	a0,1
200a05d6:	3b19                	jal	200a02ec <Control_Relay.part.0>
200a05d8:	1f400513          	li	a0,500
200a05dc:	1b5000ef          	jal	ra,200a0f90 <Delay_Ms>
200a05e0:	4585                	li	a1,1
200a05e2:	4509                	li	a0,2
200a05e4:	3321                	jal	200a02ec <Control_Relay.part.0>
200a05e6:	3e800513          	li	a0,1000
200a05ea:	1a7000ef          	jal	ra,200a0f90 <Delay_Ms>
200a05ee:	4581                	li	a1,0
200a05f0:	4509                	li	a0,2
200a05f2:	39ed                	jal	200a02ec <Control_Relay.part.0>
200a05f4:	1f400513          	li	a0,500
200a05f8:	199000ef          	jal	ra,200a0f90 <Delay_Ms>
200a05fc:	4585                	li	a1,1
200a05fe:	450d                	li	a0,3
200a0600:	31f5                	jal	200a02ec <Control_Relay.part.0>
200a0602:	3e800513          	li	a0,1000
200a0606:	18b000ef          	jal	ra,200a0f90 <Delay_Ms>
200a060a:	4581                	li	a1,0
200a060c:	450d                	li	a0,3
200a060e:	39f9                	jal	200a02ec <Control_Relay.part.0>
200a0610:	200a9537          	lui	a0,0x200a9
200a0614:	04c50513          	addi	a0,a0,76 # 200a904c <_exit+0x2d0>
200a0618:	448060ef          	jal	ra,200a6a60 <puts>
200a061c:	200a9537          	lui	a0,0x200a9
200a0620:	06450513          	addi	a0,a0,100 # 200a9064 <_exit+0x2e8>
200a0624:	43c060ef          	jal	ra,200a6a60 <puts>
200a0628:	4501                	li	a0,0
200a062a:	2389                	jal	200a0b6c <HSEM_FastTake>
200a062c:	4581                	li	a1,0
200a062e:	4501                	li	a0,0
200a0630:	2395                	jal	200a0b94 <HSEM_ReleaseOneSem>
200a0632:	200a9537          	lui	a0,0x200a9
200a0636:	08850513          	addi	a0,a0,136 # 200a9088 <_exit+0x30c>
200a063a:	426060ef          	jal	ra,200a6a60 <puts>
200a063e:	200a9537          	lui	a0,0x200a9
200a0642:	0a850513          	addi	a0,a0,168 # 200a90a8 <_exit+0x32c>
200a0646:	41a060ef          	jal	ra,200a6a60 <puts>
200a064a:	200a9537          	lui	a0,0x200a9
200a064e:	0cc50513          	addi	a0,a0,204 # 200a90cc <_exit+0x350>
200a0652:	40e060ef          	jal	ra,200a6a60 <puts>
200a0656:	88c1ac03          	lw	s8,-1908(gp) # 200c1c84 <_impure_ptr+0x64>
200a065a:	8301aa03          	lw	s4,-2000(gp) # 200c1c28 <_impure_ptr+0x8>
200a065e:	8341aa83          	lw	s5,-1996(gp) # 200c1c2c <_impure_ptr+0xc>
200a0662:	8881ab03          	lw	s6,-1912(gp) # 200c1c80 <_impure_ptr+0x60>
200a0666:	4981                	li	s3,0
200a0668:	200a9bb7          	lui	s7,0x200a9
200a066c:	3d65                	jal	200a0524 <Perform_Gesture_Recognition>
200a066e:	4ca1                	li	s9,8
200a0670:	84aa                	mv	s1,a0
200a0672:	200c8937          	lui	s2,0x200c8
200a0676:	03951b63          	bne	a0,s9,200a06ac <main+0x134>
200a067a:	3d59                	jal	200a0510 <Get_Gesture_From_Shared_Memory>
200a067c:	00492903          	lw	s2,4(s2) # 200c8004 <__global_pointer$+0x5c0c>
200a0680:	842a                	mv	s0,a0
200a0682:	85da                	mv	a1,s6
200a0684:	854a                	mv	a0,s2
200a0686:	1c0050ef          	jal	ra,200a5846 <__gesf2>
200a068a:	04a05c63          	blez	a0,200a06e2 <main+0x16a>
200a068e:	04848a63          	beq	s1,s0,200a06e2 <main+0x16a>
200a0692:	854a                	mv	a0,s2
200a0694:	248050ef          	jal	ra,200a58dc <__extendsfdf2>
200a0698:	862a                	mv	a2,a0
200a069a:	86ae                	mv	a3,a1
200a069c:	140b8513          	addi	a0,s7,320 # 200a9140 <_exit+0x3c4>
200a06a0:	85a2                	mv	a1,s0
200a06a2:	276060ef          	jal	ra,200a6918 <iprintf>
200a06a6:	8522                	mv	a0,s0
200a06a8:	3b8d                	jal	200a041a <Process_Gesture>
200a06aa:	a825                	j	200a06e2 <main+0x16a>
200a06ac:	85aa                	mv	a1,a0
200a06ae:	00a90023          	sb	a0,0(s2)
200a06b2:	200a9537          	lui	a0,0x200a9
200a06b6:	8652                	mv	a2,s4
200a06b8:	86d6                	mv	a3,s5
200a06ba:	01892223          	sw	s8,4(s2)
200a06be:	11450513          	addi	a0,a0,276 # 200a9114 <_exit+0x398>
200a06c2:	256060ef          	jal	ra,200a6918 <iprintf>
200a06c6:	8526                	mv	a0,s1
200a06c8:	3b89                	jal	200a041a <Process_Gesture>
200a06ca:	3599                	jal	200a0510 <Get_Gesture_From_Shared_Memory>
200a06cc:	00492903          	lw	s2,4(s2)
200a06d0:	842a                	mv	s0,a0
200a06d2:	85da                	mv	a1,s6
200a06d4:	854a                	mv	a0,s2
200a06d6:	170050ef          	jal	ra,200a5846 <__gesf2>
200a06da:	00a05463          	blez	a0,200a06e2 <main+0x16a>
200a06de:	fb9418e3          	bne	s0,s9,200a068e <main+0x116>
200a06e2:	06400513          	li	a0,100
200a06e6:	0ab000ef          	jal	ra,200a0f90 <Delay_Ms>
200a06ea:	0985                	addi	s3,s3,1
200a06ec:	47a9                	li	a5,10
200a06ee:	02f9f7b3          	remu	a5,s3,a5
200a06f2:	ffad                	bnez	a5,200a066c <main+0xf4>
200a06f4:	200d67b7          	lui	a5,0x200d6
200a06f8:	ca478693          	addi	a3,a5,-860 # 200d5ca4 <relay_state>
200a06fc:	ca47c603          	lbu	a2,-860(a5)
200a0700:	200c27b7          	lui	a5,0x200c2
200a0704:	22b8                	lbu	a4,2(a3)
200a0706:	bf87c583          	lbu	a1,-1032(a5) # 200c1bf8 <last_gesture>
200a070a:	3294                	lbu	a3,1(a3)
200a070c:	200a9537          	lui	a0,0x200a9
200a0710:	17450513          	addi	a0,a0,372 # 200a9174 <_exit+0x3f8>
200a0714:	204060ef          	jal	ra,200a6918 <iprintf>
200a0718:	bf91                	j	200a066c <main+0xf4>

200a071a <SystemAndCoreClockUpdate>:
200a071a:	400217b7          	lui	a5,0x40021
200a071e:	43d4                	lw	a3,4(a5)
200a0720:	4798                	lw	a4,8(a5)
200a0722:	4621                	li	a2,8
200a0724:	8ab1                	andi	a3,a3,12
200a0726:	02c69463          	bne	a3,a2,200a074e <SystemAndCoreClockUpdate+0x34>
200a072a:	700006b7          	lui	a3,0x70000
200a072e:	8f75                	and	a4,a4,a3
200a0730:	50000637          	lui	a2,0x50000
200a0734:	14c70963          	beq	a4,a2,200a0886 <SystemAndCoreClockUpdate+0x16c>
200a0738:	02e66063          	bltu	a2,a4,200a0758 <SystemAndCoreClockUpdate+0x3e>
200a073c:	c71d                	beqz	a4,200a076a <SystemAndCoreClockUpdate+0x50>
200a073e:	1c9c47b7          	lui	a5,0x1c9c4
200a0742:	400006b7          	lui	a3,0x40000
200a0746:	80078793          	addi	a5,a5,-2048 # 1c9c3800 <_data_lma+0x1c989658>
200a074a:	06d70763          	beq	a4,a3,200a07b8 <SystemAndCoreClockUpdate+0x9e>
200a074e:	017d87b7          	lui	a5,0x17d8
200a0752:	84078793          	addi	a5,a5,-1984 # 17d7840 <_data_lma+0x179d698>
200a0756:	a08d                	j	200a07b8 <SystemAndCoreClockUpdate+0x9e>
200a0758:	60000637          	lui	a2,0x60000
200a075c:	10c70663          	beq	a4,a2,200a0868 <SystemAndCoreClockUpdate+0x14e>
200a0760:	077367b7          	lui	a5,0x7736
200a0764:	94078793          	addi	a5,a5,-1728 # 7735940 <_data_lma+0x76fb798>
200a0768:	b7cd                	j	200a074a <SystemAndCoreClockUpdate+0x30>
200a076a:	4790                	lw	a2,8(a5)
200a076c:	4794                	lw	a3,8(a5)
200a076e:	4798                	lw	a4,8(a5)
200a0770:	0a000593          	li	a1,160
200a0774:	0e06f693          	andi	a3,a3,224
200a0778:	8321                	srli	a4,a4,0x8
200a077a:	03f77713          	andi	a4,a4,63
200a077e:	8a7d                	andi	a2,a2,31
200a0780:	0705                	addi	a4,a4,1
200a0782:	08b69863          	bne	a3,a1,200a0812 <SystemAndCoreClockUpdate+0xf8>
200a0786:	1dcd67b7          	lui	a5,0x1dcd6
200a078a:	50078793          	addi	a5,a5,1280 # 1dcd6500 <_data_lma+0x1dc9c358>
200a078e:	02e7d733          	divu	a4,a5,a4
200a0792:	200c07b7          	lui	a5,0x200c0
200a0796:	32078793          	addi	a5,a5,800 # 200c0320 <PLLMULTB>
200a079a:	97b2                	add	a5,a5,a2
200a079c:	239c                	lbu	a5,0(a5)
200a079e:	4691                	li	a3,4
200a07a0:	02e787b3          	mul	a5,a5,a4
200a07a4:	00d60963          	beq	a2,a3,200a07b6 <SystemAndCoreClockUpdate+0x9c>
200a07a8:	6685                	lui	a3,0x1
200a07aa:	54068693          	addi	a3,a3,1344 # 1540 <__stack_size+0xd40>
200a07ae:	00c6d6b3          	srl	a3,a3,a2
200a07b2:	8a85                	andi	a3,a3,1
200a07b4:	c291                	beqz	a3,200a07b8 <SystemAndCoreClockUpdate+0x9e>
200a07b6:	8385                	srli	a5,a5,0x1
200a07b8:	200d6737          	lui	a4,0x200d6
200a07bc:	caf72623          	sw	a5,-852(a4) # 200d5cac <SystemClock>
200a07c0:	40021637          	lui	a2,0x40021
200a07c4:	4254                	lw	a3,4(a2)
200a07c6:	200c0737          	lui	a4,0x200c0
200a07ca:	31070713          	addi	a4,a4,784 # 200c0310 <HBPrescTB>
200a07ce:	8291                	srli	a3,a3,0x4
200a07d0:	8abd                	andi	a3,a3,15
200a07d2:	9736                	add	a4,a4,a3
200a07d4:	2318                	lbu	a4,0(a4)
200a07d6:	200c26b7          	lui	a3,0x200c2
200a07da:	bfc68693          	addi	a3,a3,-1028 # 200c1bfc <FPRETB>
200a07de:	00e7d7b3          	srl	a5,a5,a4
200a07e2:	4258                	lw	a4,4(a2)
200a07e4:	6641                	lui	a2,0x10
200a07e6:	8341                	srli	a4,a4,0x10
200a07e8:	8b0d                	andi	a4,a4,3
200a07ea:	9736                	add	a4,a4,a3
200a07ec:	2318                	lbu	a4,0(a4)
200a07ee:	200d66b7          	lui	a3,0x200d6
200a07f2:	00e7d733          	srl	a4,a5,a4
200a07f6:	cae6a823          	sw	a4,-848(a3) # 200d5cb0 <HCLKClock>
200a07fa:	e000f6b7          	lui	a3,0xe000f
200a07fe:	d106a683          	lw	a3,-752(a3) # e000ed10 <_eusrstack+0xbff0ed10>
200a0802:	8ef1                	and	a3,a3,a2
200a0804:	e291                	bnez	a3,200a0808 <SystemAndCoreClockUpdate+0xee>
200a0806:	87ba                	mv	a5,a4
200a0808:	200d6737          	lui	a4,0x200d6
200a080c:	caf72423          	sw	a5,-856(a4) # 200d5ca8 <SystemCoreClock>
200a0810:	8082                	ret
200a0812:	0e000593          	li	a1,224
200a0816:	02b69263          	bne	a3,a1,200a083a <SystemAndCoreClockUpdate+0x120>
200a081a:	5bd4                	lw	a3,52(a5)
200a081c:	200c07b7          	lui	a5,0x200c0
200a0820:	30078793          	addi	a5,a5,768 # 200c0300 <SERDESPLLMULTB>
200a0824:	82c1                	srli	a3,a3,0x10
200a0826:	97b6                	add	a5,a5,a3
200a0828:	239c                	lbu	a5,0(a5)
200a082a:	017d86b7          	lui	a3,0x17d8
200a082e:	84068693          	addi	a3,a3,-1984 # 17d7840 <_data_lma+0x179d698>
200a0832:	02d787b3          	mul	a5,a5,a3
200a0836:	8385                	srli	a5,a5,0x1
200a0838:	bf99                	j	200a078e <SystemAndCoreClockUpdate+0x74>
200a083a:	08000793          	li	a5,128
200a083e:	00f69763          	bne	a3,a5,200a084c <SystemAndCoreClockUpdate+0x132>
200a0842:	1c9c47b7          	lui	a5,0x1c9c4
200a0846:	80078793          	addi	a5,a5,-2048 # 1c9c3800 <_data_lma+0x1c989658>
200a084a:	b791                	j	200a078e <SystemAndCoreClockUpdate+0x74>
200a084c:	0c000793          	li	a5,192
200a0850:	00f69763          	bne	a3,a5,200a085e <SystemAndCoreClockUpdate+0x144>
200a0854:	077367b7          	lui	a5,0x7736
200a0858:	94078793          	addi	a5,a5,-1728 # 7735940 <_data_lma+0x76fb798>
200a085c:	bf0d                	j	200a078e <SystemAndCoreClockUpdate+0x74>
200a085e:	017d87b7          	lui	a5,0x17d8
200a0862:	84078793          	addi	a5,a5,-1984 # 17d7840 <_data_lma+0x179d698>
200a0866:	b725                	j	200a078e <SystemAndCoreClockUpdate+0x74>
200a0868:	5bd8                	lw	a4,52(a5)
200a086a:	200c07b7          	lui	a5,0x200c0
200a086e:	30078793          	addi	a5,a5,768 # 200c0300 <SERDESPLLMULTB>
200a0872:	8341                	srli	a4,a4,0x10
200a0874:	97ba                	add	a5,a5,a4
200a0876:	239c                	lbu	a5,0(a5)
200a0878:	017d8737          	lui	a4,0x17d8
200a087c:	84070713          	addi	a4,a4,-1984 # 17d7840 <_data_lma+0x179d698>
200a0880:	02e787b3          	mul	a5,a5,a4
200a0884:	bf0d                	j	200a07b6 <SystemAndCoreClockUpdate+0x9c>
200a0886:	1dcd67b7          	lui	a5,0x1dcd6
200a088a:	50078793          	addi	a5,a5,1280 # 1dcd6500 <_data_lma+0x1dc9c358>
200a088e:	b72d                	j	200a07b8 <SystemAndCoreClockUpdate+0x9e>

200a0890 <ADC1_2_IRQHandler>:
200a0890:	a001                	j	200a0890 <ADC1_2_IRQHandler>

200a0892 <GPIO_Init>:
200a0892:	459c                	lw	a5,8(a1)
200a0894:	0005d803          	lhu	a6,0(a1)
200a0898:	0107f713          	andi	a4,a5,16
200a089c:	00f7f893          	andi	a7,a5,15
200a08a0:	cb1d                	beqz	a4,200a08d6 <GPIO_Init+0x44>
200a08a2:	4d58                	lw	a4,28(a0)
200a08a4:	0018e893          	ori	a7,a7,1
200a08a8:	4681                	li	a3,0
200a08aa:	4e8d                	li	t4,3
200a08ac:	4e41                	li	t3,16
200a08ae:	28d01633          	bset	a2,zero,a3
200a08b2:	00c87333          	and	t1,a6,a2
200a08b6:	00661c63          	bne	a2,t1,200a08ce <GPIO_Init+0x3c>
200a08ba:	00169313          	slli	t1,a3,0x1
200a08be:	006e9633          	sll	a2,t4,t1
200a08c2:	40c77733          	andn	a4,a4,a2
200a08c6:	41d0                	lw	a2,4(a1)
200a08c8:	00661633          	sll	a2,a2,t1
200a08cc:	8f51                	or	a4,a4,a2
200a08ce:	0685                	addi	a3,a3,1
200a08d0:	fdc69fe3          	bne	a3,t3,200a08ae <GPIO_Init+0x1c>
200a08d4:	cd58                	sw	a4,28(a0)
200a08d6:	0ff87713          	zext.b	a4,a6
200a08da:	cf1d                	beqz	a4,200a0918 <GPIO_Init+0x86>
200a08dc:	4118                	lw	a4,0(a0)
200a08de:	4681                	li	a3,0
200a08e0:	02800313          	li	t1,40
200a08e4:	4e3d                	li	t3,15
200a08e6:	04800e93          	li	t4,72
200a08ea:	45a1                	li	a1,8
200a08ec:	28d01633          	bset	a2,zero,a3
200a08f0:	00c87f33          	and	t5,a6,a2
200a08f4:	01e61e63          	bne	a2,t5,200a0910 <GPIO_Init+0x7e>
200a08f8:	06679563          	bne	a5,t1,200a0962 <GPIO_Init+0xd0>
200a08fc:	c950                	sw	a2,20(a0)
200a08fe:	00269613          	slli	a2,a3,0x2
200a0902:	00ce1f33          	sll	t5,t3,a2
200a0906:	00c89633          	sll	a2,a7,a2
200a090a:	41e77733          	andn	a4,a4,t5
200a090e:	8f51                	or	a4,a4,a2
200a0910:	0685                	addi	a3,a3,1
200a0912:	fcb69de3          	bne	a3,a1,200a08ec <GPIO_Init+0x5a>
200a0916:	c118                	sw	a4,0(a0)
200a0918:	0ff00713          	li	a4,255
200a091c:	05077263          	bgeu	a4,a6,200a0960 <GPIO_Init+0xce>
200a0920:	4154                	lw	a3,4(a0)
200a0922:	4601                	li	a2,0
200a0924:	02800e13          	li	t3,40
200a0928:	04800e93          	li	t4,72
200a092c:	4321                	li	t1,8
200a092e:	00860713          	addi	a4,a2,8 # 10008 <__stack_size+0xf808>
200a0932:	28e01733          	bset	a4,zero,a4
200a0936:	00e875b3          	and	a1,a6,a4
200a093a:	00b71f63          	bne	a4,a1,200a0958 <GPIO_Init+0xc6>
200a093e:	03c79663          	bne	a5,t3,200a096a <GPIO_Init+0xd8>
200a0942:	c958                	sw	a4,20(a0)
200a0944:	00261713          	slli	a4,a2,0x2
200a0948:	45bd                	li	a1,15
200a094a:	00e595b3          	sll	a1,a1,a4
200a094e:	00e89733          	sll	a4,a7,a4
200a0952:	40b6f6b3          	andn	a3,a3,a1
200a0956:	8ed9                	or	a3,a3,a4
200a0958:	0605                	addi	a2,a2,1
200a095a:	fc661ae3          	bne	a2,t1,200a092e <GPIO_Init+0x9c>
200a095e:	c154                	sw	a3,4(a0)
200a0960:	8082                	ret
200a0962:	f9d79ee3          	bne	a5,t4,200a08fe <GPIO_Init+0x6c>
200a0966:	c910                	sw	a2,16(a0)
200a0968:	bf59                	j	200a08fe <GPIO_Init+0x6c>
200a096a:	fdd79de3          	bne	a5,t4,200a0944 <GPIO_Init+0xb2>
200a096e:	c918                	sw	a4,16(a0)
200a0970:	bfd1                	j	200a0944 <GPIO_Init+0xb2>

200a0972 <GPIO_SetBits>:
200a0972:	c90c                	sw	a1,16(a0)
200a0974:	8082                	ret

200a0976 <GPIO_ResetBits>:
200a0976:	c94c                	sw	a1,20(a0)
200a0978:	8082                	ret

200a097a <GPIO_WriteBit>:
200a097a:	c219                	beqz	a2,200a0980 <GPIO_WriteBit+0x6>
200a097c:	c90c                	sw	a1,16(a0)
200a097e:	8082                	ret
200a0980:	c94c                	sw	a1,20(a0)
200a0982:	8082                	ret

200a0984 <GPIO_PinAFConfig>:
200a0984:	40011737          	lui	a4,0x40011
200a0988:	479d                	li	a5,7
200a098a:	80070693          	addi	a3,a4,-2048 # 40010800 <_eusrstack+0x1ff10800>
200a098e:	02b7f863          	bgeu	a5,a1,200a09be <GPIO_PinAFConfig+0x3a>
200a0992:	ff858793          	addi	a5,a1,-8
200a0996:	0ff7f793          	zext.b	a5,a5
200a099a:	06d51a63          	bne	a0,a3,200a0a0e <GPIO_PinAFConfig+0x8a>
200a099e:	400106b7          	lui	a3,0x40010
200a09a2:	468c                	lw	a1,8(a3)
200a09a4:	078a                	slli	a5,a5,0x2
200a09a6:	473d                	li	a4,15
200a09a8:	00f71733          	sll	a4,a4,a5
200a09ac:	40e5f733          	andn	a4,a1,a4
200a09b0:	c698                	sw	a4,8(a3)
200a09b2:	4698                	lw	a4,8(a3)
200a09b4:	00f617b3          	sll	a5,a2,a5
200a09b8:	8fd9                	or	a5,a5,a4
200a09ba:	c69c                	sw	a5,8(a3)
200a09bc:	8082                	ret
200a09be:	02d50863          	beq	a0,a3,200a09ee <GPIO_PinAFConfig+0x6a>
200a09c2:	c0070793          	addi	a5,a4,-1024
200a09c6:	08f50a63          	beq	a0,a5,200a0a5a <GPIO_PinAFConfig+0xd6>
200a09ca:	16e51c63          	bne	a0,a4,200a0b42 <GPIO_PinAFConfig+0x1be>
200a09ce:	40010737          	lui	a4,0x40010
200a09d2:	4b54                	lw	a3,20(a4)
200a09d4:	058a                	slli	a1,a1,0x2
200a09d6:	47bd                	li	a5,15
200a09d8:	00b797b3          	sll	a5,a5,a1
200a09dc:	40f6f7b3          	andn	a5,a3,a5
200a09e0:	cb5c                	sw	a5,20(a4)
200a09e2:	4b5c                	lw	a5,20(a4)
200a09e4:	00b615b3          	sll	a1,a2,a1
200a09e8:	8ddd                	or	a1,a1,a5
200a09ea:	cb4c                	sw	a1,20(a4)
200a09ec:	8082                	ret
200a09ee:	40010737          	lui	a4,0x40010
200a09f2:	4354                	lw	a3,4(a4)
200a09f4:	058a                	slli	a1,a1,0x2
200a09f6:	47bd                	li	a5,15
200a09f8:	00b797b3          	sll	a5,a5,a1
200a09fc:	40f6f7b3          	andn	a5,a3,a5
200a0a00:	c35c                	sw	a5,4(a4)
200a0a02:	435c                	lw	a5,4(a4)
200a0a04:	00b615b3          	sll	a1,a2,a1
200a0a08:	8ddd                	or	a1,a1,a5
200a0a0a:	c34c                	sw	a1,4(a4)
200a0a0c:	8082                	ret
200a0a0e:	c0070693          	addi	a3,a4,-1024 # 4000fc00 <_eusrstack+0x1ff0fc00>
200a0a12:	02d50463          	beq	a0,a3,200a0a3a <GPIO_PinAFConfig+0xb6>
200a0a16:	10e51263          	bne	a0,a4,200a0b1a <GPIO_PinAFConfig+0x196>
200a0a1a:	400106b7          	lui	a3,0x40010
200a0a1e:	4e8c                	lw	a1,24(a3)
200a0a20:	078a                	slli	a5,a5,0x2
200a0a22:	473d                	li	a4,15
200a0a24:	00f71733          	sll	a4,a4,a5
200a0a28:	40e5f733          	andn	a4,a1,a4
200a0a2c:	ce98                	sw	a4,24(a3)
200a0a2e:	4e98                	lw	a4,24(a3)
200a0a30:	00f617b3          	sll	a5,a2,a5
200a0a34:	8fd9                	or	a5,a5,a4
200a0a36:	ce9c                	sw	a5,24(a3)
200a0a38:	8082                	ret
200a0a3a:	400106b7          	lui	a3,0x40010
200a0a3e:	4a8c                	lw	a1,16(a3)
200a0a40:	078a                	slli	a5,a5,0x2
200a0a42:	473d                	li	a4,15
200a0a44:	00f71733          	sll	a4,a4,a5
200a0a48:	40e5f733          	andn	a4,a1,a4
200a0a4c:	ca98                	sw	a4,16(a3)
200a0a4e:	4a98                	lw	a4,16(a3)
200a0a50:	00f617b3          	sll	a5,a2,a5
200a0a54:	8fd9                	or	a5,a5,a4
200a0a56:	ca9c                	sw	a5,16(a3)
200a0a58:	8082                	ret
200a0a5a:	40010737          	lui	a4,0x40010
200a0a5e:	4754                	lw	a3,12(a4)
200a0a60:	058a                	slli	a1,a1,0x2
200a0a62:	47bd                	li	a5,15
200a0a64:	00b797b3          	sll	a5,a5,a1
200a0a68:	40f6f7b3          	andn	a5,a3,a5
200a0a6c:	c75c                	sw	a5,12(a4)
200a0a6e:	475c                	lw	a5,12(a4)
200a0a70:	00b615b3          	sll	a1,a2,a1
200a0a74:	8ddd                	or	a1,a1,a5
200a0a76:	c74c                	sw	a1,12(a4)
200a0a78:	8082                	ret
200a0a7a:	40012737          	lui	a4,0x40012
200a0a7e:	80070713          	addi	a4,a4,-2048 # 40011800 <_eusrstack+0x1ff11800>
200a0a82:	87ae                	mv	a5,a1
200a0a84:	04e51863          	bne	a0,a4,200a0ad4 <GPIO_PinAFConfig+0x150>
200a0a88:	40010737          	lui	a4,0x40010
200a0a8c:	5354                	lw	a3,36(a4)
200a0a8e:	058a                	slli	a1,a1,0x2
200a0a90:	47bd                	li	a5,15
200a0a92:	00b797b3          	sll	a5,a5,a1
200a0a96:	40f6f7b3          	andn	a5,a3,a5
200a0a9a:	d35c                	sw	a5,36(a4)
200a0a9c:	535c                	lw	a5,36(a4)
200a0a9e:	00b615b3          	sll	a1,a2,a1
200a0aa2:	8ddd                	or	a1,a1,a5
200a0aa4:	d34c                	sw	a1,36(a4)
200a0aa6:	8082                	ret
200a0aa8:	40012737          	lui	a4,0x40012
200a0aac:	80070713          	addi	a4,a4,-2048 # 40011800 <_eusrstack+0x1ff11800>
200a0ab0:	02e51263          	bne	a0,a4,200a0ad4 <GPIO_PinAFConfig+0x150>
200a0ab4:	400106b7          	lui	a3,0x40010
200a0ab8:	568c                	lw	a1,40(a3)
200a0aba:	078a                	slli	a5,a5,0x2
200a0abc:	473d                	li	a4,15
200a0abe:	00f71733          	sll	a4,a4,a5
200a0ac2:	40e5f733          	andn	a4,a1,a4
200a0ac6:	d698                	sw	a4,40(a3)
200a0ac8:	5698                	lw	a4,40(a3)
200a0aca:	00f617b3          	sll	a5,a2,a5
200a0ace:	8fd9                	or	a5,a5,a4
200a0ad0:	d69c                	sw	a5,40(a3)
200a0ad2:	8082                	ret
200a0ad4:	40012737          	lui	a4,0x40012
200a0ad8:	c0070713          	addi	a4,a4,-1024 # 40011c00 <_eusrstack+0x1ff11c00>
200a0adc:	08e51763          	bne	a0,a4,200a0b6a <GPIO_PinAFConfig+0x1e6>
200a0ae0:	078a                	slli	a5,a5,0x2
200a0ae2:	473d                	li	a4,15
200a0ae4:	00f71733          	sll	a4,a4,a5
200a0ae8:	00f61633          	sll	a2,a2,a5
200a0aec:	479d                	li	a5,7
200a0aee:	fff74713          	not	a4,a4
200a0af2:	00b7fb63          	bgeu	a5,a1,200a0b08 <GPIO_PinAFConfig+0x184>
200a0af6:	400107b7          	lui	a5,0x40010
200a0afa:	5b94                	lw	a3,48(a5)
200a0afc:	8f75                	and	a4,a4,a3
200a0afe:	db98                	sw	a4,48(a5)
200a0b00:	5b98                	lw	a4,48(a5)
200a0b02:	8f51                	or	a4,a4,a2
200a0b04:	db98                	sw	a4,48(a5)
200a0b06:	8082                	ret
200a0b08:	400107b7          	lui	a5,0x40010
200a0b0c:	57d4                	lw	a3,44(a5)
200a0b0e:	8f75                	and	a4,a4,a3
200a0b10:	d7d8                	sw	a4,44(a5)
200a0b12:	57d8                	lw	a4,44(a5)
200a0b14:	8f51                	or	a4,a4,a2
200a0b16:	d7d8                	sw	a4,44(a5)
200a0b18:	8082                	ret
200a0b1a:	40070713          	addi	a4,a4,1024
200a0b1e:	f8e515e3          	bne	a0,a4,200a0aa8 <GPIO_PinAFConfig+0x124>
200a0b22:	400106b7          	lui	a3,0x40010
200a0b26:	528c                	lw	a1,32(a3)
200a0b28:	078a                	slli	a5,a5,0x2
200a0b2a:	473d                	li	a4,15
200a0b2c:	00f71733          	sll	a4,a4,a5
200a0b30:	40e5f733          	andn	a4,a1,a4
200a0b34:	d298                	sw	a4,32(a3)
200a0b36:	5298                	lw	a4,32(a3)
200a0b38:	00f617b3          	sll	a5,a2,a5
200a0b3c:	8fd9                	or	a5,a5,a4
200a0b3e:	d29c                	sw	a5,32(a3)
200a0b40:	8082                	ret
200a0b42:	40070713          	addi	a4,a4,1024
200a0b46:	f2e51ae3          	bne	a0,a4,200a0a7a <GPIO_PinAFConfig+0xf6>
200a0b4a:	40010737          	lui	a4,0x40010
200a0b4e:	4f54                	lw	a3,28(a4)
200a0b50:	058a                	slli	a1,a1,0x2
200a0b52:	47bd                	li	a5,15
200a0b54:	00b797b3          	sll	a5,a5,a1
200a0b58:	40f6f7b3          	andn	a5,a3,a5
200a0b5c:	cf5c                	sw	a5,28(a4)
200a0b5e:	4f5c                	lw	a5,28(a4)
200a0b60:	00b615b3          	sll	a1,a2,a1
200a0b64:	8ddd                	or	a1,a1,a5
200a0b66:	cf4c                	sw	a1,28(a4)
200a0b68:	8082                	ret
200a0b6a:	8082                	ret

200a0b6c <HSEM_FastTake>:
200a0b6c:	e000c7b7          	lui	a5,0xe000c
200a0b70:	04050513          	addi	a0,a0,64
200a0b74:	e000f737          	lui	a4,0xe000f
200a0b78:	20f54533          	sh2add	a0,a0,a5
200a0b7c:	411c                	lw	a5,0(a0)
200a0b7e:	d1072503          	lw	a0,-752(a4) # e000ed10 <_eusrstack+0xbff0ed10>
200a0b82:	49055513          	bexti	a0,a0,0x10
200a0b86:	0522                	slli	a0,a0,0x8
200a0b88:	29f51513          	bseti	a0,a0,0x1f
200a0b8c:	8d1d                	sub	a0,a0,a5
200a0b8e:	00153513          	seqz	a0,a0
200a0b92:	8082                	ret

200a0b94 <HSEM_ReleaseOneSem>:
200a0b94:	e000f7b7          	lui	a5,0xe000f
200a0b98:	d107a783          	lw	a5,-752(a5) # e000ed10 <_eusrstack+0xbff0ed10>
200a0b9c:	0ff5f593          	zext.b	a1,a1
200a0ba0:	e000c737          	lui	a4,0xe000c
200a0ba4:	4907d793          	bexti	a5,a5,0x10
200a0ba8:	07a2                	slli	a5,a5,0x8
200a0baa:	8fcd                	or	a5,a5,a1
200a0bac:	20e54533          	sh2add	a0,a0,a4
200a0bb0:	c11c                	sw	a5,0(a0)
200a0bb2:	8082                	ret

200a0bb4 <RCC_GetClocksFreq>:
200a0bb4:	400217b7          	lui	a5,0x40021
200a0bb8:	43d4                	lw	a3,4(a5)
200a0bba:	4798                	lw	a4,8(a5)
200a0bbc:	4621                	li	a2,8
200a0bbe:	8ab1                	andi	a3,a3,12
200a0bc0:	02c69463          	bne	a3,a2,200a0be8 <RCC_GetClocksFreq+0x34>
200a0bc4:	700006b7          	lui	a3,0x70000
200a0bc8:	8f75                	and	a4,a4,a3
200a0bca:	50000637          	lui	a2,0x50000
200a0bce:	14c70e63          	beq	a4,a2,200a0d2a <RCC_GetClocksFreq+0x176>
200a0bd2:	02e66063          	bltu	a2,a4,200a0bf2 <RCC_GetClocksFreq+0x3e>
200a0bd6:	c71d                	beqz	a4,200a0c04 <RCC_GetClocksFreq+0x50>
200a0bd8:	1c9c47b7          	lui	a5,0x1c9c4
200a0bdc:	400006b7          	lui	a3,0x40000
200a0be0:	80078793          	addi	a5,a5,-2048 # 1c9c3800 <_data_lma+0x1c989658>
200a0be4:	06d70763          	beq	a4,a3,200a0c52 <RCC_GetClocksFreq+0x9e>
200a0be8:	017d87b7          	lui	a5,0x17d8
200a0bec:	84078793          	addi	a5,a5,-1984 # 17d7840 <_data_lma+0x179d698>
200a0bf0:	a08d                	j	200a0c52 <RCC_GetClocksFreq+0x9e>
200a0bf2:	60000637          	lui	a2,0x60000
200a0bf6:	10c70b63          	beq	a4,a2,200a0d0c <RCC_GetClocksFreq+0x158>
200a0bfa:	077367b7          	lui	a5,0x7736
200a0bfe:	94078793          	addi	a5,a5,-1728 # 7735940 <_data_lma+0x76fb798>
200a0c02:	b7cd                	j	200a0be4 <RCC_GetClocksFreq+0x30>
200a0c04:	4790                	lw	a2,8(a5)
200a0c06:	4794                	lw	a3,8(a5)
200a0c08:	4798                	lw	a4,8(a5)
200a0c0a:	0a000593          	li	a1,160
200a0c0e:	0e06f693          	andi	a3,a3,224
200a0c12:	8321                	srli	a4,a4,0x8
200a0c14:	03f77713          	andi	a4,a4,63
200a0c18:	8a7d                	andi	a2,a2,31
200a0c1a:	0705                	addi	a4,a4,1 # e000c001 <_eusrstack+0xbff0c001>
200a0c1c:	08b69d63          	bne	a3,a1,200a0cb6 <RCC_GetClocksFreq+0x102>
200a0c20:	1dcd67b7          	lui	a5,0x1dcd6
200a0c24:	50078793          	addi	a5,a5,1280 # 1dcd6500 <_data_lma+0x1dc9c358>
200a0c28:	02e7d733          	divu	a4,a5,a4
200a0c2c:	200c07b7          	lui	a5,0x200c0
200a0c30:	36078793          	addi	a5,a5,864 # 200c0360 <PLLMULTable>
200a0c34:	97b2                	add	a5,a5,a2
200a0c36:	239c                	lbu	a5,0(a5)
200a0c38:	4691                	li	a3,4
200a0c3a:	02e787b3          	mul	a5,a5,a4
200a0c3e:	00d60963          	beq	a2,a3,200a0c50 <RCC_GetClocksFreq+0x9c>
200a0c42:	6685                	lui	a3,0x1
200a0c44:	54068693          	addi	a3,a3,1344 # 1540 <__stack_size+0xd40>
200a0c48:	00c6d6b3          	srl	a3,a3,a2
200a0c4c:	8a85                	andi	a3,a3,1
200a0c4e:	c291                	beqz	a3,200a0c52 <RCC_GetClocksFreq+0x9e>
200a0c50:	8385                	srli	a5,a5,0x1
200a0c52:	c11c                	sw	a5,0(a0)
200a0c54:	40021637          	lui	a2,0x40021
200a0c58:	4254                	lw	a3,4(a2)
200a0c5a:	200c0737          	lui	a4,0x200c0
200a0c5e:	35070713          	addi	a4,a4,848 # 200c0350 <HBPrescTable>
200a0c62:	8291                	srli	a3,a3,0x4
200a0c64:	8abd                	andi	a3,a3,15
200a0c66:	9736                	add	a4,a4,a3
200a0c68:	2318                	lbu	a4,0(a4)
200a0c6a:	81418693          	addi	a3,gp,-2028 # 200c1c0c <FPRETable>
200a0c6e:	00e7d7b3          	srl	a5,a5,a4
200a0c72:	4258                	lw	a4,4(a2)
200a0c74:	6641                	lui	a2,0x10
200a0c76:	8341                	srli	a4,a4,0x10
200a0c78:	8b0d                	andi	a4,a4,3
200a0c7a:	9736                	add	a4,a4,a3
200a0c7c:	2318                	lbu	a4,0(a4)
200a0c7e:	e000f6b7          	lui	a3,0xe000f
200a0c82:	00e7d733          	srl	a4,a5,a4
200a0c86:	c158                	sw	a4,4(a0)
200a0c88:	d106a683          	lw	a3,-752(a3) # e000ed10 <_eusrstack+0xbff0ed10>
200a0c8c:	8ef1                	and	a3,a3,a2
200a0c8e:	e291                	bnez	a3,200a0c92 <RCC_GetClocksFreq+0xde>
200a0c90:	87ba                	mv	a5,a4
200a0c92:	c51c                	sw	a5,8(a0)
200a0c94:	40021637          	lui	a2,0x40021
200a0c98:	425c                	lw	a5,4(a2)
200a0c9a:	0807dd63          	bgez	a5,200a0d34 <RCC_GetClocksFreq+0x180>
200a0c9e:	425c                	lw	a5,4(a2)
200a0ca0:	1c9c4737          	lui	a4,0x1c9c4
200a0ca4:	80070713          	addi	a4,a4,-2048 # 1c9c3800 <_data_lma+0x1c989658>
200a0ca8:	83ad                	srli	a5,a5,0xb
200a0caa:	8bfd                	andi	a5,a5,31
200a0cac:	0795                	addi	a5,a5,5
200a0cae:	02f75733          	divu	a4,a4,a5
200a0cb2:	c558                	sw	a4,12(a0)
200a0cb4:	8082                	ret
200a0cb6:	0e000593          	li	a1,224
200a0cba:	02b69263          	bne	a3,a1,200a0cde <RCC_GetClocksFreq+0x12a>
200a0cbe:	5bd4                	lw	a3,52(a5)
200a0cc0:	200c07b7          	lui	a5,0x200c0
200a0cc4:	34078793          	addi	a5,a5,832 # 200c0340 <SERDESPLLMULTable>
200a0cc8:	82c1                	srli	a3,a3,0x10
200a0cca:	97b6                	add	a5,a5,a3
200a0ccc:	239c                	lbu	a5,0(a5)
200a0cce:	017d86b7          	lui	a3,0x17d8
200a0cd2:	84068693          	addi	a3,a3,-1984 # 17d7840 <_data_lma+0x179d698>
200a0cd6:	02d787b3          	mul	a5,a5,a3
200a0cda:	8385                	srli	a5,a5,0x1
200a0cdc:	b7b1                	j	200a0c28 <RCC_GetClocksFreq+0x74>
200a0cde:	08000793          	li	a5,128
200a0ce2:	00f69763          	bne	a3,a5,200a0cf0 <RCC_GetClocksFreq+0x13c>
200a0ce6:	1c9c47b7          	lui	a5,0x1c9c4
200a0cea:	80078793          	addi	a5,a5,-2048 # 1c9c3800 <_data_lma+0x1c989658>
200a0cee:	bf2d                	j	200a0c28 <RCC_GetClocksFreq+0x74>
200a0cf0:	0c000793          	li	a5,192
200a0cf4:	00f69763          	bne	a3,a5,200a0d02 <RCC_GetClocksFreq+0x14e>
200a0cf8:	077367b7          	lui	a5,0x7736
200a0cfc:	94078793          	addi	a5,a5,-1728 # 7735940 <_data_lma+0x76fb798>
200a0d00:	b725                	j	200a0c28 <RCC_GetClocksFreq+0x74>
200a0d02:	017d87b7          	lui	a5,0x17d8
200a0d06:	84078793          	addi	a5,a5,-1984 # 17d7840 <_data_lma+0x179d698>
200a0d0a:	bf39                	j	200a0c28 <RCC_GetClocksFreq+0x74>
200a0d0c:	5bd8                	lw	a4,52(a5)
200a0d0e:	200c07b7          	lui	a5,0x200c0
200a0d12:	34078793          	addi	a5,a5,832 # 200c0340 <SERDESPLLMULTable>
200a0d16:	8341                	srli	a4,a4,0x10
200a0d18:	97ba                	add	a5,a5,a4
200a0d1a:	239c                	lbu	a5,0(a5)
200a0d1c:	017d8737          	lui	a4,0x17d8
200a0d20:	84070713          	addi	a4,a4,-1984 # 17d7840 <_data_lma+0x179d698>
200a0d24:	02e787b3          	mul	a5,a5,a4
200a0d28:	b725                	j	200a0c50 <RCC_GetClocksFreq+0x9c>
200a0d2a:	1dcd67b7          	lui	a5,0x1dcd6
200a0d2e:	50078793          	addi	a5,a5,1280 # 1dcd6500 <_data_lma+0x1dc9c358>
200a0d32:	b705                	j	200a0c52 <RCC_GetClocksFreq+0x9e>
200a0d34:	4254                	lw	a3,4(a2)
200a0d36:	200c27b7          	lui	a5,0x200c2
200a0d3a:	c0478793          	addi	a5,a5,-1020 # 200c1c04 <PPRE2Table>
200a0d3e:	82ad                	srli	a3,a3,0xb
200a0d40:	8a9d                	andi	a3,a3,7
200a0d42:	97b6                	add	a5,a5,a3
200a0d44:	238c                	lbu	a1,0(a5)
200a0d46:	425c                	lw	a5,4(a2)
200a0d48:	200c26b7          	lui	a3,0x200c2
200a0d4c:	c0068693          	addi	a3,a3,-1024 # 200c1c00 <ADCPRETable>
200a0d50:	83b9                	srli	a5,a5,0xe
200a0d52:	8b8d                	andi	a5,a5,3
200a0d54:	97b6                	add	a5,a5,a3
200a0d56:	239c                	lbu	a5,0(a5)
200a0d58:	00b75733          	srl	a4,a4,a1
200a0d5c:	bf89                	j	200a0cae <RCC_GetClocksFreq+0xfa>

200a0d5e <RCC_HBPeriphClockCmd>:
200a0d5e:	c599                	beqz	a1,200a0d6c <RCC_HBPeriphClockCmd+0xe>
200a0d60:	40021737          	lui	a4,0x40021
200a0d64:	4f1c                	lw	a5,24(a4)
200a0d66:	8fc9                	or	a5,a5,a0
200a0d68:	cf1c                	sw	a5,24(a4)
200a0d6a:	8082                	ret
200a0d6c:	400217b7          	lui	a5,0x40021
200a0d70:	4f98                	lw	a4,24(a5)
200a0d72:	40a77533          	andn	a0,a4,a0
200a0d76:	cf88                	sw	a0,24(a5)
200a0d78:	8082                	ret

200a0d7a <RCC_HB2PeriphClockCmd>:
200a0d7a:	c599                	beqz	a1,200a0d88 <RCC_HB2PeriphClockCmd+0xe>
200a0d7c:	40021737          	lui	a4,0x40021
200a0d80:	4f5c                	lw	a5,28(a4)
200a0d82:	8fc9                	or	a5,a5,a0
200a0d84:	cf5c                	sw	a5,28(a4)
200a0d86:	8082                	ret
200a0d88:	400217b7          	lui	a5,0x40021
200a0d8c:	4fd8                	lw	a4,28(a5)
200a0d8e:	40a77533          	andn	a0,a4,a0
200a0d92:	cfc8                	sw	a0,28(a5)
200a0d94:	8082                	ret

200a0d96 <RCC_HB1PeriphClockCmd>:
200a0d96:	c599                	beqz	a1,200a0da4 <RCC_HB1PeriphClockCmd+0xe>
200a0d98:	40021737          	lui	a4,0x40021
200a0d9c:	531c                	lw	a5,32(a4)
200a0d9e:	8fc9                	or	a5,a5,a0
200a0da0:	d31c                	sw	a5,32(a4)
200a0da2:	8082                	ret
200a0da4:	400217b7          	lui	a5,0x40021
200a0da8:	5398                	lw	a4,32(a5)
200a0daa:	40a77533          	andn	a0,a4,a0
200a0dae:	d388                	sw	a0,32(a5)
200a0db0:	8082                	ret

200a0db2 <RCC_USBHS_PLLCmd>:
200a0db2:	40021737          	lui	a4,0x40021
200a0db6:	431c                	lw	a5,0(a4)
200a0db8:	c509                	beqz	a0,200a0dc2 <RCC_USBHS_PLLCmd+0x10>
200a0dba:	29479793          	bseti	a5,a5,0x14
200a0dbe:	c31c                	sw	a5,0(a4)
200a0dc0:	8082                	ret
200a0dc2:	49479793          	bclri	a5,a5,0x14
200a0dc6:	bfe5                	j	200a0dbe <RCC_USBHS_PLLCmd+0xc>

200a0dc8 <RCC_USBSS_PLLCmd>:
200a0dc8:	40021737          	lui	a4,0x40021
200a0dcc:	431c                	lw	a5,0(a4)
200a0dce:	c509                	beqz	a0,200a0dd8 <RCC_USBSS_PLLCmd+0x10>
200a0dd0:	29679793          	bseti	a5,a5,0x16
200a0dd4:	c31c                	sw	a5,0(a4)
200a0dd6:	8082                	ret
200a0dd8:	49679793          	bclri	a5,a5,0x16
200a0ddc:	bfe5                	j	200a0dd4 <RCC_USBSS_PLLCmd+0xc>

200a0dde <RCC_PIPECmd>:
200a0dde:	40021737          	lui	a4,0x40021
200a0de2:	435c                	lw	a5,4(a4)
200a0de4:	c509                	beqz	a0,200a0dee <RCC_PIPECmd+0x10>
200a0de6:	29679793          	bseti	a5,a5,0x16
200a0dea:	c35c                	sw	a5,4(a4)
200a0dec:	8082                	ret
200a0dee:	49679793          	bclri	a5,a5,0x16
200a0df2:	bfe5                	j	200a0dea <RCC_PIPECmd+0xc>

200a0df4 <RCC_UTMIcmd>:
200a0df4:	40021737          	lui	a4,0x40021
200a0df8:	435c                	lw	a5,4(a4)
200a0dfa:	c509                	beqz	a0,200a0e04 <RCC_UTMIcmd+0x10>
200a0dfc:	29779793          	bseti	a5,a5,0x17
200a0e00:	c35c                	sw	a5,4(a4)
200a0e02:	8082                	ret
200a0e04:	49779793          	bclri	a5,a5,0x17
200a0e08:	bfe5                	j	200a0e00 <RCC_UTMIcmd+0xc>

200a0e0a <RCC_USBHSPLLCLKConfig>:
200a0e0a:	400217b7          	lui	a5,0x40021
200a0e0e:	5bd8                	lw	a4,52(a5)
200a0e10:	9b71                	andi	a4,a4,-4
200a0e12:	dbd8                	sw	a4,52(a5)
200a0e14:	5bd8                	lw	a4,52(a5)
200a0e16:	8f49                	or	a4,a4,a0
200a0e18:	dbd8                	sw	a4,52(a5)
200a0e1a:	8082                	ret

200a0e1c <RCC_USBHSPLLReferConfig>:
200a0e1c:	400217b7          	lui	a5,0x40021
200a0e20:	5bd8                	lw	a4,52(a5)
200a0e22:	9b4d                	andi	a4,a4,-13
200a0e24:	dbd8                	sw	a4,52(a5)
200a0e26:	5bd8                	lw	a4,52(a5)
200a0e28:	8f49                	or	a4,a4,a0
200a0e2a:	dbd8                	sw	a4,52(a5)
200a0e2c:	8082                	ret

200a0e2e <RCC_USBHSPLLClockSourceDivConfig>:
200a0e2e:	400217b7          	lui	a5,0x40021
200a0e32:	5bd8                	lw	a4,52(a5)
200a0e34:	76f9                	lui	a3,0xffffe
200a0e36:	0ff68693          	addi	a3,a3,255 # ffffe0ff <_eusrstack+0xdfefe0ff>
200a0e3a:	8f75                	and	a4,a4,a3
200a0e3c:	dbd8                	sw	a4,52(a5)
200a0e3e:	5bd8                	lw	a4,52(a5)
200a0e40:	8f49                	or	a4,a4,a0
200a0e42:	dbd8                	sw	a4,52(a5)
200a0e44:	8082                	ret

200a0e46 <TIM_GetITStatus>:
200a0e46:	291e                	lhu	a5,16(a0)
200a0e48:	254a                	lhu	a0,12(a0)
200a0e4a:	8fed                	and	a5,a5,a1
200a0e4c:	08054533          	zext.h	a0,a0
200a0e50:	c789                	beqz	a5,200a0e5a <TIM_GetITStatus+0x14>
200a0e52:	8d6d                	and	a0,a0,a1
200a0e54:	00a03533          	snez	a0,a0
200a0e58:	8082                	ret
200a0e5a:	4501                	li	a0,0
200a0e5c:	8082                	ret

200a0e5e <TIM_ClearITPendingBit>:
200a0e5e:	fff5c593          	not	a1,a1
200a0e62:	0805c5b3          	zext.h	a1,a1
200a0e66:	a90e                	sh	a1,16(a0)
200a0e68:	8082                	ret

200a0e6a <USART_Init>:
200a0e6a:	c1aff2ef          	jal	t0,200a0284 <__riscv_save_0>
200a0e6e:	291a                	lhu	a4,16(a0)
200a0e70:	77f5                	lui	a5,0xffffd
200a0e72:	17fd                	addi	a5,a5,-1 # ffffcfff <_eusrstack+0xdfefcfff>
200a0e74:	8f7d                	and	a4,a4,a5
200a0e76:	21fe                	lhu	a5,6(a1)
200a0e78:	2596                	lhu	a3,8(a1)
200a0e7a:	1141                	addi	sp,sp,-16
200a0e7c:	8fd9                	or	a5,a5,a4
200a0e7e:	a91e                	sh	a5,16(a0)
200a0e80:	21de                	lhu	a5,4(a1)
200a0e82:	255a                	lhu	a4,12(a0)
200a0e84:	842a                	mv	s0,a0
200a0e86:	8fd5                	or	a5,a5,a3
200a0e88:	25b6                	lhu	a3,10(a1)
200a0e8a:	84ae                	mv	s1,a1
200a0e8c:	8fd5                	or	a5,a5,a3
200a0e8e:	668d                	lui	a3,0x3
200a0e90:	9f368693          	addi	a3,a3,-1549 # 29f3 <__stack_size+0x21f3>
200a0e94:	8f75                	and	a4,a4,a3
200a0e96:	8fd9                	or	a5,a5,a4
200a0e98:	a55e                	sh	a5,12(a0)
200a0e9a:	295e                	lhu	a5,20(a0)
200a0e9c:	25da                	lhu	a4,12(a1)
200a0e9e:	0807c7b3          	zext.h	a5,a5
200a0ea2:	cff7f793          	andi	a5,a5,-769
200a0ea6:	8fd9                	or	a5,a5,a4
200a0ea8:	a95e                	sh	a5,20(a0)
200a0eaa:	850a                	mv	a0,sp
200a0eac:	3321                	jal	200a0bb4 <RCC_GetClocksFreq>
200a0eae:	4792                	lw	a5,4(sp)
200a0eb0:	4565                	li	a0,25
200a0eb2:	4090                	lw	a2,0(s1)
200a0eb4:	02f535b3          	mulhu	a1,a0,a5
200a0eb8:	4681                	li	a3,0
200a0eba:	060a                	slli	a2,a2,0x2
200a0ebc:	02f50533          	mul	a0,a0,a5
200a0ec0:	209020ef          	jal	ra,200a38c8 <__udivdi3>
200a0ec4:	06400693          	li	a3,100
200a0ec8:	02d557b3          	divu	a5,a0,a3
200a0ecc:	63f00613          	li	a2,1599
200a0ed0:	00479713          	slli	a4,a5,0x4
200a0ed4:	02d577b3          	remu	a5,a0,a3
200a0ed8:	0792                	slli	a5,a5,0x4
200a0eda:	03278793          	addi	a5,a5,50
200a0ede:	00f67a63          	bgeu	a2,a5,200a0ef2 <USART_Init+0x88>
200a0ee2:	01070793          	addi	a5,a4,16 # 40021010 <_eusrstack+0x1ff21010>
200a0ee6:	0807c7b3          	zext.h	a5,a5
200a0eea:	a41e                	sh	a5,8(s0)
200a0eec:	0141                	addi	sp,sp,16
200a0eee:	bbaff06f          	j	200a02a8 <__riscv_restore_0>
200a0ef2:	02d7d7b3          	divu	a5,a5,a3
200a0ef6:	8fd9                	or	a5,a5,a4
200a0ef8:	b7fd                	j	200a0ee6 <USART_Init+0x7c>

200a0efa <USART_Cmd>:
200a0efa:	255e                	lhu	a5,12(a0)
200a0efc:	c589                	beqz	a1,200a0f06 <USART_Cmd+0xc>
200a0efe:	28d79793          	bseti	a5,a5,0xd
200a0f02:	a55e                	sh	a5,12(a0)
200a0f04:	8082                	ret
200a0f06:	7779                	lui	a4,0xffffe
200a0f08:	177d                	addi	a4,a4,-1 # ffffdfff <_eusrstack+0xdfefdfff>
200a0f0a:	8ff9                	and	a5,a5,a4
200a0f0c:	bfdd                	j	200a0f02 <USART_Cmd+0x8>

200a0f0e <USART_SendData>:
200a0f0e:	1ff5f593          	andi	a1,a1,511
200a0f12:	a14e                	sh	a1,4(a0)
200a0f14:	8082                	ret

200a0f16 <USART_GetFlagStatus>:
200a0f16:	210a                	lhu	a0,0(a0)
200a0f18:	8d6d                	and	a0,a0,a1
200a0f1a:	00a03533          	snez	a0,a0
200a0f1e:	8082                	ret

200a0f20 <Delay_Init>:
200a0f20:	200d67b7          	lui	a5,0x200d6
200a0f24:	cb07a783          	lw	a5,-848(a5) # 200d5cb0 <HCLKClock>
200a0f28:	000f4737          	lui	a4,0xf4
200a0f2c:	24070713          	addi	a4,a4,576 # f4240 <_data_lma+0xba098>
200a0f30:	02e7d7b3          	divu	a5,a5,a4
200a0f34:	200d6737          	lui	a4,0x200d6
200a0f38:	caf71c23          	sh	a5,-840(a4) # 200d5cb8 <p_us>
200a0f3c:	3e800713          	li	a4,1000
200a0f40:	02e787b3          	mul	a5,a5,a4
200a0f44:	200d6737          	lui	a4,0x200d6
200a0f48:	caf72a23          	sw	a5,-844(a4) # 200d5cb4 <p_ms>
200a0f4c:	8082                	ret

200a0f4e <Delay_Us>:
200a0f4e:	e000f7b7          	lui	a5,0xe000f
200a0f52:	43d8                	lw	a4,4(a5)
200a0f54:	9b75                	andi	a4,a4,-3
200a0f56:	c3d8                	sw	a4,4(a5)
200a0f58:	200d6737          	lui	a4,0x200d6
200a0f5c:	cb875703          	lhu	a4,-840(a4) # 200d5cb8 <p_us>
200a0f60:	08078793          	addi	a5,a5,128 # e000f080 <_eusrstack+0xbff0f080>
200a0f64:	0007a423          	sw	zero,8(a5)
200a0f68:	02a70733          	mul	a4,a4,a0
200a0f6c:	cb98                	sw	a4,16(a5)
200a0f6e:	4711                	li	a4,4
200a0f70:	c398                	sw	a4,0(a5)
200a0f72:	4398                	lw	a4,0(a5)
200a0f74:	00176713          	ori	a4,a4,1
200a0f78:	c398                	sw	a4,0(a5)
200a0f7a:	e000f7b7          	lui	a5,0xe000f
200a0f7e:	43d8                	lw	a4,4(a5)
200a0f80:	8b09                	andi	a4,a4,2
200a0f82:	df75                	beqz	a4,200a0f7e <Delay_Us+0x30>
200a0f84:	08078793          	addi	a5,a5,128 # e000f080 <_eusrstack+0xbff0f080>
200a0f88:	4398                	lw	a4,0(a5)
200a0f8a:	9b79                	andi	a4,a4,-2
200a0f8c:	c398                	sw	a4,0(a5)
200a0f8e:	8082                	ret

200a0f90 <Delay_Ms>:
200a0f90:	e000f7b7          	lui	a5,0xe000f
200a0f94:	43d8                	lw	a4,4(a5)
200a0f96:	9b75                	andi	a4,a4,-3
200a0f98:	c3d8                	sw	a4,4(a5)
200a0f9a:	200d6737          	lui	a4,0x200d6
200a0f9e:	cb472703          	lw	a4,-844(a4) # 200d5cb4 <p_ms>
200a0fa2:	08078793          	addi	a5,a5,128 # e000f080 <_eusrstack+0xbff0f080>
200a0fa6:	0007a423          	sw	zero,8(a5)
200a0faa:	02e50533          	mul	a0,a0,a4
200a0fae:	4711                	li	a4,4
200a0fb0:	cb88                	sw	a0,16(a5)
200a0fb2:	c398                	sw	a4,0(a5)
200a0fb4:	4398                	lw	a4,0(a5)
200a0fb6:	00176713          	ori	a4,a4,1
200a0fba:	c398                	sw	a4,0(a5)
200a0fbc:	e000f7b7          	lui	a5,0xe000f
200a0fc0:	43d8                	lw	a4,4(a5)
200a0fc2:	8b09                	andi	a4,a4,2
200a0fc4:	df75                	beqz	a4,200a0fc0 <Delay_Ms+0x30>
200a0fc6:	08078793          	addi	a5,a5,128 # e000f080 <_eusrstack+0xbff0f080>
200a0fca:	4398                	lw	a4,0(a5)
200a0fcc:	9b79                	andi	a4,a4,-2
200a0fce:	c398                	sw	a4,0(a5)
200a0fd0:	8082                	ret

200a0fd2 <USART_Printf_Init>:
200a0fd2:	ab2ff2ef          	jal	t0,200a0284 <__riscv_save_0>
200a0fd6:	1101                	addi	sp,sp,-32
200a0fd8:	842a                	mv	s0,a0
200a0fda:	4585                	li	a1,1
200a0fdc:	4525                	li	a0,9
200a0fde:	c202                	sw	zero,4(sp)
200a0fe0:	c402                	sw	zero,8(sp)
200a0fe2:	c602                	sw	zero,12(sp)
200a0fe4:	c802                	sw	zero,16(sp)
200a0fe6:	ca02                	sw	zero,20(sp)
200a0fe8:	cc02                	sw	zero,24(sp)
200a0fea:	ce02                	sw	zero,28(sp)
200a0fec:	3379                	jal	200a0d7a <RCC_HB2PeriphClockCmd>
200a0fee:	4585                	li	a1,1
200a0ff0:	10000513          	li	a0,256
200a0ff4:	334d                	jal	200a0d96 <RCC_HB1PeriphClockCmd>
200a0ff6:	400114b7          	lui	s1,0x40011
200a0ffa:	462d                	li	a2,11
200a0ffc:	c0048513          	addi	a0,s1,-1024 # 40010c00 <_eusrstack+0x1ff10c00>
200a1000:	4591                	li	a1,4
200a1002:	983ff0ef          	jal	ra,200a0984 <GPIO_PinAFConfig>
200a1006:	47c1                	li	a5,16
200a1008:	827c                	sh	a5,4(sp)
200a100a:	478d                	li	a5,3
200a100c:	c43e                	sw	a5,8(sp)
200a100e:	004c                	addi	a1,sp,4
200a1010:	47e1                	li	a5,24
200a1012:	c0048513          	addi	a0,s1,-1024
200a1016:	c63e                	sw	a5,12(sp)
200a1018:	87bff0ef          	jal	ra,200a0892 <GPIO_Init>
200a101c:	000807b7          	lui	a5,0x80
200a1020:	080c                	addi	a1,sp,16
200a1022:	40002537          	lui	a0,0x40002
200a1026:	cc3e                	sw	a5,24(sp)
200a1028:	c822                	sw	s0,16(sp)
200a102a:	ca02                	sw	zero,20(sp)
200a102c:	00011e23          	sh	zero,28(sp)
200a1030:	3d2d                	jal	200a0e6a <USART_Init>
200a1032:	4585                	li	a1,1
200a1034:	40002537          	lui	a0,0x40002
200a1038:	35c9                	jal	200a0efa <USART_Cmd>
200a103a:	6105                	addi	sp,sp,32
200a103c:	a6cff06f          	j	200a02a8 <__riscv_restore_0>

200a1040 <_write>:
200a1040:	a44ff2ef          	jal	t0,200a0284 <__riscv_save_0>
200a1044:	892e                	mv	s2,a1
200a1046:	8432                	mv	s0,a2
200a1048:	4481                	li	s1,0
200a104a:	0084c563          	blt	s1,s0,200a1054 <_write+0x14>
200a104e:	8522                	mv	a0,s0
200a1050:	a58ff06f          	j	200a02a8 <__riscv_restore_0>
200a1054:	04000593          	li	a1,64
200a1058:	40002537          	lui	a0,0x40002
200a105c:	3d6d                	jal	200a0f16 <USART_GetFlagStatus>
200a105e:	d97d                	beqz	a0,200a1054 <_write+0x14>
200a1060:	009907b3          	add	a5,s2,s1
200a1064:	00078583          	lb	a1,0(a5) # 80000 <_data_lma+0x45e58>
200a1068:	40002537          	lui	a0,0x40002
200a106c:	0485                	addi	s1,s1,1
200a106e:	0805c5b3          	zext.h	a1,a1
200a1072:	3d71                	jal	200a0f0e <USART_SendData>
200a1074:	bfd9                	j	200a104a <_write+0xa>

200a1076 <_sbrk>:
200a1076:	87aa                	mv	a5,a0
200a1078:	8181a503          	lw	a0,-2024(gp) # 200c1c10 <curbrk.0>
200a107c:	200e8737          	lui	a4,0x200e8
200a1080:	1ac70713          	addi	a4,a4,428 # 200e81ac <_ebss>
200a1084:	97aa                	add	a5,a5,a0
200a1086:	00e7eb63          	bltu	a5,a4,200a109c <_sbrk+0x26>
200a108a:	20100737          	lui	a4,0x20100
200a108e:	80070713          	addi	a4,a4,-2048 # 200ff800 <_heap_end>
200a1092:	00f76563          	bltu	a4,a5,200a109c <_sbrk+0x26>
200a1096:	80f1ac23          	sw	a5,-2024(gp) # 200c1c10 <curbrk.0>
200a109a:	8082                	ret
200a109c:	557d                	li	a0,-1
200a109e:	8082                	ret

200a10a0 <SS_CtrlCamera>:
200a10a0:	9e4ff2ef          	jal	t0,200a0284 <__riscv_save_0>
200a10a4:	200d67b7          	lui	a5,0x200d6
200a10a8:	4405                	li	s0,1
200a10aa:	ce87a623          	sw	s0,-788(a5) # 200d5cec <Dvp_Class>
200a10ae:	200d67b7          	lui	a5,0x200d6
200a10b2:	d1a7d783          	lhu	a5,-742(a5) # 200d5d1a <USBSS_SetupReqValue>
200a10b6:	200d66b7          	lui	a3,0x200d6
200a10ba:	0ff7f793          	zext.b	a5,a5
200a10be:	c3ed                	beqz	a5,200a11a0 <SS_CtrlCamera+0x100>
200a10c0:	200d65b7          	lui	a1,0x200d6
200a10c4:	670d                	lui	a4,0x3
200a10c6:	d3c58793          	addi	a5,a1,-708 # 200d5d3c <UVC>
200a10ca:	6e570713          	addi	a4,a4,1765 # 36e5 <__stack_size+0x2ee5>
200a10ce:	a3fa                	sh	a4,6(a5)
200a10d0:	a782                	sh	s0,8(a5)
200a10d2:	e000f737          	lui	a4,0xe000f
200a10d6:	4718                	lw	a4,8(a4)
200a10d8:	44c1                	li	s1,16
200a10da:	cc86ae23          	sw	s0,-804(a3) # 200d5cdc <UVC_DvpStart>
200a10de:	a3ba                	sh	a4,2(a5)
200a10e0:	8341                	srli	a4,a4,0x10
200a10e2:	a3da                	sh	a4,4(a5)
200a10e4:	4dd00713          	li	a4,1245
200a10e8:	a7ba                	sh	a4,10(a5)
200a10ea:	cb84                	sw	s1,16(a5)
200a10ec:	0007a623          	sw	zero,12(a5)
200a10f0:	200d67b7          	lui	a5,0x200d6
200a10f4:	ce07a423          	sw	zero,-792(a5) # 200d5ce8 <Dvp_Addrcount>
200a10f8:	200d67b7          	lui	a5,0x200d6
200a10fc:	ce07a223          	sw	zero,-796(a5) # 200d5ce4 <Dvp_Start>
200a1100:	200d67b7          	lui	a5,0x200d6
200a1104:	ce07a023          	sw	zero,-800(a5) # 200d5ce0 <Dvp_End>
200a1108:	200d67b7          	lui	a5,0x200d6
200a110c:	cc07ac23          	sw	zero,-808(a5) # 200d5cd8 <Dvp_Reclength>
200a1110:	200d67b7          	lui	a5,0x200d6
200a1114:	cc07aa23          	sw	zero,-812(a5) # 200d5cd4 <DVP_Recaddpoint>
200a1118:	200d67b7          	lui	a5,0x200d6
200a111c:	cc078823          	sb	zero,-816(a5) # 200d5cd0 <USB_Uploadflg>
200a1120:	200d67b7          	lui	a5,0x200d6
200a1124:	cc07a623          	sw	zero,-820(a5) # 200d5ccc <USB_MframeUploadLength>
200a1128:	200d67b7          	lui	a5,0x200d6
200a112c:	cc07a223          	sw	zero,-828(a5) # 200d5cc4 <USB_Uploadcount>
200a1130:	7765                	lui	a4,0xffff9
200a1132:	200d67b7          	lui	a5,0x200d6
200a1136:	c1070713          	addi	a4,a4,-1008 # ffff8c10 <_eusrstack+0xdfef8c10>
200a113a:	cc07a023          	sw	zero,-832(a5) # 200d5cc0 <USB_Uploadpoint>
200a113e:	200c27b7          	lui	a5,0x200c2
200a1142:	d2e59e23          	sh	a4,-708(a1)
200a1146:	cc078793          	addi	a5,a5,-832 # 200c1cc0 <UVC_DMABuffer+0x20>
200a114a:	82f1a223          	sw	a5,-2012(gp) # 200c1c1c <Dvp_Recaddr>
200a114e:	200e0537          	lui	a0,0x200e0
200a1152:	200c27b7          	lui	a5,0x200c2
200a1156:	cb078793          	addi	a5,a5,-848 # 200c1cb0 <UVC_DMABuffer+0x10>
200a115a:	fac50913          	addi	s2,a0,-84 # 200dffac <USBSS_EP1_Tx_Buf>
200a115e:	4641                	li	a2,16
200a1160:	d3c58593          	addi	a1,a1,-708
200a1164:	fac50513          	addi	a0,a0,-84
200a1168:	82f1a023          	sw	a5,-2016(gp) # 200c1c18 <USBUploadaddr>
200a116c:	948ff0ef          	jal	ra,200a02b4 <memcpy>
200a1170:	400347b7          	lui	a5,0x40034
200a1174:	0d27a623          	sw	s2,204(a5) # 400340cc <_eusrstack+0x1ff340cc>
200a1178:	0c979323          	sh	s1,198(a5)
200a117c:	0c878423          	sb	s0,200(a5)
200a1180:	40026737          	lui	a4,0x40026
200a1184:	80074783          	lbu	a5,-2048(a4) # 40025800 <_eusrstack+0x1ff25800>
200a1188:	0017e793          	ori	a5,a5,1
200a118c:	80f70023          	sb	a5,-2048(a4)
200a1190:	e000e7b7          	lui	a5,0xe000e
200a1194:	01000737          	lui	a4,0x1000
200a1198:	10e7a623          	sw	a4,268(a5) # e000e10c <_eusrstack+0xbff0e10c>
200a119c:	90cff06f          	j	200a02a8 <__riscv_restore_0>
200a11a0:	cc06ae23          	sw	zero,-804(a3)
200a11a4:	40026737          	lui	a4,0x40026
200a11a8:	80074683          	lbu	a3,-2048(a4) # 40025800 <_eusrstack+0x1ff25800>
200a11ac:	80070793          	addi	a5,a4,-2048
200a11b0:	0fe6f693          	andi	a3,a3,254
200a11b4:	80d70023          	sb	a3,-2048(a4)
200a11b8:	e000e737          	lui	a4,0xe000e
200a11bc:	010006b7          	lui	a3,0x1000
200a11c0:	18d72623          	sw	a3,396(a4) # e000e18c <_eusrstack+0xbff0e18c>
200a11c4:	0000100f          	fence.i
200a11c8:	3398                	lbu	a4,1(a5)
200a11ca:	00676713          	ori	a4,a4,6
200a11ce:	b398                	sb	a4,1(a5)
200a11d0:	3398                	lbu	a4,1(a5)
200a11d2:	0f977713          	andi	a4,a4,249
200a11d6:	b398                	sb	a4,1(a5)
200a11d8:	b7d1                	j	200a119c <SS_CtrlCamera+0xfc>

200a11da <HS_CtrlCamera>:
200a11da:	200d67b7          	lui	a5,0x200d6
200a11de:	4605                	li	a2,1
200a11e0:	cec7a623          	sw	a2,-788(a5) # 200d5cec <Dvp_Class>
200a11e4:	200d67b7          	lui	a5,0x200d6
200a11e8:	cfe7d783          	lhu	a5,-770(a5) # 200d5cfe <USBHS_SetupReqValue>
200a11ec:	200d66b7          	lui	a3,0x200d6
200a11f0:	0ff7f793          	zext.b	a5,a5
200a11f4:	0e078f63          	beqz	a5,200a12f2 <HS_CtrlCamera+0x118>
200a11f8:	88cff2ef          	jal	t0,200a0284 <__riscv_save_0>
200a11fc:	e000f737          	lui	a4,0xe000f
200a1200:	57fd                	li	a5,-1
200a1202:	cb1c                	sw	a5,16(a4)
200a1204:	200d65b7          	lui	a1,0x200d6
200a1208:	47b5                	li	a5,13
200a120a:	c31c                	sw	a5,0(a4)
200a120c:	d3c58793          	addi	a5,a1,-708 # 200d5d3c <UVC>
200a1210:	00079323          	sh	zero,6(a5)
200a1214:	00079423          	sh	zero,8(a5)
200a1218:	4718                	lw	a4,8(a4)
200a121a:	4441                	li	s0,16
200a121c:	ccc6ae23          	sw	a2,-804(a3) # 200d5cdc <UVC_DvpStart>
200a1220:	a3ba                	sh	a4,2(a5)
200a1222:	8341                	srli	a4,a4,0x10
200a1224:	a3da                	sh	a4,4(a5)
200a1226:	cb80                	sw	s0,16(a5)
200a1228:	00079523          	sh	zero,10(a5)
200a122c:	0007a623          	sw	zero,12(a5)
200a1230:	200d67b7          	lui	a5,0x200d6
200a1234:	ce07a423          	sw	zero,-792(a5) # 200d5ce8 <Dvp_Addrcount>
200a1238:	200d67b7          	lui	a5,0x200d6
200a123c:	ce07a223          	sw	zero,-796(a5) # 200d5ce4 <Dvp_Start>
200a1240:	200d67b7          	lui	a5,0x200d6
200a1244:	ce07a023          	sw	zero,-800(a5) # 200d5ce0 <Dvp_End>
200a1248:	200d67b7          	lui	a5,0x200d6
200a124c:	cc07ac23          	sw	zero,-808(a5) # 200d5cd8 <Dvp_Reclength>
200a1250:	200d67b7          	lui	a5,0x200d6
200a1254:	cc07aa23          	sw	zero,-812(a5) # 200d5cd4 <DVP_Recaddpoint>
200a1258:	200d67b7          	lui	a5,0x200d6
200a125c:	cc078823          	sb	zero,-816(a5) # 200d5cd0 <USB_Uploadflg>
200a1260:	200d67b7          	lui	a5,0x200d6
200a1264:	cc07a623          	sw	zero,-820(a5) # 200d5ccc <USB_MframeUploadLength>
200a1268:	200d67b7          	lui	a5,0x200d6
200a126c:	cc07a423          	sw	zero,-824(a5) # 200d5cc8 <USB_LastMframeUploadLength>
200a1270:	200d67b7          	lui	a5,0x200d6
200a1274:	cc07a223          	sw	zero,-828(a5) # 200d5cc4 <USB_Uploadcount>
200a1278:	7765                	lui	a4,0xffff9
200a127a:	200d67b7          	lui	a5,0x200d6
200a127e:	c1070713          	addi	a4,a4,-1008 # ffff8c10 <_eusrstack+0xdfef8c10>
200a1282:	cc07a023          	sw	zero,-832(a5) # 200d5cc0 <USB_Uploadpoint>
200a1286:	200c27b7          	lui	a5,0x200c2
200a128a:	d2e59e23          	sh	a4,-708(a1)
200a128e:	cc078793          	addi	a5,a5,-832 # 200c1cc0 <UVC_DMABuffer+0x20>
200a1292:	82f1a223          	sw	a5,-2012(gp) # 200c1c1c <Dvp_Recaddr>
200a1296:	200d8537          	lui	a0,0x200d8
200a129a:	200c27b7          	lui	a5,0x200c2
200a129e:	cb078793          	addi	a5,a5,-848 # 200c1cb0 <UVC_DMABuffer+0x10>
200a12a2:	d5050493          	addi	s1,a0,-688 # 200d7d50 <USBHS_EP1_Tx_Buf>
200a12a6:	4641                	li	a2,16
200a12a8:	d3c58593          	addi	a1,a1,-708
200a12ac:	d5050513          	addi	a0,a0,-688
200a12b0:	82f1a023          	sw	a5,-2016(gp) # 200c1c18 <USBUploadaddr>
200a12b4:	800ff0ef          	jal	ra,200a02b4 <memcpy>
200a12b8:	40030737          	lui	a4,0x40030
200a12bc:	c324                	sw	s1,64(a4)
200a12be:	0a871023          	sh	s0,160(a4) # 400300a0 <_eusrstack+0x1ff300a0>
200a12c2:	0a274783          	lbu	a5,162(a4)
200a12c6:	0fc7f793          	andi	a5,a5,252
200a12ca:	0027e793          	ori	a5,a5,2
200a12ce:	0af70123          	sb	a5,162(a4)
200a12d2:	40026737          	lui	a4,0x40026
200a12d6:	80074783          	lbu	a5,-2048(a4) # 40025800 <_eusrstack+0x1ff25800>
200a12da:	0017e793          	ori	a5,a5,1
200a12de:	80f70023          	sb	a5,-2048(a4)
200a12e2:	e000e7b7          	lui	a5,0xe000e
200a12e6:	01000737          	lui	a4,0x1000
200a12ea:	10e7a623          	sw	a4,268(a5) # e000e10c <_eusrstack+0xbff0e10c>
200a12ee:	fbbfe06f          	j	200a02a8 <__riscv_restore_0>
200a12f2:	cc06ae23          	sw	zero,-804(a3)
200a12f6:	e000f7b7          	lui	a5,0xe000f
200a12fa:	0007a023          	sw	zero,0(a5) # e000f000 <_eusrstack+0xbff0f000>
200a12fe:	40026737          	lui	a4,0x40026
200a1302:	80074683          	lbu	a3,-2048(a4) # 40025800 <_eusrstack+0x1ff25800>
200a1306:	80070793          	addi	a5,a4,-2048
200a130a:	0fe6f693          	andi	a3,a3,254
200a130e:	80d70023          	sb	a3,-2048(a4)
200a1312:	e000e737          	lui	a4,0xe000e
200a1316:	010006b7          	lui	a3,0x1000
200a131a:	18d72623          	sw	a3,396(a4) # e000e18c <_eusrstack+0xbff0e18c>
200a131e:	0000100f          	fence.i
200a1322:	3398                	lbu	a4,1(a5)
200a1324:	00676713          	ori	a4,a4,6
200a1328:	b398                	sb	a4,1(a5)
200a132a:	3398                	lbu	a4,1(a5)
200a132c:	0f977713          	andi	a4,a4,249
200a1330:	b398                	sb	a4,1(a5)
200a1332:	8082                	ret

200a1334 <HS_Endp1_Hander>:
200a1334:	f51fe2ef          	jal	t0,200a0284 <__riscv_save_0>
200a1338:	200d67b7          	lui	a5,0x200d6
200a133c:	ccc7a783          	lw	a5,-820(a5) # 200d5ccc <USB_MframeUploadLength>
200a1340:	e789                	bnez	a5,200a134a <HS_Endp1_Hander+0x16>
200a1342:	200d67b7          	lui	a5,0x200d6
200a1346:	cc078823          	sb	zero,-816(a5) # 200d5cd0 <USB_Uploadflg>
200a134a:	8201a503          	lw	a0,-2016(gp) # 200c1c18 <USBUploadaddr>
200a134e:	200d65b7          	lui	a1,0x200d6
200a1352:	d3c58413          	addi	s0,a1,-708 # 200d5d3c <UVC>
200a1356:	4641                	li	a2,16
200a1358:	d3c58593          	addi	a1,a1,-708
200a135c:	f59fe0ef          	jal	ra,200a02b4 <memcpy>
200a1360:	301c                	lbu	a5,1(s0)
200a1362:	9bf5                	andi	a5,a5,-3
200a1364:	b01c                	sb	a5,1(s0)
200a1366:	47c1                	li	a5,16
200a1368:	c81c                	sw	a5,16(s0)
200a136a:	f3ffe06f          	j	200a02a8 <__riscv_restore_0>

200a136e <HS_Endp1_ISOHander>:
200a136e:	200d66b7          	lui	a3,0x200d6
200a1372:	cec6a783          	lw	a5,-788(a3) # 200d5cec <Dvp_Class>
200a1376:	200d6737          	lui	a4,0x200d6
200a137a:	d3c70593          	addi	a1,a4,-708 # 200d5d3c <UVC>
200a137e:	0785                	addi	a5,a5,1
200a1380:	cef6a623          	sw	a5,-788(a3)
200a1384:	e000f7b7          	lui	a5,0xe000f
200a1388:	479c                	lw	a5,8(a5)
200a138a:	d3c70713          	addi	a4,a4,-708
200a138e:	fff7c613          	not	a2,a5
200a1392:	01065793          	srli	a5,a2,0x10
200a1396:	a59e                	sh	a5,8(a1)
200a1398:	cec6a783          	lw	a5,-788(a3)
200a139c:	a1f2                	sh	a2,6(a1)
200a139e:	8b9d                	andi	a5,a5,7
200a13a0:	e791                	bnez	a5,200a13ac <HS_Endp1_ISOHander+0x3e>
200a13a2:	273e                	lhu	a5,10(a4)
200a13a4:	0785                	addi	a5,a5,1 # e000f001 <_eusrstack+0xbff0f001>
200a13a6:	7ff7f793          	andi	a5,a5,2047
200a13aa:	a73e                	sh	a5,10(a4)
200a13ac:	200d6537          	lui	a0,0x200d6
200a13b0:	cd255783          	lhu	a5,-814(a0) # 200d5cd2 <Dvp_DataSize>
200a13b4:	200d66b7          	lui	a3,0x200d6
200a13b8:	cd86a603          	lw	a2,-808(a3) # 200d5cd8 <Dvp_Reclength>
200a13bc:	0792                	slli	a5,a5,0x4
200a13be:	00f66c63          	bltu	a2,a5,200a13d6 <HS_Endp1_ISOHander+0x68>
200a13c2:	cc06ac23          	sw	zero,-808(a3)
200a13c6:	200d67b7          	lui	a5,0x200d6
200a13ca:	cc07aa23          	sw	zero,-812(a5) # 200d5cd4 <DVP_Recaddpoint>
200a13ce:	200d67b7          	lui	a5,0x200d6
200a13d2:	cc07a023          	sw	zero,-832(a5) # 200d5cc0 <USB_Uploadpoint>
200a13d6:	cd86a603          	lw	a2,-808(a3)
200a13da:	200d67b7          	lui	a5,0x200d6
200a13de:	ce49                	beqz	a2,200a1478 <HS_Endp1_ISOHander+0x10a>
200a13e0:	200d6637          	lui	a2,0x200d6
200a13e4:	cd064583          	lbu	a1,-816(a2) # 200d5cd0 <USB_Uploadflg>
200a13e8:	e9c1                	bnez	a1,200a1478 <HS_Endp1_ISOHander+0x10a>
200a13ea:	4585                	li	a1,1
200a13ec:	ccb60823          	sb	a1,-816(a2)
200a13f0:	200d6637          	lui	a2,0x200d6
200a13f4:	cc062583          	lw	a1,-832(a2) # 200d5cc0 <USB_Uploadpoint>
200a13f8:	200c2837          	lui	a6,0x200c2
200a13fc:	ca080813          	addi	a6,a6,-864 # 200c1ca0 <UVC_DMABuffer>
200a1400:	05c1                	addi	a1,a1,16
200a1402:	95c2                	add	a1,a1,a6
200a1404:	82b1a023          	sw	a1,-2016(gp) # 200c1c18 <USBUploadaddr>
200a1408:	cd86a803          	lw	a6,-808(a3)
200a140c:	cc062883          	lw	a7,-832(a2)
200a1410:	cd255583          	lhu	a1,-814(a0)
200a1414:	9846                	add	a6,a6,a7
200a1416:	0592                	slli	a1,a1,0x4
200a1418:	0cb86363          	bltu	a6,a1,200a14de <HS_Endp1_ISOHander+0x170>
200a141c:	cd255583          	lhu	a1,-814(a0)
200a1420:	cc062803          	lw	a6,-832(a2)
200a1424:	0592                	slli	a1,a1,0x4
200a1426:	410585b3          	sub	a1,a1,a6
200a142a:	05c1                	addi	a1,a1,16
200a142c:	ccb7a623          	sw	a1,-820(a5) # 200d5ccc <USB_MframeUploadLength>
200a1430:	ccc7a883          	lw	a7,-820(a5)
200a1434:	6585                	lui	a1,0x1
200a1436:	bff58813          	addi	a6,a1,-1025 # bff <__stack_size+0x3ff>
200a143a:	01187663          	bgeu	a6,a7,200a1446 <HS_Endp1_ISOHander+0xd8>
200a143e:	c0058593          	addi	a1,a1,-1024
200a1442:	ccb7a623          	sw	a1,-820(a5)
200a1446:	ccc7a583          	lw	a1,-820(a5)
200a144a:	cc062803          	lw	a6,-832(a2)
200a144e:	95c2                	add	a1,a1,a6
200a1450:	15c1                	addi	a1,a1,-16
200a1452:	ccb62023          	sw	a1,-832(a2)
200a1456:	cd255583          	lhu	a1,-814(a0)
200a145a:	cc062503          	lw	a0,-832(a2)
200a145e:	0592                	slli	a1,a1,0x4
200a1460:	00b56463          	bltu	a0,a1,200a1468 <HS_Endp1_ISOHander+0xfa>
200a1464:	cc062023          	sw	zero,-832(a2)
200a1468:	ccc7a583          	lw	a1,-820(a5)
200a146c:	cd86a603          	lw	a2,-808(a3)
200a1470:	0641                	addi	a2,a2,16
200a1472:	8e0d                	sub	a2,a2,a1
200a1474:	ccc6ac23          	sw	a2,-808(a3)
200a1478:	ccc7a683          	lw	a3,-820(a5)
200a147c:	10068e63          	beqz	a3,200a1598 <HS_Endp1_ISOHander+0x22a>
200a1480:	ccc7a683          	lw	a3,-820(a5)
200a1484:	28b01513          	bseti	a0,zero,0xb
200a1488:	08d57a63          	bgeu	a0,a3,200a151c <HS_Endp1_ISOHander+0x1ae>
200a148c:	ccc7a603          	lw	a2,-820(a5)
200a1490:	6685                	lui	a3,0x1
200a1492:	c0068693          	addi	a3,a3,-1024 # c00 <__stack_size+0x400>
200a1496:	08c6e363          	bltu	a3,a2,200a151c <HS_Endp1_ISOHander+0x1ae>
200a149a:	200d66b7          	lui	a3,0x200d6
200a149e:	cba6c603          	lbu	a2,-838(a3) # 200d5cba <togGG.0>
200a14a2:	4589                	li	a1,2
200a14a4:	04b61063          	bne	a2,a1,200a14e4 <HS_Endp1_ISOHander+0x176>
200a14a8:	4785                	li	a5,1
200a14aa:	caf68d23          	sb	a5,-838(a3)
200a14ae:	8201a783          	lw	a5,-2016(gp) # 200c1c18 <USBUploadaddr>
200a14b2:	400306b7          	lui	a3,0x40030
200a14b6:	40078793          	addi	a5,a5,1024
200a14ba:	c2bc                	sw	a5,64(a3)
200a14bc:	40000793          	li	a5,1024
200a14c0:	cb1c                	sw	a5,16(a4)
200a14c2:	2b1e                	lhu	a5,16(a4)
200a14c4:	40030737          	lui	a4,0x40030
200a14c8:	0af71023          	sh	a5,160(a4) # 400300a0 <_eusrstack+0x1ff300a0>
200a14cc:	0a274783          	lbu	a5,162(a4)
200a14d0:	0fc7f793          	andi	a5,a5,252
200a14d4:	0027e793          	ori	a5,a5,2
200a14d8:	0af70123          	sb	a5,162(a4)
200a14dc:	8082                	ret
200a14de:	cd86a583          	lw	a1,-808(a3) # 4002fcd8 <_eusrstack+0x1ff2fcd8>
200a14e2:	b7a1                	j	200a142a <HS_Endp1_ISOHander+0xbc>
200a14e4:	4805                	li	a6,1
200a14e6:	03061263          	bne	a2,a6,200a150a <HS_Endp1_ISOHander+0x19c>
200a14ea:	ca068d23          	sb	zero,-838(a3)
200a14ee:	8201a683          	lw	a3,-2016(gp) # 200c1c18 <USBUploadaddr>
200a14f2:	40030637          	lui	a2,0x40030
200a14f6:	96aa                	add	a3,a3,a0
200a14f8:	c234                	sw	a3,64(a2)
200a14fa:	ccc7a683          	lw	a3,-820(a5)
200a14fe:	80068693          	addi	a3,a3,-2048
200a1502:	cb14                	sw	a3,16(a4)
200a1504:	cc07a623          	sw	zero,-820(a5)
200a1508:	bf6d                	j	200a14c2 <HS_Endp1_ISOHander+0x154>
200a150a:	fe45                	bnez	a2,200a14c2 <HS_Endp1_ISOHander+0x154>
200a150c:	cab68d23          	sb	a1,-838(a3)
200a1510:	8201a683          	lw	a3,-2016(gp) # 200c1c18 <USBUploadaddr>
200a1514:	400307b7          	lui	a5,0x40030
200a1518:	c3b4                	sw	a3,64(a5)
200a151a:	b74d                	j	200a14bc <HS_Endp1_ISOHander+0x14e>
200a151c:	ccc7a683          	lw	a3,-820(a5) # 4002fccc <_eusrstack+0x1ff2fccc>
200a1520:	40000613          	li	a2,1024
200a1524:	04d67763          	bgeu	a2,a3,200a1572 <HS_Endp1_ISOHander+0x204>
200a1528:	ccc7a583          	lw	a1,-820(a5)
200a152c:	28b01693          	bseti	a3,zero,0xb
200a1530:	04b6e163          	bltu	a3,a1,200a1572 <HS_Endp1_ISOHander+0x204>
200a1534:	200d66b7          	lui	a3,0x200d6
200a1538:	cba6c503          	lbu	a0,-838(a3) # 200d5cba <togGG.0>
200a153c:	4585                	li	a1,1
200a153e:	02b51063          	bne	a0,a1,200a155e <HS_Endp1_ISOHander+0x1f0>
200a1542:	ca068d23          	sb	zero,-838(a3)
200a1546:	8201a683          	lw	a3,-2016(gp) # 200c1c18 <USBUploadaddr>
200a154a:	40030637          	lui	a2,0x40030
200a154e:	40068693          	addi	a3,a3,1024
200a1552:	c234                	sw	a3,64(a2)
200a1554:	ccc7a683          	lw	a3,-820(a5)
200a1558:	c0068693          	addi	a3,a3,-1024
200a155c:	b75d                	j	200a1502 <HS_Endp1_ISOHander+0x194>
200a155e:	f135                	bnez	a0,200a14c2 <HS_Endp1_ISOHander+0x154>
200a1560:	cab68d23          	sb	a1,-838(a3)
200a1564:	8201a683          	lw	a3,-2016(gp) # 200c1c18 <USBUploadaddr>
200a1568:	400307b7          	lui	a5,0x40030
200a156c:	c3b4                	sw	a3,64(a5)
200a156e:	cb10                	sw	a2,16(a4)
200a1570:	bf89                	j	200a14c2 <HS_Endp1_ISOHander+0x154>
200a1572:	ccc7a603          	lw	a2,-820(a5) # 4002fccc <_eusrstack+0x1ff2fccc>
200a1576:	40000693          	li	a3,1024
200a157a:	f4c6e4e3          	bltu	a3,a2,200a14c2 <HS_Endp1_ISOHander+0x154>
200a157e:	8201a603          	lw	a2,-2016(gp) # 200c1c18 <USBUploadaddr>
200a1582:	400306b7          	lui	a3,0x40030
200a1586:	c2b0                	sw	a2,64(a3)
200a1588:	ccc7a683          	lw	a3,-820(a5)
200a158c:	cb14                	sw	a3,16(a4)
200a158e:	200d66b7          	lui	a3,0x200d6
200a1592:	ca068d23          	sb	zero,-838(a3) # 200d5cba <togGG.0>
200a1596:	b7bd                	j	200a1504 <HS_Endp1_ISOHander+0x196>
200a1598:	200d66b7          	lui	a3,0x200d6
200a159c:	ce06a603          	lw	a2,-800(a3) # 200d5ce0 <Dvp_End>
200a15a0:	4785                	li	a5,1
200a15a2:	00f61863          	bne	a2,a5,200a15b2 <HS_Endp1_ISOHander+0x244>
200a15a6:	331c                	lbu	a5,1(a4)
200a15a8:	ce06a023          	sw	zero,-800(a3)
200a15ac:	0027e793          	ori	a5,a5,2
200a15b0:	b31c                	sb	a5,1(a4)
200a15b2:	47c1                	li	a5,16
200a15b4:	cb1c                	sw	a5,16(a4)
200a15b6:	8201a683          	lw	a3,-2016(gp) # 200c1c18 <USBUploadaddr>
200a15ba:	40030737          	lui	a4,0x40030
200a15be:	c334                	sw	a3,64(a4)
200a15c0:	b721                	j	200a14c8 <HS_Endp1_ISOHander+0x15a>

200a15c2 <SS_Endp1_Hander>:
200a15c2:	200d6737          	lui	a4,0x200d6
200a15c6:	cec72783          	lw	a5,-788(a4) # 200d5cec <Dvp_Class>
200a15ca:	200d65b7          	lui	a1,0x200d6
200a15ce:	d3c58613          	addi	a2,a1,-708 # 200d5d3c <UVC>
200a15d2:	0785                	addi	a5,a5,1
200a15d4:	cef72623          	sw	a5,-788(a4)
200a15d8:	e000f7b7          	lui	a5,0xe000f
200a15dc:	479c                	lw	a5,8(a5)
200a15de:	fff7c693          	not	a3,a5
200a15e2:	0106d793          	srli	a5,a3,0x10
200a15e6:	a61e                	sh	a5,8(a2)
200a15e8:	cec72783          	lw	a5,-788(a4)
200a15ec:	a276                	sh	a3,6(a2)
200a15ee:	d3c58713          	addi	a4,a1,-708
200a15f2:	8b9d                	andi	a5,a5,7
200a15f4:	e791                	bnez	a5,200a1600 <SS_Endp1_Hander+0x3e>
200a15f6:	273e                	lhu	a5,10(a4)
200a15f8:	0785                	addi	a5,a5,1 # e000f001 <_eusrstack+0xbff0f001>
200a15fa:	7ff7f793          	andi	a5,a5,2047
200a15fe:	a73e                	sh	a5,10(a4)
200a1600:	200d6837          	lui	a6,0x200d6
200a1604:	cd285783          	lhu	a5,-814(a6) # 200d5cd2 <Dvp_DataSize>
200a1608:	200d66b7          	lui	a3,0x200d6
200a160c:	cd86a603          	lw	a2,-808(a3) # 200d5cd8 <Dvp_Reclength>
200a1610:	0792                	slli	a5,a5,0x4
200a1612:	00f66c63          	bltu	a2,a5,200a162a <SS_Endp1_Hander+0x68>
200a1616:	cc06ac23          	sw	zero,-808(a3)
200a161a:	200d67b7          	lui	a5,0x200d6
200a161e:	cc07aa23          	sw	zero,-812(a5) # 200d5cd4 <DVP_Recaddpoint>
200a1622:	200d67b7          	lui	a5,0x200d6
200a1626:	cc07a023          	sw	zero,-832(a5) # 200d5cc0 <USB_Uploadpoint>
200a162a:	cd86a783          	lw	a5,-808(a3)
200a162e:	200d68b7          	lui	a7,0x200d6
200a1632:	cbe1                	beqz	a5,200a1702 <SS_Endp1_Hander+0x140>
200a1634:	cd08c783          	lbu	a5,-816(a7) # 200d5cd0 <USB_Uploadflg>
200a1638:	e7e9                	bnez	a5,200a1702 <SS_Endp1_Hander+0x140>
200a163a:	200d6637          	lui	a2,0x200d6
200a163e:	cc062783          	lw	a5,-832(a2) # 200d5cc0 <USB_Uploadpoint>
200a1642:	200c2537          	lui	a0,0x200c2
200a1646:	ca050513          	addi	a0,a0,-864 # 200c1ca0 <UVC_DMABuffer>
200a164a:	07c1                	addi	a5,a5,16
200a164c:	97aa                	add	a5,a5,a0
200a164e:	82f1a023          	sw	a5,-2016(gp) # 200c1c18 <USBUploadaddr>
200a1652:	cd86a503          	lw	a0,-808(a3)
200a1656:	cc062e03          	lw	t3,-832(a2)
200a165a:	cd285783          	lhu	a5,-814(a6)
200a165e:	9572                	add	a0,a0,t3
200a1660:	0792                	slli	a5,a5,0x4
200a1662:	08f56d63          	bltu	a0,a5,200a16fc <SS_Endp1_Hander+0x13a>
200a1666:	cd285783          	lhu	a5,-814(a6)
200a166a:	cc062503          	lw	a0,-832(a2)
200a166e:	0792                	slli	a5,a5,0x4
200a1670:	8f89                	sub	a5,a5,a0
200a1672:	cc062503          	lw	a0,-832(a2)
200a1676:	07c1                	addi	a5,a5,16
200a1678:	cb1c                	sw	a5,16(a4)
200a167a:	1541                	addi	a0,a0,-16
200a167c:	953e                	add	a0,a0,a5
200a167e:	cca62023          	sw	a0,-832(a2)
200a1682:	cd285503          	lhu	a0,-814(a6)
200a1686:	cc062803          	lw	a6,-832(a2)
200a168a:	0512                	slli	a0,a0,0x4
200a168c:	00a86463          	bltu	a6,a0,200a1694 <SS_Endp1_Hander+0xd2>
200a1690:	cc062023          	sw	zero,-832(a2)
200a1694:	200d6637          	lui	a2,0x200d6
200a1698:	ccf62623          	sw	a5,-820(a2) # 200d5ccc <USB_MframeUploadLength>
200a169c:	ccc62603          	lw	a2,-820(a2)
200a16a0:	200d67b7          	lui	a5,0x200d6
200a16a4:	ccc7a423          	sw	a2,-824(a5) # 200d5cc8 <USB_LastMframeUploadLength>
200a16a8:	8201a503          	lw	a0,-2016(gp) # 200c1c18 <USBUploadaddr>
200a16ac:	40034837          	lui	a6,0x40034
200a16b0:	200d6e37          	lui	t3,0x200d6
200a16b4:	0ca82623          	sw	a0,204(a6) # 400340cc <_eusrstack+0x1ff340cc>
200a16b8:	01072303          	lw	t1,16(a4)
200a16bc:	3ff37613          	andi	a2,t1,1023
200a16c0:	00a35793          	srli	a5,t1,0xa
200a16c4:	ce39                	beqz	a2,200a1722 <SS_Endp1_Hander+0x160>
200a16c6:	08064633          	zext.h	a2,a2
200a16ca:	0785                	addi	a5,a5,1
200a16cc:	0cc81323          	sh	a2,198(a6)
200a16d0:	0ff7f613          	zext.b	a2,a5
200a16d4:	0cc80423          	sb	a2,200(a6)
200a16d8:	ccfe2223          	sw	a5,-828(t3) # 200d5cc4 <USB_Uploadcount>
200a16dc:	47c1                	li	a5,16
200a16de:	0467fa63          	bgeu	a5,t1,200a1732 <SS_Endp1_Hander+0x170>
200a16e2:	4785                	li	a5,1
200a16e4:	ccf88823          	sb	a5,-816(a7)
200a16e8:	47c1                	li	a5,16
200a16ea:	cb1c                	sw	a5,16(a4)
200a16ec:	331c                	lbu	a5,1(a4)
200a16ee:	4641                	li	a2,16
200a16f0:	d3c58593          	addi	a1,a1,-708
200a16f4:	9bf5                	andi	a5,a5,-3
200a16f6:	b31c                	sb	a5,1(a4)
200a16f8:	bbdfe06f          	j	200a02b4 <memcpy>
200a16fc:	cd86a783          	lw	a5,-808(a3)
200a1700:	bf8d                	j	200a1672 <SS_Endp1_Hander+0xb0>
200a1702:	200d6637          	lui	a2,0x200d6
200a1706:	ce062503          	lw	a0,-800(a2) # 200d5ce0 <Dvp_End>
200a170a:	4785                	li	a5,1
200a170c:	00f51863          	bne	a0,a5,200a171c <SS_Endp1_Hander+0x15a>
200a1710:	331c                	lbu	a5,1(a4)
200a1712:	ce062023          	sw	zero,-800(a2)
200a1716:	0027e793          	ori	a5,a5,2
200a171a:	b31c                	sb	a5,1(a4)
200a171c:	47c1                	li	a5,16
200a171e:	cb1c                	sw	a5,16(a4)
200a1720:	b761                	j	200a16a8 <SS_Endp1_Hander+0xe6>
200a1722:	200d6637          	lui	a2,0x200d6
200a1726:	ccc62603          	lw	a2,-820(a2) # 200d5ccc <USB_MframeUploadLength>
200a172a:	8229                	srli	a2,a2,0xa
200a172c:	0ff67613          	zext.b	a2,a2
200a1730:	b755                	j	200a16d4 <SS_Endp1_Hander+0x112>
200a1732:	200d6637          	lui	a2,0x200d6
200a1736:	cc862783          	lw	a5,-824(a2) # 200d5cc8 <USB_LastMframeUploadLength>
200a173a:	cf81                	beqz	a5,200a1752 <SS_Endp1_Hander+0x190>
200a173c:	cc862803          	lw	a6,-824(a2)
200a1740:	cd86a783          	lw	a5,-808(a3)
200a1744:	07c1                	addi	a5,a5,16
200a1746:	410787b3          	sub	a5,a5,a6
200a174a:	ccf6ac23          	sw	a5,-808(a3)
200a174e:	cc062423          	sw	zero,-824(a2)
200a1752:	cc088823          	sb	zero,-816(a7)
200a1756:	bf49                	j	200a16e8 <SS_Endp1_Hander+0x126>

200a1758 <DVP_Hander>:
200a1758:	40026737          	lui	a4,0x40026
200a175c:	81074783          	lbu	a5,-2032(a4) # 40025810 <_eusrstack+0x1ff25810>
200a1760:	80070713          	addi	a4,a4,-2048
200a1764:	8b89                	andi	a5,a5,2
200a1766:	c3c9                	beqz	a5,200a17e8 <DVP_Hander+0x90>
200a1768:	2376                	lhu	a3,6(a4)
200a176a:	200d67b7          	lui	a5,0x200d6
200a176e:	0806c6b3          	zext.h	a3,a3
200a1772:	ccd79923          	sh	a3,-814(a5) # 200d5cd2 <Dvp_DataSize>
200a1776:	4689                	li	a3,2
200a1778:	ab14                	sb	a3,16(a4)
200a177a:	200d66b7          	lui	a3,0x200d6
200a177e:	cd27d703          	lhu	a4,-814(a5)
200a1782:	cd86a603          	lw	a2,-808(a3) # 200d5cd8 <Dvp_Reclength>
200a1786:	9732                	add	a4,a4,a2
200a1788:	cce6ac23          	sw	a4,-808(a3)
200a178c:	200d6737          	lui	a4,0x200d6
200a1790:	cd27d683          	lhu	a3,-814(a5)
200a1794:	cd472603          	lw	a2,-812(a4) # 200d5cd4 <DVP_Recaddpoint>
200a1798:	96b2                	add	a3,a3,a2
200a179a:	ccd72a23          	sw	a3,-812(a4)
200a179e:	cd27d683          	lhu	a3,-814(a5)
200a17a2:	cd472603          	lw	a2,-812(a4)
200a17a6:	0692                	slli	a3,a3,0x4
200a17a8:	00d66463          	bltu	a2,a3,200a17b0 <DVP_Hander+0x58>
200a17ac:	cc072a23          	sw	zero,-812(a4)
200a17b0:	200d6637          	lui	a2,0x200d6
200a17b4:	ce862583          	lw	a1,-792(a2) # 200d5ce8 <Dvp_Addrcount>
200a17b8:	cd27d503          	lhu	a0,-814(a5)
200a17bc:	cd472803          	lw	a6,-812(a4)
200a17c0:	8985                	andi	a1,a1,1
200a17c2:	8241a683          	lw	a3,-2012(gp) # 200c1c1c <Dvp_Recaddr>
200a17c6:	cdd5                	beqz	a1,200a1882 <DVP_Hander+0x12a>
200a17c8:	cd27d583          	lhu	a1,-814(a5)
200a17cc:	9542                	add	a0,a0,a6
200a17ce:	0592                	slli	a1,a1,0x4
200a17d0:	08b56d63          	bltu	a0,a1,200a186a <DVP_Hander+0x112>
200a17d4:	400267b7          	lui	a5,0x40026
200a17d8:	80078793          	addi	a5,a5,-2048 # 40025800 <_eusrstack+0x1ff25800>
200a17dc:	c7d4                	sw	a3,12(a5)
200a17de:	ce862783          	lw	a5,-792(a2)
200a17e2:	0785                	addi	a5,a5,1
200a17e4:	cef62423          	sw	a5,-792(a2)
200a17e8:	400267b7          	lui	a5,0x40026
200a17ec:	8107c703          	lbu	a4,-2032(a5) # 40025810 <_eusrstack+0x1ff25810>
200a17f0:	80078793          	addi	a5,a5,-2048
200a17f4:	8b11                	andi	a4,a4,4
200a17f6:	c319                	beqz	a4,200a17fc <DVP_Hander+0xa4>
200a17f8:	4711                	li	a4,4
200a17fa:	ab98                	sb	a4,16(a5)
200a17fc:	2b98                	lbu	a4,16(a5)
200a17fe:	8b05                	andi	a4,a4,1
200a1800:	cb1d                	beqz	a4,200a1836 <DVP_Hander+0xde>
200a1802:	4705                	li	a4,1
200a1804:	ab98                	sb	a4,16(a5)
200a1806:	200d67b7          	lui	a5,0x200d6
200a180a:	cdc7a783          	lw	a5,-804(a5) # 200d5cdc <UVC_DvpStart>
200a180e:	8b85                	andi	a5,a5,1
200a1810:	c39d                	beqz	a5,200a1836 <DVP_Hander+0xde>
200a1812:	e000f7b7          	lui	a5,0xe000f
200a1816:	4798                	lw	a4,8(a5)
200a1818:	200d67b7          	lui	a5,0x200d6
200a181c:	d3c78793          	addi	a5,a5,-708 # 200d5d3c <UVC>
200a1820:	a3ba                	sh	a4,2(a5)
200a1822:	8341                	srli	a4,a4,0x10
200a1824:	a3da                	sh	a4,4(a5)
200a1826:	200d6737          	lui	a4,0x200d6
200a182a:	ce072423          	sw	zero,-792(a4) # 200d5ce8 <Dvp_Addrcount>
200a182e:	3398                	lbu	a4,1(a5)
200a1830:	00174713          	xori	a4,a4,1
200a1834:	b398                	sb	a4,1(a5)
200a1836:	400267b7          	lui	a5,0x40026
200a183a:	8107c703          	lbu	a4,-2032(a5) # 40025810 <_eusrstack+0x1ff25810>
200a183e:	80078793          	addi	a5,a5,-2048
200a1842:	8b41                	andi	a4,a4,16
200a1844:	cb01                	beqz	a4,200a1854 <DVP_Hander+0xfc>
200a1846:	4741                	li	a4,16
200a1848:	ab98                	sb	a4,16(a5)
200a184a:	200d67b7          	lui	a5,0x200d6
200a184e:	4705                	li	a4,1
200a1850:	cee7a023          	sw	a4,-800(a5) # 200d5ce0 <Dvp_End>
200a1854:	400267b7          	lui	a5,0x40026
200a1858:	8107c703          	lbu	a4,-2032(a5) # 40025810 <_eusrstack+0x1ff25810>
200a185c:	80078793          	addi	a5,a5,-2048
200a1860:	8b21                	andi	a4,a4,8
200a1862:	c319                	beqz	a4,200a1868 <DVP_Hander+0x110>
200a1864:	4721                	li	a4,8
200a1866:	ab98                	sb	a4,16(a5)
200a1868:	8082                	ret
200a186a:	cd472703          	lw	a4,-812(a4)
200a186e:	cd27d783          	lhu	a5,-814(a5)
200a1872:	97b6                	add	a5,a5,a3
200a1874:	97ba                	add	a5,a5,a4
200a1876:	40026737          	lui	a4,0x40026
200a187a:	80070713          	addi	a4,a4,-2048 # 40025800 <_eusrstack+0x1ff25800>
200a187e:	c75c                	sw	a5,12(a4)
200a1880:	bfb9                	j	200a17de <DVP_Hander+0x86>
200a1882:	cd27d583          	lhu	a1,-814(a5)
200a1886:	9542                	add	a0,a0,a6
200a1888:	0592                	slli	a1,a1,0x4
200a188a:	00b56863          	bltu	a0,a1,200a189a <DVP_Hander+0x142>
200a188e:	400267b7          	lui	a5,0x40026
200a1892:	80078793          	addi	a5,a5,-2048 # 40025800 <_eusrstack+0x1ff25800>
200a1896:	c794                	sw	a3,8(a5)
200a1898:	b799                	j	200a17de <DVP_Hander+0x86>
200a189a:	cd472703          	lw	a4,-812(a4)
200a189e:	cd27d783          	lhu	a5,-814(a5)
200a18a2:	97b6                	add	a5,a5,a3
200a18a4:	97ba                	add	a5,a5,a4
200a18a6:	40026737          	lui	a4,0x40026
200a18aa:	80070713          	addi	a4,a4,-2048 # 40025800 <_eusrstack+0x1ff25800>
200a18ae:	c71c                	sw	a5,8(a4)
200a18b0:	b73d                	j	200a17de <DVP_Hander+0x86>

200a18b2 <USBHS_UVC_NonStandardReq>:
200a18b2:	200d67b7          	lui	a5,0x200d6
200a18b6:	d007c703          	lbu	a4,-768(a5) # 200d5d00 <USBHS_SetupReqType>
200a18ba:	0a100793          	li	a5,161
200a18be:	00f70463          	beq	a4,a5,200a18c6 <USBHS_UVC_NonStandardReq+0x14>
200a18c2:	4501                	li	a0,0
200a18c4:	8082                	ret
200a18c6:	200d66b7          	lui	a3,0x200d6
200a18ca:	cfc6d783          	lhu	a5,-772(a3) # 200d5cfc <USBHS_SetupReqIndex>
200a18ce:	4719                	li	a4,6
200a18d0:	83a1                	srli	a5,a5,0x8
200a18d2:	04f76b63          	bltu	a4,a5,200a1928 <USBHS_UVC_NonStandardReq+0x76>
200a18d6:	200a9737          	lui	a4,0x200a9
200a18da:	20470713          	addi	a4,a4,516 # 200a9204 <ov2640_JPEGframe_resolution_USB30+0x14>
200a18de:	20e7c7b3          	sh2add	a5,a5,a4
200a18e2:	439c                	lw	a5,0(a5)
200a18e4:	8782                	jr	a5
200a18e6:	cfc6d783          	lhu	a5,-772(a3)
200a18ea:	0ff7f793          	zext.b	a5,a5
200a18ee:	c3a1                	beqz	a5,200a192e <USBHS_UVC_NonStandardReq+0x7c>
200a18f0:	4705                	li	a4,1
200a18f2:	06e78763          	beq	a5,a4,200a1960 <USBHS_UVC_NonStandardReq+0xae>
200a18f6:	cfc6d783          	lhu	a5,-772(a3)
200a18fa:	4705                	li	a4,1
200a18fc:	83a1                	srli	a5,a5,0x8
200a18fe:	fce792e3          	bne	a5,a4,200a18c2 <USBHS_UVC_NonStandardReq+0x10>
200a1902:	200d6737          	lui	a4,0x200d6
200a1906:	cfe75783          	lhu	a5,-770(a4) # 200d5cfe <USBHS_SetupReqValue>
200a190a:	46d1                	li	a3,20
200a190c:	83a1                	srli	a5,a5,0x8
200a190e:	00d78863          	beq	a5,a3,200a191e <USBHS_UVC_NonStandardReq+0x6c>
200a1912:	cfe75783          	lhu	a5,-770(a4)
200a1916:	4725                	li	a4,9
200a1918:	83a1                	srli	a5,a5,0x8
200a191a:	fae794e3          	bne	a5,a4,200a18c2 <USBHS_UVC_NonStandardReq+0x10>
200a191e:	200c17b7          	lui	a5,0x200c1
200a1922:	4719                	li	a4,6
200a1924:	76e78ca3          	sb	a4,1913(a5) # 200c1779 <VAICSID+0xa9>
200a1928:	0ff00513          	li	a0,255
200a192c:	8082                	ret
200a192e:	200d67b7          	lui	a5,0x200d6
200a1932:	d017c703          	lbu	a4,-767(a5) # 200d5d01 <USBHS_SetupReqCode>
200a1936:	08100793          	li	a5,129
200a193a:	faf71ee3          	bne	a4,a5,200a18f6 <USBHS_UVC_NonStandardReq+0x44>
200a193e:	200d67b7          	lui	a5,0x200d6
200a1942:	cfe7d783          	lhu	a5,-770(a5) # 200d5cfe <USBHS_SetupReqValue>
200a1946:	03f00713          	li	a4,63
200a194a:	83a1                	srli	a5,a5,0x8
200a194c:	02e787b3          	mul	a5,a5,a4
200a1950:	200c1737          	lui	a4,0x200c1
200a1954:	6d070713          	addi	a4,a4,1744 # 200c16d0 <VAICSID>
200a1958:	02b78793          	addi	a5,a5,43
200a195c:	97ba                	add	a5,a5,a4
200a195e:	a831                	j	200a197a <USBHS_UVC_NonStandardReq+0xc8>
200a1960:	200d67b7          	lui	a5,0x200d6
200a1964:	d017c783          	lbu	a5,-767(a5) # 200d5d01 <USBHS_SetupReqCode>
200a1968:	4719                	li	a4,6
200a196a:	f7f78793          	addi	a5,a5,-129
200a196e:	f8f764e3          	bltu	a4,a5,200a18f6 <USBHS_UVC_NonStandardReq+0x44>
200a1972:	200c07b7          	lui	a5,0x200c0
200a1976:	38078793          	addi	a5,a5,896 # 200c0380 <Get_Curr>
200a197a:	c11c                	sw	a5,0(a0)
200a197c:	bfad                	j	200a18f6 <USBHS_UVC_NonStandardReq+0x44>
200a197e:	200d67b7          	lui	a5,0x200d6
200a1982:	d017c783          	lbu	a5,-767(a5) # 200d5d01 <USBHS_SetupReqCode>
200a1986:	4719                	li	a4,6
200a1988:	07f78793          	addi	a5,a5,127
200a198c:	0ff7f793          	zext.b	a5,a5
200a1990:	f6f763e3          	bltu	a4,a5,200a18f6 <USBHS_UVC_NonStandardReq+0x44>
200a1994:	200a9737          	lui	a4,0x200a9
200a1998:	22070713          	addi	a4,a4,544 # 200a9220 <ov2640_JPEGframe_resolution_USB30+0x30>
200a199c:	20e7c7b3          	sh2add	a5,a5,a4
200a19a0:	4390                	lw	a2,0(a5)
200a19a2:	200c17b7          	lui	a5,0x200c1
200a19a6:	200d6737          	lui	a4,0x200d6
200a19aa:	1a478793          	addi	a5,a5,420 # 200c11a4 <CameraID>
200a19ae:	cfe75703          	lhu	a4,-770(a4) # 200d5cfe <USBHS_SetupReqValue>
200a19b2:	8321                	srli	a4,a4,0x8
200a19b4:	8602                	jr	a2
200a19b6:	200d67b7          	lui	a5,0x200d6
200a19ba:	d017c783          	lbu	a5,-767(a5) # 200d5d01 <USBHS_SetupReqCode>
200a19be:	4719                	li	a4,6
200a19c0:	07f78793          	addi	a5,a5,127
200a19c4:	0ff7f793          	zext.b	a5,a5
200a19c8:	f2f767e3          	bltu	a4,a5,200a18f6 <USBHS_UVC_NonStandardReq+0x44>
200a19cc:	200a9737          	lui	a4,0x200a9
200a19d0:	22070713          	addi	a4,a4,544 # 200a9220 <ov2640_JPEGframe_resolution_USB30+0x30>
200a19d4:	20e7c7b3          	sh2add	a5,a5,a4
200a19d8:	4390                	lw	a2,0(a5)
200a19da:	200c17b7          	lui	a5,0x200c1
200a19de:	200d6737          	lui	a4,0x200d6
200a19e2:	cb878793          	addi	a5,a5,-840 # 200c0cb8 <ProcessID>
200a19e6:	b7e1                	j	200a19ae <USBHS_UVC_NonStandardReq+0xfc>
200a19e8:	200d67b7          	lui	a5,0x200d6
200a19ec:	d017c783          	lbu	a5,-767(a5) # 200d5d01 <USBHS_SetupReqCode>
200a19f0:	4719                	li	a4,6
200a19f2:	07f78793          	addi	a5,a5,127
200a19f6:	0ff7f793          	zext.b	a5,a5
200a19fa:	eef76ee3          	bltu	a4,a5,200a18f6 <USBHS_UVC_NonStandardReq+0x44>
200a19fe:	200a9737          	lui	a4,0x200a9
200a1a02:	22070713          	addi	a4,a4,544 # 200a9220 <ov2640_JPEGframe_resolution_USB30+0x30>
200a1a06:	20e7c7b3          	sh2add	a5,a5,a4
200a1a0a:	4390                	lw	a2,0(a5)
200a1a0c:	200c17b7          	lui	a5,0x200c1
200a1a10:	200d6737          	lui	a4,0x200d6
200a1a14:	9c478793          	addi	a5,a5,-1596 # 200c09c4 <ExtensionID1>
200a1a18:	bf59                	j	200a19ae <USBHS_UVC_NonStandardReq+0xfc>
200a1a1a:	200d67b7          	lui	a5,0x200d6
200a1a1e:	d017c783          	lbu	a5,-767(a5) # 200d5d01 <USBHS_SetupReqCode>
200a1a22:	4719                	li	a4,6
200a1a24:	07f78793          	addi	a5,a5,127
200a1a28:	0ff7f793          	zext.b	a5,a5
200a1a2c:	ecf765e3          	bltu	a4,a5,200a18f6 <USBHS_UVC_NonStandardReq+0x44>
200a1a30:	200a9737          	lui	a4,0x200a9
200a1a34:	22070713          	addi	a4,a4,544 # 200a9220 <ov2640_JPEGframe_resolution_USB30+0x30>
200a1a38:	20e7c7b3          	sh2add	a5,a5,a4
200a1a3c:	4390                	lw	a2,0(a5)
200a1a3e:	200c07b7          	lui	a5,0x200c0
200a1a42:	200d6737          	lui	a4,0x200d6
200a1a46:	39c78793          	addi	a5,a5,924 # 200c039c <ExtensionID2>
200a1a4a:	b795                	j	200a19ae <USBHS_UVC_NonStandardReq+0xfc>
200a1a4c:	03f00613          	li	a2,63
200a1a50:	02c70733          	mul	a4,a4,a2
200a1a54:	02b70713          	addi	a4,a4,43 # 200d602b <Data_Buffer+0x2db>
200a1a58:	b711                	j	200a195c <USBHS_UVC_NonStandardReq+0xaa>
200a1a5a:	03f00613          	li	a2,63
200a1a5e:	02c70733          	mul	a4,a4,a2
200a1a62:	070d                	addi	a4,a4,3
200a1a64:	bde5                	j	200a195c <USBHS_UVC_NonStandardReq+0xaa>
200a1a66:	03f00613          	li	a2,63
200a1a6a:	02c70733          	mul	a4,a4,a2
200a1a6e:	0735                	addi	a4,a4,13
200a1a70:	b5f5                	j	200a195c <USBHS_UVC_NonStandardReq+0xaa>
200a1a72:	03f00613          	li	a2,63
200a1a76:	02c70733          	mul	a4,a4,a2
200a1a7a:	075d                	addi	a4,a4,23
200a1a7c:	b5c5                	j	200a195c <USBHS_UVC_NonStandardReq+0xaa>
200a1a7e:	03f00613          	li	a2,63
200a1a82:	02c70733          	mul	a4,a4,a2
200a1a86:	0705                	addi	a4,a4,1
200a1a88:	bdd1                	j	200a195c <USBHS_UVC_NonStandardReq+0xaa>
200a1a8a:	03f00613          	li	a2,63
200a1a8e:	02c70733          	mul	a4,a4,a2
200a1a92:	b5e9                	j	200a195c <USBHS_UVC_NonStandardReq+0xaa>
200a1a94:	03f00613          	li	a2,63
200a1a98:	02c70733          	mul	a4,a4,a2
200a1a9c:	02170713          	addi	a4,a4,33
200a1aa0:	bd75                	j	200a195c <USBHS_UVC_NonStandardReq+0xaa>

200a1aa2 <USBSS_UVC_NonStandardReq>:
200a1aa2:	200d67b7          	lui	a5,0x200d6
200a1aa6:	d1d7c783          	lbu	a5,-739(a5) # 200d5d1d <USBSS_SetupReqType>
200a1aaa:	4705                	li	a4,1
200a1aac:	8bfd                	andi	a5,a5,31
200a1aae:	00e78463          	beq	a5,a4,200a1ab6 <USBSS_UVC_NonStandardReq+0x14>
200a1ab2:	4501                	li	a0,0
200a1ab4:	8082                	ret
200a1ab6:	200d66b7          	lui	a3,0x200d6
200a1aba:	d186d783          	lhu	a5,-744(a3) # 200d5d18 <USBSS_SetupReqIndex>
200a1abe:	4719                	li	a4,6
200a1ac0:	83a1                	srli	a5,a5,0x8
200a1ac2:	02f76263          	bltu	a4,a5,200a1ae6 <USBSS_UVC_NonStandardReq+0x44>
200a1ac6:	200a9737          	lui	a4,0x200a9
200a1aca:	23c70713          	addi	a4,a4,572 # 200a923c <ov2640_JPEGframe_resolution_USB30+0x4c>
200a1ace:	20e7c7b3          	sh2add	a5,a5,a4
200a1ad2:	439c                	lw	a5,0(a5)
200a1ad4:	8782                	jr	a5
200a1ad6:	d186d783          	lhu	a5,-744(a3)
200a1ada:	0ff7f793          	zext.b	a5,a5
200a1ade:	c3a1                	beqz	a5,200a1b1e <USBSS_UVC_NonStandardReq+0x7c>
200a1ae0:	4705                	li	a4,1
200a1ae2:	06e78763          	beq	a5,a4,200a1b50 <USBSS_UVC_NonStandardReq+0xae>
200a1ae6:	d186d783          	lhu	a5,-744(a3)
200a1aea:	4705                	li	a4,1
200a1aec:	83a1                	srli	a5,a5,0x8
200a1aee:	fce792e3          	bne	a5,a4,200a1ab2 <USBSS_UVC_NonStandardReq+0x10>
200a1af2:	200d6737          	lui	a4,0x200d6
200a1af6:	d1a75783          	lhu	a5,-742(a4) # 200d5d1a <USBSS_SetupReqValue>
200a1afa:	46d1                	li	a3,20
200a1afc:	83a1                	srli	a5,a5,0x8
200a1afe:	00d78863          	beq	a5,a3,200a1b0e <USBSS_UVC_NonStandardReq+0x6c>
200a1b02:	d1a75783          	lhu	a5,-742(a4)
200a1b06:	4725                	li	a4,9
200a1b08:	83a1                	srli	a5,a5,0x8
200a1b0a:	fae794e3          	bne	a5,a4,200a1ab2 <USBSS_UVC_NonStandardReq+0x10>
200a1b0e:	200c17b7          	lui	a5,0x200c1
200a1b12:	4719                	li	a4,6
200a1b14:	76e78ca3          	sb	a4,1913(a5) # 200c1779 <VAICSID+0xa9>
200a1b18:	0ff00513          	li	a0,255
200a1b1c:	8082                	ret
200a1b1e:	200d67b7          	lui	a5,0x200d6
200a1b22:	d1c7c703          	lbu	a4,-740(a5) # 200d5d1c <USBSS_SetupReqCode>
200a1b26:	08100793          	li	a5,129
200a1b2a:	faf71ee3          	bne	a4,a5,200a1ae6 <USBSS_UVC_NonStandardReq+0x44>
200a1b2e:	200d67b7          	lui	a5,0x200d6
200a1b32:	d1a7d783          	lhu	a5,-742(a5) # 200d5d1a <USBSS_SetupReqValue>
200a1b36:	03f00713          	li	a4,63
200a1b3a:	83a1                	srli	a5,a5,0x8
200a1b3c:	02e787b3          	mul	a5,a5,a4
200a1b40:	200c1737          	lui	a4,0x200c1
200a1b44:	6d070713          	addi	a4,a4,1744 # 200c16d0 <VAICSID>
200a1b48:	02b78793          	addi	a5,a5,43
200a1b4c:	97ba                	add	a5,a5,a4
200a1b4e:	a831                	j	200a1b6a <USBSS_UVC_NonStandardReq+0xc8>
200a1b50:	200d67b7          	lui	a5,0x200d6
200a1b54:	d1c7c783          	lbu	a5,-740(a5) # 200d5d1c <USBSS_SetupReqCode>
200a1b58:	4719                	li	a4,6
200a1b5a:	f7f78793          	addi	a5,a5,-129
200a1b5e:	f8f764e3          	bltu	a4,a5,200a1ae6 <USBSS_UVC_NonStandardReq+0x44>
200a1b62:	200c07b7          	lui	a5,0x200c0
200a1b66:	38078793          	addi	a5,a5,896 # 200c0380 <Get_Curr>
200a1b6a:	c11c                	sw	a5,0(a0)
200a1b6c:	bfad                	j	200a1ae6 <USBSS_UVC_NonStandardReq+0x44>
200a1b6e:	200d67b7          	lui	a5,0x200d6
200a1b72:	d1c7c783          	lbu	a5,-740(a5) # 200d5d1c <USBSS_SetupReqCode>
200a1b76:	4719                	li	a4,6
200a1b78:	07f78793          	addi	a5,a5,127
200a1b7c:	0ff7f793          	zext.b	a5,a5
200a1b80:	f6f763e3          	bltu	a4,a5,200a1ae6 <USBSS_UVC_NonStandardReq+0x44>
200a1b84:	200a9737          	lui	a4,0x200a9
200a1b88:	25870713          	addi	a4,a4,600 # 200a9258 <ov2640_JPEGframe_resolution_USB30+0x68>
200a1b8c:	20e7c7b3          	sh2add	a5,a5,a4
200a1b90:	4390                	lw	a2,0(a5)
200a1b92:	200c17b7          	lui	a5,0x200c1
200a1b96:	200d6737          	lui	a4,0x200d6
200a1b9a:	1a478793          	addi	a5,a5,420 # 200c11a4 <CameraID>
200a1b9e:	d1a75703          	lhu	a4,-742(a4) # 200d5d1a <USBSS_SetupReqValue>
200a1ba2:	8321                	srli	a4,a4,0x8
200a1ba4:	8602                	jr	a2
200a1ba6:	200d67b7          	lui	a5,0x200d6
200a1baa:	d1c7c783          	lbu	a5,-740(a5) # 200d5d1c <USBSS_SetupReqCode>
200a1bae:	4719                	li	a4,6
200a1bb0:	07f78793          	addi	a5,a5,127
200a1bb4:	0ff7f793          	zext.b	a5,a5
200a1bb8:	f2f767e3          	bltu	a4,a5,200a1ae6 <USBSS_UVC_NonStandardReq+0x44>
200a1bbc:	200a9737          	lui	a4,0x200a9
200a1bc0:	25870713          	addi	a4,a4,600 # 200a9258 <ov2640_JPEGframe_resolution_USB30+0x68>
200a1bc4:	20e7c7b3          	sh2add	a5,a5,a4
200a1bc8:	4390                	lw	a2,0(a5)
200a1bca:	200c17b7          	lui	a5,0x200c1
200a1bce:	200d6737          	lui	a4,0x200d6
200a1bd2:	cb878793          	addi	a5,a5,-840 # 200c0cb8 <ProcessID>
200a1bd6:	b7e1                	j	200a1b9e <USBSS_UVC_NonStandardReq+0xfc>
200a1bd8:	200d67b7          	lui	a5,0x200d6
200a1bdc:	d1c7c783          	lbu	a5,-740(a5) # 200d5d1c <USBSS_SetupReqCode>
200a1be0:	4719                	li	a4,6
200a1be2:	07f78793          	addi	a5,a5,127
200a1be6:	0ff7f793          	zext.b	a5,a5
200a1bea:	eef76ee3          	bltu	a4,a5,200a1ae6 <USBSS_UVC_NonStandardReq+0x44>
200a1bee:	200a9737          	lui	a4,0x200a9
200a1bf2:	25870713          	addi	a4,a4,600 # 200a9258 <ov2640_JPEGframe_resolution_USB30+0x68>
200a1bf6:	20e7c7b3          	sh2add	a5,a5,a4
200a1bfa:	4390                	lw	a2,0(a5)
200a1bfc:	200c17b7          	lui	a5,0x200c1
200a1c00:	200d6737          	lui	a4,0x200d6
200a1c04:	9c478793          	addi	a5,a5,-1596 # 200c09c4 <ExtensionID1>
200a1c08:	bf59                	j	200a1b9e <USBSS_UVC_NonStandardReq+0xfc>
200a1c0a:	200d67b7          	lui	a5,0x200d6
200a1c0e:	d1c7c783          	lbu	a5,-740(a5) # 200d5d1c <USBSS_SetupReqCode>
200a1c12:	4719                	li	a4,6
200a1c14:	07f78793          	addi	a5,a5,127
200a1c18:	0ff7f793          	zext.b	a5,a5
200a1c1c:	ecf765e3          	bltu	a4,a5,200a1ae6 <USBSS_UVC_NonStandardReq+0x44>
200a1c20:	200a9737          	lui	a4,0x200a9
200a1c24:	25870713          	addi	a4,a4,600 # 200a9258 <ov2640_JPEGframe_resolution_USB30+0x68>
200a1c28:	20e7c7b3          	sh2add	a5,a5,a4
200a1c2c:	4390                	lw	a2,0(a5)
200a1c2e:	200c07b7          	lui	a5,0x200c0
200a1c32:	200d6737          	lui	a4,0x200d6
200a1c36:	39c78793          	addi	a5,a5,924 # 200c039c <ExtensionID2>
200a1c3a:	b795                	j	200a1b9e <USBSS_UVC_NonStandardReq+0xfc>
200a1c3c:	03f00613          	li	a2,63
200a1c40:	02c70733          	mul	a4,a4,a2
200a1c44:	02b70713          	addi	a4,a4,43 # 200d602b <Data_Buffer+0x2db>
200a1c48:	b711                	j	200a1b4c <USBSS_UVC_NonStandardReq+0xaa>
200a1c4a:	03f00613          	li	a2,63
200a1c4e:	02c70733          	mul	a4,a4,a2
200a1c52:	070d                	addi	a4,a4,3
200a1c54:	bde5                	j	200a1b4c <USBSS_UVC_NonStandardReq+0xaa>
200a1c56:	03f00613          	li	a2,63
200a1c5a:	02c70733          	mul	a4,a4,a2
200a1c5e:	0735                	addi	a4,a4,13
200a1c60:	b5f5                	j	200a1b4c <USBSS_UVC_NonStandardReq+0xaa>
200a1c62:	03f00613          	li	a2,63
200a1c66:	02c70733          	mul	a4,a4,a2
200a1c6a:	075d                	addi	a4,a4,23
200a1c6c:	b5c5                	j	200a1b4c <USBSS_UVC_NonStandardReq+0xaa>
200a1c6e:	03f00613          	li	a2,63
200a1c72:	02c70733          	mul	a4,a4,a2
200a1c76:	0705                	addi	a4,a4,1
200a1c78:	bdd1                	j	200a1b4c <USBSS_UVC_NonStandardReq+0xaa>
200a1c7a:	03f00613          	li	a2,63
200a1c7e:	02c70733          	mul	a4,a4,a2
200a1c82:	b5e9                	j	200a1b4c <USBSS_UVC_NonStandardReq+0xaa>
200a1c84:	03f00613          	li	a2,63
200a1c88:	02c70733          	mul	a4,a4,a2
200a1c8c:	02170713          	addi	a4,a4,33
200a1c90:	bd75                	j	200a1b4c <USBSS_UVC_NonStandardReq+0xaa>

200a1c92 <DVP_IRQHandler>:
200a1c92:	34d9                	jal	200a1758 <DVP_Hander>
200a1c94:	30200073          	mret

200a1c98 <Dvp_Row_Col_Set>:
200a1c98:	81c1c783          	lbu	a5,-2020(gp) # 200c1c14 <Formatchange_flag>
200a1c9c:	4685                	li	a3,1
200a1c9e:	0ff7f713          	zext.b	a4,a5
200a1ca2:	00d78663          	beq	a5,a3,200a1cae <Dvp_Row_Col_Set+0x16>
200a1ca6:	4789                	li	a5,2
200a1ca8:	02f70063          	beq	a4,a5,200a1cc8 <Dvp_Row_Col_Set+0x30>
200a1cac:	8082                	ret
200a1cae:	400267b7          	lui	a5,0x40026
200a1cb2:	80079223          	sh	zero,-2044(a5) # 40025804 <_eusrstack+0x1ff25804>
200a1cb6:	20000713          	li	a4,512
200a1cba:	80e79323          	sh	a4,-2042(a5)
200a1cbe:	200d67b7          	lui	a5,0x200d6
200a1cc2:	cce79923          	sh	a4,-814(a5) # 200d5cd2 <Dvp_DataSize>
200a1cc6:	8082                	ret
200a1cc8:	400267b7          	lui	a5,0x40026
200a1ccc:	80b79223          	sh	a1,-2044(a5) # 40025804 <_eusrstack+0x1ff25804>
200a1cd0:	0506                	slli	a0,a0,0x1
200a1cd2:	08054533          	zext.h	a0,a0
200a1cd6:	80a79323          	sh	a0,-2042(a5)
200a1cda:	200d67b7          	lui	a5,0x200d6
200a1cde:	cca79923          	sh	a0,-814(a5) # 200d5cd2 <Dvp_DataSize>
200a1ce2:	8082                	ret

200a1ce4 <SCCB_Start>:
200a1ce4:	da0fe2ef          	jal	t0,200a0284 <__riscv_save_0>
200a1ce8:	40011437          	lui	s0,0x40011
200a1cec:	c0040413          	addi	s0,s0,-1024 # 40010c00 <_eusrstack+0x1ff10c00>
200a1cf0:	28b01913          	bseti	s2,zero,0xb
200a1cf4:	01242823          	sw	s2,16(s0)
200a1cf8:	40000493          	li	s1,1024
200a1cfc:	c804                	sw	s1,16(s0)
200a1cfe:	03200513          	li	a0,50
200a1d02:	a4cff0ef          	jal	ra,200a0f4e <Delay_Us>
200a1d06:	03200513          	li	a0,50
200a1d0a:	01242a23          	sw	s2,20(s0)
200a1d0e:	a40ff0ef          	jal	ra,200a0f4e <Delay_Us>
200a1d12:	c844                	sw	s1,20(s0)
200a1d14:	d94fe06f          	j	200a02a8 <__riscv_restore_0>

200a1d18 <SCCB_Stop>:
200a1d18:	d6cfe2ef          	jal	t0,200a0284 <__riscv_save_0>
200a1d1c:	40011437          	lui	s0,0x40011
200a1d20:	c0040413          	addi	s0,s0,-1024 # 40010c00 <_eusrstack+0x1ff10c00>
200a1d24:	28b01493          	bseti	s1,zero,0xb
200a1d28:	c844                	sw	s1,20(s0)
200a1d2a:	03200513          	li	a0,50
200a1d2e:	a20ff0ef          	jal	ra,200a0f4e <Delay_Us>
200a1d32:	40000793          	li	a5,1024
200a1d36:	c81c                	sw	a5,16(s0)
200a1d38:	03200513          	li	a0,50
200a1d3c:	a12ff0ef          	jal	ra,200a0f4e <Delay_Us>
200a1d40:	03200513          	li	a0,50
200a1d44:	c804                	sw	s1,16(s0)
200a1d46:	a08ff0ef          	jal	ra,200a0f4e <Delay_Us>
200a1d4a:	d5efe06f          	j	200a02a8 <__riscv_restore_0>

200a1d4e <SCCB_WR_Byte>:
200a1d4e:	d1cfe2ef          	jal	t0,200a026a <__riscv_save_4>
200a1d52:	84aa                	mv	s1,a0
200a1d54:	4921                	li	s2,8
200a1d56:	40011a37          	lui	s4,0x40011
200a1d5a:	28b01a93          	bseti	s5,zero,0xb
200a1d5e:	40000993          	li	s3,1024
200a1d62:	c00a0713          	addi	a4,s4,-1024 # 40010c00 <_eusrstack+0x1ff10c00>
200a1d66:	60449793          	sext.b	a5,s1
200a1d6a:	0607d763          	bgez	a5,200a1dd8 <SCCB_WR_Byte+0x8a>
200a1d6e:	01572823          	sw	s5,16(a4)
200a1d72:	03200513          	li	a0,50
200a1d76:	9d8ff0ef          	jal	ra,200a0f4e <Delay_Us>
200a1d7a:	c00a0413          	addi	s0,s4,-1024
200a1d7e:	01342823          	sw	s3,16(s0)
200a1d82:	03200513          	li	a0,50
200a1d86:	197d                	addi	s2,s2,-1
200a1d88:	0486                	slli	s1,s1,0x1
200a1d8a:	9c4ff0ef          	jal	ra,200a0f4e <Delay_Us>
200a1d8e:	0ff97913          	zext.b	s2,s2
200a1d92:	01342a23          	sw	s3,20(s0)
200a1d96:	0ff4f493          	zext.b	s1,s1
200a1d9a:	fc0914e3          	bnez	s2,200a1d62 <SCCB_WR_Byte+0x14>
200a1d9e:	405c                	lw	a5,4(s0)
200a1da0:	74c5                	lui	s1,0xffff1
200a1da2:	14fd                	addi	s1,s1,-1 # ffff0fff <_eusrstack+0xdfef0fff>
200a1da4:	8fe5                	and	a5,a5,s1
200a1da6:	28f79793          	bseti	a5,a5,0xf
200a1daa:	03200513          	li	a0,50
200a1dae:	c05c                	sw	a5,4(s0)
200a1db0:	99eff0ef          	jal	ra,200a0f4e <Delay_Us>
200a1db4:	03200513          	li	a0,50
200a1db8:	01342823          	sw	s3,16(s0)
200a1dbc:	992ff0ef          	jal	ra,200a0f4e <Delay_Us>
200a1dc0:	4408                	lw	a0,8(s0)
200a1dc2:	01342a23          	sw	s3,20(s0)
200a1dc6:	405c                	lw	a5,4(s0)
200a1dc8:	670d                	lui	a4,0x3
200a1dca:	48b55513          	bexti	a0,a0,0xb
200a1dce:	8fe5                	and	a5,a5,s1
200a1dd0:	8fd9                	or	a5,a5,a4
200a1dd2:	c05c                	sw	a5,4(s0)
200a1dd4:	ccafe06f          	j	200a029e <__riscv_restore_4>
200a1dd8:	01572a23          	sw	s5,20(a4) # 3014 <__stack_size+0x2814>
200a1ddc:	bf59                	j	200a1d72 <SCCB_WR_Byte+0x24>

200a1dde <SCCB_WR_Reg>:
200a1dde:	ca6fe2ef          	jal	t0,200a0284 <__riscv_save_0>
200a1de2:	84ae                	mv	s1,a1
200a1de4:	892a                	mv	s2,a0
200a1de6:	3dfd                	jal	200a1ce4 <SCCB_Start>
200a1de8:	06000513          	li	a0,96
200a1dec:	378d                	jal	200a1d4e <SCCB_WR_Byte>
200a1dee:	842a                	mv	s0,a0
200a1df0:	06400513          	li	a0,100
200a1df4:	95aff0ef          	jal	ra,200a0f4e <Delay_Us>
200a1df8:	854a                	mv	a0,s2
200a1dfa:	3f91                	jal	200a1d4e <SCCB_WR_Byte>
200a1dfc:	8c49                	or	s0,s0,a0
200a1dfe:	06400513          	li	a0,100
200a1e02:	94cff0ef          	jal	ra,200a0f4e <Delay_Us>
200a1e06:	8526                	mv	a0,s1
200a1e08:	3799                	jal	200a1d4e <SCCB_WR_Byte>
200a1e0a:	c511                	beqz	a0,200a1e16 <SCCB_WR_Reg+0x38>
200a1e0c:	4405                	li	s0,1
200a1e0e:	3729                	jal	200a1d18 <SCCB_Stop>
200a1e10:	8522                	mv	a0,s0
200a1e12:	c96fe06f          	j	200a02a8 <__riscv_restore_0>
200a1e16:	0ff47413          	zext.b	s0,s0
200a1e1a:	00803433          	snez	s0,s0
200a1e1e:	bfc5                	j	200a1e0e <SCCB_WR_Reg+0x30>

200a1e20 <OV2640_Format_Mode>:
200a1e20:	c64fe2ef          	jal	t0,200a0284 <__riscv_save_0>
200a1e24:	4585                	li	a1,1
200a1e26:	842a                	mv	s0,a0
200a1e28:	0ff00513          	li	a0,255
200a1e2c:	3f4d                	jal	200a1dde <SCCB_WR_Reg>
200a1e2e:	08000593          	li	a1,128
200a1e32:	4549                	li	a0,18
200a1e34:	376d                	jal	200a1dde <SCCB_WR_Reg>
200a1e36:	4515                	li	a0,5
200a1e38:	958ff0ef          	jal	ra,200a0f90 <Delay_Ms>
200a1e3c:	4785                	li	a5,1
200a1e3e:	00f40763          	beq	s0,a5,200a1e4c <OV2640_Format_Mode+0x2c>
200a1e42:	4789                	li	a5,2
200a1e44:	02f40d63          	beq	s0,a5,200a1e7e <OV2640_Format_Mode+0x5e>
200a1e48:	c60fe06f          	j	200a02a8 <__riscv_restore_0>
200a1e4c:	200a9437          	lui	s0,0x200a9
200a1e50:	28440413          	addi	s0,s0,644 # 200a9284 <ov2640_uxga_init_reg_tbl>
200a1e54:	16440493          	addi	s1,s0,356
200a1e58:	300c                	lbu	a1,1(s0)
200a1e5a:	2008                	lbu	a0,0(s0)
200a1e5c:	0409                	addi	s0,s0,2
200a1e5e:	3741                	jal	200a1dde <SCCB_WR_Reg>
200a1e60:	fe941ce3          	bne	s0,s1,200a1e58 <OV2640_Format_Mode+0x38>
200a1e64:	200a9437          	lui	s0,0x200a9
200a1e68:	27440413          	addi	s0,s0,628 # 200a9274 <ov2640_jpeg_reg_tbl>
200a1e6c:	01040493          	addi	s1,s0,16
200a1e70:	300c                	lbu	a1,1(s0)
200a1e72:	2008                	lbu	a0,0(s0)
200a1e74:	0409                	addi	s0,s0,2
200a1e76:	37a5                	jal	200a1dde <SCCB_WR_Reg>
200a1e78:	fe941ce3          	bne	s0,s1,200a1e70 <OV2640_Format_Mode+0x50>
200a1e7c:	b7f1                	j	200a1e48 <OV2640_Format_Mode+0x28>
200a1e7e:	200a9437          	lui	s0,0x200a9
200a1e82:	3e840413          	addi	s0,s0,1000 # 200a93e8 <yuv_uxga>
200a1e86:	14840493          	addi	s1,s0,328
200a1e8a:	300c                	lbu	a1,1(s0)
200a1e8c:	2008                	lbu	a0,0(s0)
200a1e8e:	0409                	addi	s0,s0,2
200a1e90:	37b9                	jal	200a1dde <SCCB_WR_Reg>
200a1e92:	fe941ce3          	bne	s0,s1,200a1e8a <OV2640_Format_Mode+0x6a>
200a1e96:	bf4d                	j	200a1e48 <OV2640_Format_Mode+0x28>

200a1e98 <OV2640_OutSize_Set>:
200a1e98:	00357793          	andi	a5,a0,3
200a1e9c:	efb9                	bnez	a5,200a1efa <OV2640_OutSize_Set+0x62>
200a1e9e:	be6fe2ef          	jal	t0,200a0284 <__riscv_save_0>
200a1ea2:	0035f793          	andi	a5,a1,3
200a1ea6:	84aa                	mv	s1,a0
200a1ea8:	842e                	mv	s0,a1
200a1eaa:	4509                	li	a0,2
200a1eac:	e7a9                	bnez	a5,200a1ef6 <OV2640_OutSize_Set+0x5e>
200a1eae:	4581                	li	a1,0
200a1eb0:	0ff00513          	li	a0,255
200a1eb4:	372d                	jal	200a1dde <SCCB_WR_Reg>
200a1eb6:	4591                	li	a1,4
200a1eb8:	0e000513          	li	a0,224
200a1ebc:	370d                	jal	200a1dde <SCCB_WR_Reg>
200a1ebe:	0024d593          	srli	a1,s1,0x2
200a1ec2:	0ff5f593          	zext.b	a1,a1
200a1ec6:	05a00513          	li	a0,90
200a1eca:	3f11                	jal	200a1dde <SCCB_WR_Reg>
200a1ecc:	00245593          	srli	a1,s0,0x2
200a1ed0:	0ff5f593          	zext.b	a1,a1
200a1ed4:	05b00513          	li	a0,91
200a1ed8:	3719                	jal	200a1dde <SCCB_WR_Reg>
200a1eda:	00a4d593          	srli	a1,s1,0xa
200a1ede:	8021                	srli	s0,s0,0x8
200a1ee0:	898d                	andi	a1,a1,3
200a1ee2:	8811                	andi	s0,s0,4
200a1ee4:	8dc1                	or	a1,a1,s0
200a1ee6:	05c00513          	li	a0,92
200a1eea:	3dd5                	jal	200a1dde <SCCB_WR_Reg>
200a1eec:	4581                	li	a1,0
200a1eee:	0e000513          	li	a0,224
200a1ef2:	35f5                	jal	200a1dde <SCCB_WR_Reg>
200a1ef4:	4501                	li	a0,0
200a1ef6:	bb2fe06f          	j	200a02a8 <__riscv_restore_0>
200a1efa:	4505                	li	a0,1
200a1efc:	8082                	ret

200a1efe <ov2640_speed_ctrl>:
200a1efe:	b86fe2ef          	jal	t0,200a0284 <__riscv_save_0>
200a1f02:	842e                	mv	s0,a1
200a1f04:	84aa                	mv	s1,a0
200a1f06:	4581                	li	a1,0
200a1f08:	0ff00513          	li	a0,255
200a1f0c:	3dc9                	jal	200a1dde <SCCB_WR_Reg>
200a1f0e:	85a6                	mv	a1,s1
200a1f10:	0d300513          	li	a0,211
200a1f14:	35e9                	jal	200a1dde <SCCB_WR_Reg>
200a1f16:	4585                	li	a1,1
200a1f18:	0ff00513          	li	a0,255
200a1f1c:	35c9                	jal	200a1dde <SCCB_WR_Reg>
200a1f1e:	85a2                	mv	a1,s0
200a1f20:	4545                	li	a0,17
200a1f22:	3d75                	jal	200a1dde <SCCB_WR_Reg>
200a1f24:	b84fe06f          	j	200a02a8 <__riscv_restore_0>

200a1f28 <OV2640_Speed_Mode>:
200a1f28:	b5cfe2ef          	jal	t0,200a0284 <__riscv_save_0>
200a1f2c:	4785                	li	a5,1
200a1f2e:	00f50763          	beq	a0,a5,200a1f3c <OV2640_Speed_Mode+0x14>
200a1f32:	4789                	li	a5,2
200a1f34:	00f50963          	beq	a0,a5,200a1f46 <OV2640_Speed_Mode+0x1e>
200a1f38:	b70fe06f          	j	200a02a8 <__riscv_restore_0>
200a1f3c:	4581                	li	a1,0
200a1f3e:	02400513          	li	a0,36
200a1f42:	3f75                	jal	200a1efe <ov2640_speed_ctrl>
200a1f44:	bfd5                	j	200a1f38 <OV2640_Speed_Mode+0x10>
200a1f46:	4581                	li	a1,0
200a1f48:	4505                	li	a0,1
200a1f4a:	bfe5                	j	200a1f42 <OV2640_Speed_Mode+0x1a>

200a1f4c <OV2640_Change_Resolution>:
200a1f4c:	b38fe2ef          	jal	t0,200a0284 <__riscv_save_0>
200a1f50:	4785                	li	a5,1
200a1f52:	200d64b7          	lui	s1,0x200d6
200a1f56:	200d6437          	lui	s0,0x200d6
200a1f5a:	02f50463          	beq	a0,a5,200a1f82 <OV2640_Change_Resolution+0x36>
200a1f5e:	4789                	li	a5,2
200a1f60:	06f50b63          	beq	a0,a5,200a1fd6 <OV2640_Change_Resolution+0x8a>
200a1f64:	cbe4d503          	lhu	a0,-834(s1) # 200d5cbe <Resolution_width>
200a1f68:	cbc45583          	lhu	a1,-836(s0) # 200d5cbc <Resolution_height>
200a1f6c:	3335                	jal	200a1c98 <Dvp_Row_Col_Set>
200a1f6e:	cbe4d503          	lhu	a0,-834(s1)
200a1f72:	cbc45583          	lhu	a1,-836(s0)
200a1f76:	370d                	jal	200a1e98 <OV2640_OutSize_Set>
200a1f78:	81c1c503          	lbu	a0,-2020(gp) # 200c1c14 <Formatchange_flag>
200a1f7c:	3775                	jal	200a1f28 <OV2640_Speed_Mode>
200a1f7e:	b2afe06f          	j	200a02a8 <__riscv_restore_0>
200a1f82:	200d67b7          	lui	a5,0x200d6
200a1f86:	d107c683          	lbu	a3,-752(a5) # 200d5d10 <USB_Enum_Status>
200a1f8a:	4711                	li	a4,4
200a1f8c:	02e69563          	bne	a3,a4,200a1fb6 <OV2640_Change_Resolution+0x6a>
200a1f90:	200d6737          	lui	a4,0x200d6
200a1f94:	d1374703          	lbu	a4,-749(a4) # 200d5d13 <USBSS_DevEnumStatus>
200a1f98:	cf19                	beqz	a4,200a1fb6 <OV2640_Change_Resolution+0x6a>
200a1f9a:	200a97b7          	lui	a5,0x200a9
200a1f9e:	15fd                	addi	a1,a1,-1
200a1fa0:	1f078793          	addi	a5,a5,496 # 200a91f0 <ov2640_JPEGframe_resolution_USB30>
200a1fa4:	20f5c5b3          	sh2add	a1,a1,a5
200a1fa8:	219e                	lhu	a5,0(a1)
200a1faa:	caf49f23          	sh	a5,-834(s1)
200a1fae:	21be                	lhu	a5,2(a1)
200a1fb0:	caf41e23          	sh	a5,-836(s0)
200a1fb4:	bf45                	j	200a1f64 <OV2640_Change_Resolution+0x18>
200a1fb6:	d107c703          	lbu	a4,-752(a5)
200a1fba:	4791                	li	a5,4
200a1fbc:	faf714e3          	bne	a4,a5,200a1f64 <OV2640_Change_Resolution+0x18>
200a1fc0:	200d67b7          	lui	a5,0x200d6
200a1fc4:	cf27c783          	lbu	a5,-782(a5) # 200d5cf2 <USBHS_DevEnumStatus>
200a1fc8:	dfd1                	beqz	a5,200a1f64 <OV2640_Change_Resolution+0x18>
200a1fca:	200a97b7          	lui	a5,0x200a9
200a1fce:	15fd                	addi	a1,a1,-1
200a1fd0:	1dc78793          	addi	a5,a5,476 # 200a91dc <ov2640_JPEGframe_resolution_USB20>
200a1fd4:	bfc1                	j	200a1fa4 <OV2640_Change_Resolution+0x58>
200a1fd6:	200d67b7          	lui	a5,0x200d6
200a1fda:	d107c683          	lbu	a3,-752(a5) # 200d5d10 <USB_Enum_Status>
200a1fde:	4711                	li	a4,4
200a1fe0:	00e69d63          	bne	a3,a4,200a1ffa <OV2640_Change_Resolution+0xae>
200a1fe4:	200d6737          	lui	a4,0x200d6
200a1fe8:	d1374703          	lbu	a4,-749(a4) # 200d5d13 <USBSS_DevEnumStatus>
200a1fec:	c719                	beqz	a4,200a1ffa <OV2640_Change_Resolution+0xae>
200a1fee:	200a97b7          	lui	a5,0x200a9
200a1ff2:	15fd                	addi	a1,a1,-1
200a1ff4:	1c878793          	addi	a5,a5,456 # 200a91c8 <ov2640_YUVframe_resolution_USB30>
200a1ff8:	b775                	j	200a1fa4 <OV2640_Change_Resolution+0x58>
200a1ffa:	d107c703          	lbu	a4,-752(a5)
200a1ffe:	4791                	li	a5,4
200a2000:	f6f712e3          	bne	a4,a5,200a1f64 <OV2640_Change_Resolution+0x18>
200a2004:	200d67b7          	lui	a5,0x200d6
200a2008:	cf27c783          	lbu	a5,-782(a5) # 200d5cf2 <USBHS_DevEnumStatus>
200a200c:	dfa1                	beqz	a5,200a1f64 <OV2640_Change_Resolution+0x18>
200a200e:	200a97b7          	lui	a5,0x200a9
200a2012:	15fd                	addi	a1,a1,-1
200a2014:	1b478793          	addi	a5,a5,436 # 200a91b4 <ov2640_YUVframe_resolution_USB20>
200a2018:	b771                	j	200a1fa4 <OV2640_Change_Resolution+0x58>

200a201a <USBHS_RCC_Init.part.0>:
200a201a:	a6afe2ef          	jal	t0,200a0284 <__riscv_save_0>
200a201e:	400217b7          	lui	a5,0x40021
200a2022:	479c                	lw	a5,8(a5)
200a2024:	70000737          	lui	a4,0x70000
200a2028:	8ff9                	and	a5,a5,a4
200a202a:	40000737          	lui	a4,0x40000
200a202e:	02e78863          	beq	a5,a4,200a205e <USBHS_RCC_Init.part.0+0x44>
200a2032:	4501                	li	a0,0
200a2034:	d7ffe0ef          	jal	ra,200a0db2 <RCC_USBHS_PLLCmd>
200a2038:	4501                	li	a0,0
200a203a:	dd1fe0ef          	jal	ra,200a0e0a <RCC_USBHSPLLCLKConfig>
200a203e:	4501                	li	a0,0
200a2040:	dddfe0ef          	jal	ra,200a0e1c <RCC_USBHSPLLReferConfig>
200a2044:	4501                	li	a0,0
200a2046:	de9fe0ef          	jal	ra,200a0e2e <RCC_USBHSPLLClockSourceDivConfig>
200a204a:	4505                	li	a0,1
200a204c:	d67fe0ef          	jal	ra,200a0db2 <RCC_USBHS_PLLCmd>
200a2050:	400216b7          	lui	a3,0x40021
200a2054:	00200737          	lui	a4,0x200
200a2058:	429c                	lw	a5,0(a3)
200a205a:	8ff9                	and	a5,a5,a4
200a205c:	dff5                	beqz	a5,200a2058 <USBHS_RCC_Init.part.0+0x3e>
200a205e:	4505                	li	a0,1
200a2060:	d95fe0ef          	jal	ra,200a0df4 <RCC_UTMIcmd>
200a2064:	4585                	li	a1,1
200a2066:	28b01513          	bseti	a0,zero,0xb
200a206a:	cf5fe0ef          	jal	ra,200a0d5e <RCC_HBPeriphClockCmd>
200a206e:	a3afe06f          	j	200a02a8 <__riscv_restore_0>

200a2072 <USB_TestMode_Deal>:
200a2072:	200d6737          	lui	a4,0x200d6
200a2076:	d0874783          	lbu	a5,-760(a4) # 200d5d08 <USBHS_Test_Flag>
200a207a:	07f7f793          	andi	a5,a5,127
200a207e:	d0f70423          	sb	a5,-760(a4)
200a2082:	200d67b7          	lui	a5,0x200d6
200a2086:	cfc7d683          	lhu	a3,-772(a5) # 200d5cfc <USBHS_SetupReqIndex>
200a208a:	10000713          	li	a4,256
200a208e:	02e69363          	bne	a3,a4,200a20b4 <USB_TestMode_Deal+0x42>
200a2092:	400307b7          	lui	a5,0x40030
200a2096:	33d8                	lbu	a4,5(a5)
200a2098:	0f077713          	andi	a4,a4,240
200a209c:	b3d8                	sb	a4,5(a5)
200a209e:	33d8                	lbu	a4,5(a5)
200a20a0:	00176713          	ori	a4,a4,1
200a20a4:	b3d8                	sb	a4,5(a5)
200a20a6:	40030737          	lui	a4,0x40030
200a20aa:	335c                	lbu	a5,5(a4)
200a20ac:	0807e793          	ori	a5,a5,128
200a20b0:	b35c                	sb	a5,5(a4)
200a20b2:	8082                	ret
200a20b4:	cfc7d683          	lhu	a3,-772(a5) # 4002fcfc <_eusrstack+0x1ff2fcfc>
200a20b8:	20000713          	li	a4,512
200a20bc:	00e69c63          	bne	a3,a4,200a20d4 <USB_TestMode_Deal+0x62>
200a20c0:	400307b7          	lui	a5,0x40030
200a20c4:	33d8                	lbu	a4,5(a5)
200a20c6:	0f077713          	andi	a4,a4,240
200a20ca:	b3d8                	sb	a4,5(a5)
200a20cc:	33d8                	lbu	a4,5(a5)
200a20ce:	00276713          	ori	a4,a4,2
200a20d2:	bfc9                	j	200a20a4 <USB_TestMode_Deal+0x32>
200a20d4:	cfc7d683          	lhu	a3,-772(a5) # 4002fcfc <_eusrstack+0x1ff2fcfc>
200a20d8:	30000713          	li	a4,768
200a20dc:	00e69c63          	bne	a3,a4,200a20f4 <USB_TestMode_Deal+0x82>
200a20e0:	400307b7          	lui	a5,0x40030
200a20e4:	33d8                	lbu	a4,5(a5)
200a20e6:	0f077713          	andi	a4,a4,240
200a20ea:	b3d8                	sb	a4,5(a5)
200a20ec:	33d8                	lbu	a4,5(a5)
200a20ee:	00876713          	ori	a4,a4,8
200a20f2:	bf4d                	j	200a20a4 <USB_TestMode_Deal+0x32>
200a20f4:	cfc7d703          	lhu	a4,-772(a5) # 4002fcfc <_eusrstack+0x1ff2fcfc>
200a20f8:	40000793          	li	a5,1024
200a20fc:	faf715e3          	bne	a4,a5,200a20a6 <USB_TestMode_Deal+0x34>
200a2100:	400307b7          	lui	a5,0x40030
200a2104:	33d8                	lbu	a4,5(a5)
200a2106:	0f077713          	andi	a4,a4,240
200a210a:	b3d8                	sb	a4,5(a5)
200a210c:	200c1737          	lui	a4,0x200c1
200a2110:	7cc70713          	addi	a4,a4,1996 # 200c17cc <IFTest_Buf>
200a2114:	c7f8                	sw	a4,76(a5)
200a2116:	03500713          	li	a4,53
200a211a:	0ae79623          	sh	a4,172(a5) # 400300ac <_eusrstack+0x1ff300ac>
200a211e:	4709                	li	a4,2
200a2120:	0ae78723          	sb	a4,174(a5)
200a2124:	33d8                	lbu	a4,5(a5)
200a2126:	00476713          	ori	a4,a4,4
200a212a:	bfad                	j	200a20a4 <USB_TestMode_Deal+0x32>

200a212c <USBHS_Device_Endp_Init>:
200a212c:	400307b7          	lui	a5,0x40030
200a2130:	474d                	li	a4,19
200a2132:	ab9a                	sh	a4,16(a5)
200a2134:	470d                	li	a4,3
200a2136:	abba                	sh	a4,18(a5)
200a2138:	04000713          	li	a4,64
200a213c:	cff8                	sw	a4,92(a5)
200a213e:	20000713          	li	a4,512
200a2142:	d3b8                	sw	a4,96(a5)
200a2144:	200d8737          	lui	a4,0x200d8
200a2148:	f5070713          	addi	a4,a4,-176 # 200d7f50 <USBHS_EP0_Buf>
200a214c:	d398                	sw	a4,32(a5)
200a214e:	200d6737          	lui	a4,0x200d6
200a2152:	d5070713          	addi	a4,a4,-688 # 200d5d50 <Data_Buffer>
200a2156:	d3d8                	sw	a4,36(a5)
200a2158:	c3b8                	sw	a4,64(a5)
200a215a:	0bc7d703          	lhu	a4,188(a5) # 400300bc <_eusrstack+0x1ff300bc>
200a215e:	00276713          	ori	a4,a4,2
200a2162:	0ae79e23          	sh	a4,188(a5)
200a2166:	08079e23          	sh	zero,156(a5)
200a216a:	08078f23          	sb	zero,158(a5)
200a216e:	4709                	li	a4,2
200a2170:	08e78fa3          	sb	a4,159(a5)
200a2174:	0ae781a3          	sb	a4,163(a5)
200a2178:	0a079023          	sh	zero,160(a5)
200a217c:	0a078123          	sb	zero,162(a5)
200a2180:	8082                	ret

200a2182 <USBHS_RCC_Init>:
200a2182:	902fe2ef          	jal	t0,200a0284 <__riscv_save_0>
200a2186:	c501                	beqz	a0,200a218e <USBHS_RCC_Init+0xc>
200a2188:	3d49                	jal	200a201a <USBHS_RCC_Init.part.0>
200a218a:	91efe06f          	j	200a02a8 <__riscv_restore_0>
200a218e:	4581                	li	a1,0
200a2190:	28b01513          	bseti	a0,zero,0xb
200a2194:	bcbfe0ef          	jal	ra,200a0d5e <RCC_HBPeriphClockCmd>
200a2198:	4501                	li	a0,0
200a219a:	c5bfe0ef          	jal	ra,200a0df4 <RCC_UTMIcmd>
200a219e:	400217b7          	lui	a5,0x40021
200a21a2:	479c                	lw	a5,8(a5)
200a21a4:	70000737          	lui	a4,0x70000
200a21a8:	8ff9                	and	a5,a5,a4
200a21aa:	40000737          	lui	a4,0x40000
200a21ae:	fce78ee3          	beq	a5,a4,200a218a <USBHS_RCC_Init+0x8>
200a21b2:	4501                	li	a0,0
200a21b4:	bfffe0ef          	jal	ra,200a0db2 <RCC_USBHS_PLLCmd>
200a21b8:	bfc9                	j	200a218a <USBHS_RCC_Init+0x8>

200a21ba <USBHS_Device_Init>:
200a21ba:	8cafe2ef          	jal	t0,200a0284 <__riscv_save_0>
200a21be:	c51d                	beqz	a0,200a21ec <USBHS_Device_Init+0x32>
200a21c0:	3da9                	jal	200a201a <USBHS_RCC_Init.part.0>
200a21c2:	40030437          	lui	s0,0x40030
200a21c6:	47a5                	li	a5,9
200a21c8:	a01c                	sb	a5,0(s0)
200a21ca:	05f00793          	li	a5,95
200a21ce:	a03c                	sb	a5,2(s0)
200a21d0:	3fb1                	jal	200a212c <USBHS_Device_Endp_Init>
200a21d2:	4785                	li	a5,1
200a21d4:	b01c                	sb	a5,1(s0)
200a21d6:	fb800793          	li	a5,-72
200a21da:	a01c                	sb	a5,0(s0)
200a21dc:	01000737          	lui	a4,0x1000
200a21e0:	e000e7b7          	lui	a5,0xe000e
200a21e4:	10e7a223          	sw	a4,260(a5) # e000e104 <_eusrstack+0xbff0e104>
200a21e8:	8c0fe06f          	j	200a02a8 <__riscv_restore_0>
200a21ec:	400307b7          	lui	a5,0x40030
200a21f0:	470d                	li	a4,3
200a21f2:	a398                	sb	a4,0(a5)
200a21f4:	e000e7b7          	lui	a5,0xe000e
200a21f8:	01000737          	lui	a4,0x1000
200a21fc:	18e7a223          	sw	a4,388(a5) # e000e184 <_eusrstack+0xbff0e184>
200a2200:	0000100f          	fence.i
200a2204:	3fbd                	jal	200a2182 <USBHS_RCC_Init>
200a2206:	b7cd                	j	200a21e8 <USBHS_Device_Init+0x2e>

200a2208 <USBHS_IRQHandler>:
200a2208:	1101                	addi	sp,sp,-32
200a220a:	cc26                	sw	s1,24(sp)
200a220c:	ce22                	sw	s0,28(sp)
200a220e:	ca4a                	sw	s2,20(sp)
200a2210:	c84e                	sw	s3,16(sp)
200a2212:	c652                	sw	s4,12(sp)
200a2214:	c456                	sw	s5,8(sp)
200a2216:	c25a                	sw	s6,4(sp)
200a2218:	400304b7          	lui	s1,0x40030
200a221c:	2494                	lbu	a3,8(s1)
200a221e:	349c                	lbu	a5,9(s1)
200a2220:	0ff6f713          	zext.b	a4,a3
200a2224:	8ac1                	andi	a3,a3,16
200a2226:	040681e3          	beqz	a3,200a2a68 <USBHS_IRQHandler+0x860>
200a222a:	0ff7f793          	zext.b	a5,a5
200a222e:	0077f713          	andi	a4,a5,7
200a2232:	8bc1                	andi	a5,a5,16
200a2234:	72079563          	bnez	a5,200a295e <USBHS_IRQHandler+0x756>
200a2238:	cf11                	beqz	a4,200a2254 <USBHS_IRQHandler+0x4c>
200a223a:	4785                	li	a5,1
200a223c:	70f70a63          	beq	a4,a5,200a2950 <USBHS_IRQHandler+0x748>
200a2240:	4472                	lw	s0,28(sp)
200a2242:	44e2                	lw	s1,24(sp)
200a2244:	4952                	lw	s2,20(sp)
200a2246:	49c2                	lw	s3,16(sp)
200a2248:	4a32                	lw	s4,12(sp)
200a224a:	4aa2                	lw	s5,8(sp)
200a224c:	4b12                	lw	s6,4(sp)
200a224e:	6105                	addi	sp,sp,32
200a2250:	30200073          	mret
200a2254:	09f4c783          	lbu	a5,159(s1) # 4003009f <_eusrstack+0x1ff3009f>
200a2258:	200d6937          	lui	s2,0x200d6
200a225c:	200d6437          	lui	s0,0x200d6
200a2260:	07f7f793          	andi	a5,a5,127
200a2264:	08f48fa3          	sb	a5,159(s1)
200a2268:	09f4c783          	lbu	a5,159(s1)
200a226c:	8ba1                	andi	a5,a5,8
200a226e:	66078063          	beqz	a5,200a28ce <USBHS_IRQHandler+0x6c6>
200a2272:	200d8ab7          	lui	s5,0x200d8
200a2276:	f50a8713          	addi	a4,s5,-176 # 200d7f50 <USBHS_EP0_Buf>
200a227a:	231c                	lbu	a5,0(a4)
200a227c:	200d65b7          	lui	a1,0x200d6
200a2280:	2336                	lhu	a3,2(a4)
200a2282:	d0f90023          	sb	a5,-768(s2) # 200d5d00 <USBHS_SetupReqType>
200a2286:	331c                	lbu	a5,1(a4)
200a2288:	200d6637          	lui	a2,0x200d6
200a228c:	d0f580a3          	sb	a5,-767(a1) # 200d5d01 <USBHS_SetupReqCode>
200a2290:	237e                	lhu	a5,6(a4)
200a2292:	235a                	lhu	a4,4(a4)
200a2294:	cef41d23          	sh	a5,-774(s0) # 200d5cfa <USBHS_SetupReqLen>
200a2298:	200d67b7          	lui	a5,0x200d6
200a229c:	ced79f23          	sh	a3,-770(a5) # 200d5cfe <USBHS_SetupReqValue>
200a22a0:	cee61e23          	sh	a4,-772(a2) # 200d5cfc <USBHS_SetupReqIndex>
200a22a4:	d0094a03          	lbu	s4,-768(s2)
200a22a8:	f50a8693          	addi	a3,s5,-176
200a22ac:	060a7a13          	andi	s4,s4,96
200a22b0:	080a0c63          	beqz	s4,200a2348 <USBHS_IRQHandler+0x140>
200a22b4:	d0094783          	lbu	a5,-768(s2)
200a22b8:	60479793          	sext.b	a5,a5
200a22bc:	0607d363          	bgez	a5,200a2322 <USBHS_IRQHandler+0x11a>
200a22c0:	200d6a37          	lui	s4,0x200d6
200a22c4:	d04a0513          	addi	a0,s4,-764 # 200d5d04 <pUSBHS_Descr>
200a22c8:	deaff0ef          	jal	ra,200a18b2 <USBHS_UVC_NonStandardReq>
200a22cc:	0ff57513          	zext.b	a0,a0
200a22d0:	0ff00793          	li	a5,255
200a22d4:	06f50263          	beq	a0,a5,200a2338 <USBHS_IRQHandler+0x130>
200a22d8:	cfa45703          	lhu	a4,-774(s0)
200a22dc:	03f00793          	li	a5,63
200a22e0:	04000493          	li	s1,64
200a22e4:	00e7e663          	bltu	a5,a4,200a22f0 <USBHS_IRQHandler+0xe8>
200a22e8:	cfa45483          	lhu	s1,-774(s0)
200a22ec:	0804c4b3          	zext.h	s1,s1
200a22f0:	d04a2983          	lw	s3,-764(s4)
200a22f4:	8626                	mv	a2,s1
200a22f6:	f50a8513          	addi	a0,s5,-176
200a22fa:	85ce                	mv	a1,s3
200a22fc:	99a6                	add	s3,s3,s1
200a22fe:	fb7fd0ef          	jal	ra,200a02b4 <memcpy>
200a2302:	d13a2223          	sw	s3,-764(s4)
200a2306:	d0094783          	lbu	a5,-768(s2)
200a230a:	60479793          	sext.b	a5,a5
200a230e:	5a07d463          	bgez	a5,200a28b6 <USBHS_IRQHandler+0x6ae>
200a2312:	cfa45783          	lhu	a5,-774(s0)
200a2316:	56079763          	bnez	a5,200a2884 <USBHS_IRQHandler+0x67c>
200a231a:	400307b7          	lui	a5,0x40030
200a231e:	4719                	li	a4,6
200a2320:	a00d                	j	200a2342 <USBHS_IRQHandler+0x13a>
200a2322:	d0094703          	lbu	a4,-768(s2)
200a2326:	02100793          	li	a5,33
200a232a:	00f71763          	bne	a4,a5,200a2338 <USBHS_IRQHandler+0x130>
200a232e:	d015c703          	lbu	a4,-767(a1)
200a2332:	4785                	li	a5,1
200a2334:	fcf709e3          	beq	a4,a5,200a2306 <USBHS_IRQHandler+0xfe>
200a2338:	400307b7          	lui	a5,0x40030
200a233c:	4715                	li	a4,5
200a233e:	08e78f23          	sb	a4,158(a5) # 4003009e <_eusrstack+0x1ff3009e>
200a2342:	08e78fa3          	sb	a4,159(a5)
200a2346:	bded                	j	200a2240 <USBHS_IRQHandler+0x38>
200a2348:	d015c583          	lbu	a1,-767(a1)
200a234c:	452d                	li	a0,11
200a234e:	0ff5f713          	zext.b	a4,a1
200a2352:	feb563e3          	bltu	a0,a1,200a2338 <USBHS_IRQHandler+0x130>
200a2356:	200a95b7          	lui	a1,0x200a9
200a235a:	53058593          	addi	a1,a1,1328 # 200a9530 <yuv_uxga+0x148>
200a235e:	20b74733          	sh2add	a4,a4,a1
200a2362:	4318                	lw	a4,0(a4)
200a2364:	8702                	jr	a4
200a2366:	cfe7d703          	lhu	a4,-770(a5)
200a236a:	4699                	li	a3,6
200a236c:	200d69b7          	lui	s3,0x200d6
200a2370:	8321                	srli	a4,a4,0x8
200a2372:	177d                	addi	a4,a4,-1 # ffffff <_data_lma+0xfc5e57>
200a2374:	0ff77713          	zext.b	a4,a4
200a2378:	0ee6e363          	bltu	a3,a4,200a245e <USBHS_IRQHandler+0x256>
200a237c:	200a96b7          	lui	a3,0x200a9
200a2380:	56068693          	addi	a3,a3,1376 # 200a9560 <yuv_uxga+0x178>
200a2384:	20d74733          	sh2add	a4,a4,a3
200a2388:	4318                	lw	a4,0(a4)
200a238a:	8702                	jr	a4
200a238c:	200aa7b7          	lui	a5,0x200aa
200a2390:	ab078793          	addi	a5,a5,-1360 # 200a9ab0 <MyDevDescr>
200a2394:	2384                	lbu	s1,0(a5)
200a2396:	d0f9a223          	sw	a5,-764(s3) # 200d5d04 <pUSBHS_Descr>
200a239a:	a091                	j	200a23de <USBHS_IRQHandler+0x1d6>
200a239c:	400307b7          	lui	a5,0x40030
200a23a0:	27b8                	lbu	a4,10(a5)
200a23a2:	200d66b7          	lui	a3,0x200d6
200a23a6:	200d67b7          	lui	a5,0x200d6
200a23aa:	60471713          	sext.b	a4,a4
200a23ae:	06075a63          	bgez	a4,200a2422 <USBHS_IRQHandler+0x21a>
200a23b2:	4705                	li	a4,1
200a23b4:	cee78a23          	sb	a4,-780(a5) # 200d5cf4 <USBHS_DevSpeed>
200a23b8:	20000713          	li	a4,512
200a23bc:	cee69b23          	sh	a4,-778(a3) # 200d5cf6 <USBHS_DevMaxPackLen>
200a23c0:	cf47c703          	lbu	a4,-780(a5)
200a23c4:	4785                	li	a5,1
200a23c6:	06f71363          	bne	a4,a5,200a242c <USBHS_IRQHandler+0x224>
200a23ca:	200aa7b7          	lui	a5,0x200aa
200a23ce:	8c478793          	addi	a5,a5,-1852 # 200a98c4 <MyCfgDescr_HS>
200a23d2:	33a4                	lbu	s1,3(a5)
200a23d4:	23b8                	lbu	a4,2(a5)
200a23d6:	d0f9a223          	sw	a5,-764(s3)
200a23da:	04a2                	slli	s1,s1,0x8
200a23dc:	8cd9                	or	s1,s1,a4
200a23de:	cfa45783          	lhu	a5,-774(s0)
200a23e2:	00f4f463          	bgeu	s1,a5,200a23ea <USBHS_IRQHandler+0x1e2>
200a23e6:	ce941d23          	sh	s1,-774(s0)
200a23ea:	cfa45703          	lhu	a4,-774(s0)
200a23ee:	03f00793          	li	a5,63
200a23f2:	04000493          	li	s1,64
200a23f6:	00e7e663          	bltu	a5,a4,200a2402 <USBHS_IRQHandler+0x1fa>
200a23fa:	cfa45483          	lhu	s1,-774(s0)
200a23fe:	0804c4b3          	zext.h	s1,s1
200a2402:	d049ab03          	lw	s6,-764(s3)
200a2406:	8626                	mv	a2,s1
200a2408:	f50a8513          	addi	a0,s5,-176
200a240c:	85da                	mv	a1,s6
200a240e:	ea7fd0ef          	jal	ra,200a02b4 <memcpy>
200a2412:	9b26                	add	s6,s6,s1
200a2414:	d169a223          	sw	s6,-764(s3)
200a2418:	0ff00793          	li	a5,255
200a241c:	f0fa0ee3          	beq	s4,a5,200a2338 <USBHS_IRQHandler+0x130>
200a2420:	b5dd                	j	200a2306 <USBHS_IRQHandler+0xfe>
200a2422:	ce078a23          	sb	zero,-780(a5)
200a2426:	04000713          	li	a4,64
200a242a:	bf49                	j	200a23bc <USBHS_IRQHandler+0x1b4>
200a242c:	200aa7b7          	lui	a5,0x200aa
200a2430:	88878793          	addi	a5,a5,-1912 # 200a9888 <MyCfgDescr_FS>
200a2434:	bf79                	j	200a23d2 <USBHS_IRQHandler+0x1ca>
200a2436:	cfe7d783          	lhu	a5,-770(a5)
200a243a:	4709                	li	a4,2
200a243c:	0ff7f793          	zext.b	a5,a5
200a2440:	02e78863          	beq	a5,a4,200a2470 <USBHS_IRQHandler+0x268>
200a2444:	00f76a63          	bltu	a4,a5,200a2458 <USBHS_IRQHandler+0x250>
200a2448:	ef99                	bnez	a5,200a2466 <USBHS_IRQHandler+0x25e>
200a244a:	89018793          	addi	a5,gp,-1904 # 200c1c88 <MyLangDescr>
200a244e:	2384                	lbu	s1,0(a5)
200a2450:	d0f9a223          	sw	a5,-764(s3)
200a2454:	4a01                	li	s4,0
200a2456:	b761                	j	200a23de <USBHS_IRQHandler+0x1d6>
200a2458:	470d                	li	a4,3
200a245a:	02e78063          	beq	a5,a4,200a247a <USBHS_IRQHandler+0x272>
200a245e:	4481                	li	s1,0
200a2460:	0ff00a13          	li	s4,255
200a2464:	bfad                	j	200a23de <USBHS_IRQHandler+0x1d6>
200a2466:	200a97b7          	lui	a5,0x200a9
200a246a:	64c78793          	addi	a5,a5,1612 # 200a964c <MyManuInfo>
200a246e:	b71d                	j	200a2394 <USBHS_IRQHandler+0x18c>
200a2470:	200a97b7          	lui	a5,0x200a9
200a2474:	62c78793          	addi	a5,a5,1580 # 200a962c <MyProdInfo>
200a2478:	bf31                	j	200a2394 <USBHS_IRQHandler+0x18c>
200a247a:	200a97b7          	lui	a5,0x200a9
200a247e:	61478793          	addi	a5,a5,1556 # 200a9614 <MySerNumInfo>
200a2482:	bf09                	j	200a2394 <USBHS_IRQHandler+0x18c>
200a2484:	200aa7b7          	lui	a5,0x200aa
200a2488:	87c78793          	addi	a5,a5,-1924 # 200a987c <MyQuaDesc>
200a248c:	b721                	j	200a2394 <USBHS_IRQHandler+0x18c>
200a248e:	200d67b7          	lui	a5,0x200d6
200a2492:	cf47c683          	lbu	a3,-780(a5) # 200d5cf4 <USBHS_DevSpeed>
200a2496:	4705                	li	a4,1
200a2498:	02e69d63          	bne	a3,a4,200a24d2 <USBHS_IRQHandler+0x2ca>
200a249c:	200aa7b7          	lui	a5,0x200aa
200a24a0:	88878793          	addi	a5,a5,-1912 # 200a9888 <MyCfgDescr_FS>
200a24a4:	33a4                	lbu	s1,3(a5)
200a24a6:	23b8                	lbu	a4,2(a5)
200a24a8:	200aa5b7          	lui	a1,0x200aa
200a24ac:	04a2                	slli	s1,s1,0x8
200a24ae:	8cd9                	or	s1,s1,a4
200a24b0:	200c2537          	lui	a0,0x200c2
200a24b4:	ffe48613          	addi	a2,s1,-2
200a24b8:	88a58593          	addi	a1,a1,-1910 # 200a988a <MyCfgDescr_FS+0x2>
200a24bc:	80650513          	addi	a0,a0,-2042 # 200c1806 <TAB_USB_HS_OSC_DESC+0x2>
200a24c0:	df5fd0ef          	jal	ra,200a02b4 <memcpy>
200a24c4:	200c27b7          	lui	a5,0x200c2
200a24c8:	80478793          	addi	a5,a5,-2044 # 200c1804 <TAB_USB_HS_OSC_DESC>
200a24cc:	d0f9a223          	sw	a5,-764(s3)
200a24d0:	b739                	j	200a23de <USBHS_IRQHandler+0x1d6>
200a24d2:	cf47c783          	lbu	a5,-780(a5)
200a24d6:	0ff7fa13          	zext.b	s4,a5
200a24da:	f3d1                	bnez	a5,200a245e <USBHS_IRQHandler+0x256>
200a24dc:	200aa7b7          	lui	a5,0x200aa
200a24e0:	8c478793          	addi	a5,a5,-1852 # 200a98c4 <MyCfgDescr_HS>
200a24e4:	33a4                	lbu	s1,3(a5)
200a24e6:	23b8                	lbu	a4,2(a5)
200a24e8:	200aa5b7          	lui	a1,0x200aa
200a24ec:	04a2                	slli	s1,s1,0x8
200a24ee:	8cd9                	or	s1,s1,a4
200a24f0:	200c2537          	lui	a0,0x200c2
200a24f4:	ffe48613          	addi	a2,s1,-2
200a24f8:	8c658593          	addi	a1,a1,-1850 # 200a98c6 <MyCfgDescr_HS+0x2>
200a24fc:	84250513          	addi	a0,a0,-1982 # 200c1842 <TAB_USB_FS_OSC_DESC+0x2>
200a2500:	db5fd0ef          	jal	ra,200a02b4 <memcpy>
200a2504:	200c27b7          	lui	a5,0x200c2
200a2508:	84078793          	addi	a5,a5,-1984 # 200c1840 <TAB_USB_FS_OSC_DESC>
200a250c:	b7c1                	j	200a24cc <USBHS_IRQHandler+0x2c4>
200a250e:	cfe7d783          	lhu	a5,-770(a5)
200a2512:	200d6737          	lui	a4,0x200d6
200a2516:	0ff7f793          	zext.b	a5,a5
200a251a:	cef70c23          	sb	a5,-776(a4) # 200d5cf8 <USBHS_DevAddr>
200a251e:	b3e5                	j	200a2306 <USBHS_IRQHandler+0xfe>
200a2520:	200d67b7          	lui	a5,0x200d6
200a2524:	cf97c783          	lbu	a5,-775(a5) # 200d5cf9 <USBHS_DevConfig>
200a2528:	a29c                	sb	a5,0(a3)
200a252a:	cfa45703          	lhu	a4,-774(s0)
200a252e:	4785                	li	a5,1
200a2530:	dce7fbe3          	bgeu	a5,a4,200a2306 <USBHS_IRQHandler+0xfe>
200a2534:	cef41d23          	sh	a5,-774(s0)
200a2538:	b3f9                	j	200a2306 <USBHS_IRQHandler+0xfe>
200a253a:	cfe7d783          	lhu	a5,-770(a5)
200a253e:	200d6737          	lui	a4,0x200d6
200a2542:	0ff7f793          	zext.b	a5,a5
200a2546:	cef70ca3          	sb	a5,-775(a4) # 200d5cf9 <USBHS_DevConfig>
200a254a:	200d67b7          	lui	a5,0x200d6
200a254e:	4705                	li	a4,1
200a2550:	cee78923          	sb	a4,-782(a5) # 200d5cf2 <USBHS_DevEnumStatus>
200a2554:	200d67b7          	lui	a5,0x200d6
200a2558:	4711                	li	a4,4
200a255a:	d0e78823          	sb	a4,-752(a5) # 200d5d10 <USB_Enum_Status>
200a255e:	b365                	j	200a2306 <USBHS_IRQHandler+0xfe>
200a2560:	d0094703          	lbu	a4,-768(s2)
200a2564:	8b7d                	andi	a4,a4,31
200a2566:	e30d                	bnez	a4,200a2588 <USBHS_IRQHandler+0x380>
200a2568:	cfe7d783          	lhu	a5,-770(a5)
200a256c:	4705                	li	a4,1
200a256e:	0ff7f793          	zext.b	a5,a5
200a2572:	dce793e3          	bne	a5,a4,200a2338 <USBHS_IRQHandler+0x130>
200a2576:	200d6737          	lui	a4,0x200d6
200a257a:	cf374783          	lbu	a5,-781(a4) # 200d5cf3 <USBHS_DevSleepStatus>
200a257e:	0fe7f793          	andi	a5,a5,254
200a2582:	cef709a3          	sb	a5,-781(a4)
200a2586:	b341                	j	200a2306 <USBHS_IRQHandler+0xfe>
200a2588:	d0094703          	lbu	a4,-768(s2)
200a258c:	4689                	li	a3,2
200a258e:	8b7d                	andi	a4,a4,31
200a2590:	dad714e3          	bne	a4,a3,200a2338 <USBHS_IRQHandler+0x130>
200a2594:	cfe7d783          	lhu	a5,-770(a5)
200a2598:	0ff7f793          	zext.b	a5,a5
200a259c:	d8079ee3          	bnez	a5,200a2338 <USBHS_IRQHandler+0x130>
200a25a0:	cfc65783          	lhu	a5,-772(a2)
200a25a4:	08100693          	li	a3,129
200a25a8:	0ff7f793          	zext.b	a5,a5
200a25ac:	02d78f63          	beq	a5,a3,200a25ea <USBHS_IRQHandler+0x3e2>
200a25b0:	02f6e063          	bltu	a3,a5,200a25d0 <USBHS_IRQHandler+0x3c8>
200a25b4:	468d                	li	a3,3
200a25b6:	02d78f63          	beq	a5,a3,200a25f4 <USBHS_IRQHandler+0x3ec>
200a25ba:	4695                	li	a3,5
200a25bc:	04d78663          	beq	a5,a3,200a2608 <USBHS_IRQHandler+0x400>
200a25c0:	4685                	li	a3,1
200a25c2:	d6d79be3          	bne	a5,a3,200a2338 <USBHS_IRQHandler+0x130>
200a25c6:	400307b7          	lui	a5,0x40030
200a25ca:	0ae781a3          	sb	a4,163(a5) # 400300a3 <_eusrstack+0x1ff300a3>
200a25ce:	bb25                	j	200a2306 <USBHS_IRQHandler+0xfe>
200a25d0:	08400713          	li	a4,132
200a25d4:	02e78563          	beq	a5,a4,200a25fe <USBHS_IRQHandler+0x3f6>
200a25d8:	08600713          	li	a4,134
200a25dc:	d4e79ee3          	bne	a5,a4,200a2338 <USBHS_IRQHandler+0x130>
200a25e0:	400307b7          	lui	a5,0x40030
200a25e4:	0a078b23          	sb	zero,182(a5) # 400300b6 <_eusrstack+0x1ff300b6>
200a25e8:	bb39                	j	200a2306 <USBHS_IRQHandler+0xfe>
200a25ea:	400307b7          	lui	a5,0x40030
200a25ee:	0a078123          	sb	zero,162(a5) # 400300a2 <_eusrstack+0x1ff300a2>
200a25f2:	bb11                	j	200a2306 <USBHS_IRQHandler+0xfe>
200a25f4:	400307b7          	lui	a5,0x40030
200a25f8:	0ae785a3          	sb	a4,171(a5) # 400300ab <_eusrstack+0x1ff300ab>
200a25fc:	b329                	j	200a2306 <USBHS_IRQHandler+0xfe>
200a25fe:	400307b7          	lui	a5,0x40030
200a2602:	0a078723          	sb	zero,174(a5) # 400300ae <_eusrstack+0x1ff300ae>
200a2606:	b301                	j	200a2306 <USBHS_IRQHandler+0xfe>
200a2608:	400307b7          	lui	a5,0x40030
200a260c:	0ae789a3          	sb	a4,179(a5) # 400300b3 <_eusrstack+0x1ff300b3>
200a2610:	b9dd                	j	200a2306 <USBHS_IRQHandler+0xfe>
200a2612:	d0094703          	lbu	a4,-768(s2)
200a2616:	8b7d                	andi	a4,a4,31
200a2618:	e345                	bnez	a4,200a26b8 <USBHS_IRQHandler+0x4b0>
200a261a:	cfe7d703          	lhu	a4,-770(a5)
200a261e:	4685                	li	a3,1
200a2620:	0ff77713          	zext.b	a4,a4
200a2624:	04d71263          	bne	a4,a3,200a2668 <USBHS_IRQHandler+0x460>
200a2628:	200d66b7          	lui	a3,0x200d6
200a262c:	cf46c783          	lbu	a5,-780(a3) # 200d5cf4 <USBHS_DevSpeed>
200a2630:	00e79963          	bne	a5,a4,200a2642 <USBHS_IRQHandler+0x43a>
200a2634:	200aa7b7          	lui	a5,0x200aa
200a2638:	8cb7c783          	lbu	a5,-1845(a5) # 200a98cb <MyCfgDescr_HS+0x7>
200a263c:	0207f793          	andi	a5,a5,32
200a2640:	ef89                	bnez	a5,200a265a <USBHS_IRQHandler+0x452>
200a2642:	cf46c783          	lbu	a5,-780(a3)
200a2646:	ce0799e3          	bnez	a5,200a2338 <USBHS_IRQHandler+0x130>
200a264a:	200aa7b7          	lui	a5,0x200aa
200a264e:	88f7c783          	lbu	a5,-1905(a5) # 200a988f <MyCfgDescr_FS+0x7>
200a2652:	0207f793          	andi	a5,a5,32
200a2656:	ce0781e3          	beqz	a5,200a2338 <USBHS_IRQHandler+0x130>
200a265a:	200d6737          	lui	a4,0x200d6
200a265e:	cf374783          	lbu	a5,-781(a4) # 200d5cf3 <USBHS_DevSleepStatus>
200a2662:	0017e793          	ori	a5,a5,1
200a2666:	bf31                	j	200a2582 <USBHS_IRQHandler+0x37a>
200a2668:	cfe7d783          	lhu	a5,-770(a5)
200a266c:	4709                	li	a4,2
200a266e:	0ff7f793          	zext.b	a5,a5
200a2672:	cce793e3          	bne	a5,a4,200a2338 <USBHS_IRQHandler+0x130>
200a2676:	cfc65703          	lhu	a4,-772(a2)
200a267a:	10000793          	li	a5,256
200a267e:	02f70463          	beq	a4,a5,200a26a6 <USBHS_IRQHandler+0x49e>
200a2682:	cfc65703          	lhu	a4,-772(a2)
200a2686:	20000793          	li	a5,512
200a268a:	00f70e63          	beq	a4,a5,200a26a6 <USBHS_IRQHandler+0x49e>
200a268e:	cfc65703          	lhu	a4,-772(a2)
200a2692:	30000793          	li	a5,768
200a2696:	00f70863          	beq	a4,a5,200a26a6 <USBHS_IRQHandler+0x49e>
200a269a:	cfc65703          	lhu	a4,-772(a2)
200a269e:	40000793          	li	a5,1024
200a26a2:	c6f712e3          	bne	a4,a5,200a2306 <USBHS_IRQHandler+0xfe>
200a26a6:	200d6737          	lui	a4,0x200d6
200a26aa:	d0874783          	lbu	a5,-760(a4) # 200d5d08 <USBHS_Test_Flag>
200a26ae:	0807e793          	ori	a5,a5,128
200a26b2:	d0f70423          	sb	a5,-760(a4)
200a26b6:	b981                	j	200a2306 <USBHS_IRQHandler+0xfe>
200a26b8:	d0094703          	lbu	a4,-768(s2)
200a26bc:	4689                	li	a3,2
200a26be:	8b7d                	andi	a4,a4,31
200a26c0:	c4d713e3          	bne	a4,a3,200a2306 <USBHS_IRQHandler+0xfe>
200a26c4:	cfe7d783          	lhu	a5,-770(a5)
200a26c8:	0ff7f793          	zext.b	a5,a5
200a26cc:	c2079de3          	bnez	a5,200a2306 <USBHS_IRQHandler+0xfe>
200a26d0:	cfc65783          	lhu	a5,-772(a2)
200a26d4:	08100713          	li	a4,129
200a26d8:	0ff7f793          	zext.b	a5,a5
200a26dc:	04e78b63          	beq	a5,a4,200a2732 <USBHS_IRQHandler+0x52a>
200a26e0:	02f76663          	bltu	a4,a5,200a270c <USBHS_IRQHandler+0x504>
200a26e4:	470d                	li	a4,3
200a26e6:	06e78163          	beq	a5,a4,200a2748 <USBHS_IRQHandler+0x540>
200a26ea:	4715                	li	a4,5
200a26ec:	08e78463          	beq	a5,a4,200a2774 <USBHS_IRQHandler+0x56c>
200a26f0:	4705                	li	a4,1
200a26f2:	c4e793e3          	bne	a5,a4,200a2338 <USBHS_IRQHandler+0x130>
200a26f6:	40030737          	lui	a4,0x40030
200a26fa:	0a374783          	lbu	a5,163(a4) # 400300a3 <_eusrstack+0x1ff300a3>
200a26fe:	0fc7f793          	andi	a5,a5,252
200a2702:	0017e793          	ori	a5,a5,1
200a2706:	0af701a3          	sb	a5,163(a4)
200a270a:	bef5                	j	200a2306 <USBHS_IRQHandler+0xfe>
200a270c:	08400713          	li	a4,132
200a2710:	04e78763          	beq	a5,a4,200a275e <USBHS_IRQHandler+0x556>
200a2714:	08600713          	li	a4,134
200a2718:	c2e790e3          	bne	a5,a4,200a2338 <USBHS_IRQHandler+0x130>
200a271c:	40030737          	lui	a4,0x40030
200a2720:	0b674783          	lbu	a5,182(a4) # 400300b6 <_eusrstack+0x1ff300b6>
200a2724:	0fc7f793          	andi	a5,a5,252
200a2728:	0017e793          	ori	a5,a5,1
200a272c:	0af70b23          	sb	a5,182(a4)
200a2730:	bed9                	j	200a2306 <USBHS_IRQHandler+0xfe>
200a2732:	40030737          	lui	a4,0x40030
200a2736:	0a274783          	lbu	a5,162(a4) # 400300a2 <_eusrstack+0x1ff300a2>
200a273a:	0fc7f793          	andi	a5,a5,252
200a273e:	0017e793          	ori	a5,a5,1
200a2742:	0af70123          	sb	a5,162(a4)
200a2746:	b6c1                	j	200a2306 <USBHS_IRQHandler+0xfe>
200a2748:	40030737          	lui	a4,0x40030
200a274c:	0ab74783          	lbu	a5,171(a4) # 400300ab <_eusrstack+0x1ff300ab>
200a2750:	0fc7f793          	andi	a5,a5,252
200a2754:	0017e793          	ori	a5,a5,1
200a2758:	0af705a3          	sb	a5,171(a4)
200a275c:	b66d                	j	200a2306 <USBHS_IRQHandler+0xfe>
200a275e:	40030737          	lui	a4,0x40030
200a2762:	0ae74783          	lbu	a5,174(a4) # 400300ae <_eusrstack+0x1ff300ae>
200a2766:	0fc7f793          	andi	a5,a5,252
200a276a:	0017e793          	ori	a5,a5,1
200a276e:	0af70723          	sb	a5,174(a4)
200a2772:	be51                	j	200a2306 <USBHS_IRQHandler+0xfe>
200a2774:	40030737          	lui	a4,0x40030
200a2778:	0b374783          	lbu	a5,179(a4) # 400300b3 <_eusrstack+0x1ff300b3>
200a277c:	0fc7f793          	andi	a5,a5,252
200a2780:	0017e793          	ori	a5,a5,1
200a2784:	0af709a3          	sb	a5,179(a4)
200a2788:	bebd                	j	200a2306 <USBHS_IRQHandler+0xfe>
200a278a:	00068023          	sb	zero,0(a3)
200a278e:	bb71                	j	200a252a <USBHS_IRQHandler+0x322>
200a2790:	a4bfe0ef          	jal	ra,200a11da <HS_CtrlCamera>
200a2794:	be8d                	j	200a2306 <USBHS_IRQHandler+0xfe>
200a2796:	d0094783          	lbu	a5,-768(s2)
200a279a:	f40a9823          	sh	zero,-176(s5)
200a279e:	4709                	li	a4,2
200a27a0:	8bfd                	andi	a5,a5,31
200a27a2:	0ae79e63          	bne	a5,a4,200a285e <USBHS_IRQHandler+0x656>
200a27a6:	cfc65703          	lhu	a4,-772(a2)
200a27aa:	08100613          	li	a2,129
200a27ae:	0ff77713          	zext.b	a4,a4
200a27b2:	06c70563          	beq	a4,a2,200a281c <USBHS_IRQHandler+0x614>
200a27b6:	02e66363          	bltu	a2,a4,200a27dc <USBHS_IRQHandler+0x5d4>
200a27ba:	460d                	li	a2,3
200a27bc:	06c70d63          	beq	a4,a2,200a2836 <USBHS_IRQHandler+0x62e>
200a27c0:	4615                	li	a2,5
200a27c2:	08c70463          	beq	a4,a2,200a284a <USBHS_IRQHandler+0x642>
200a27c6:	4785                	li	a5,1
200a27c8:	04f70263          	beq	a4,a5,200a280c <USBHS_IRQHandler+0x604>
200a27cc:	cfa45703          	lhu	a4,-774(s0)
200a27d0:	4789                	li	a5,2
200a27d2:	b6e7f3e3          	bgeu	a5,a4,200a2338 <USBHS_IRQHandler+0x130>
200a27d6:	cef41d23          	sh	a5,-774(s0)
200a27da:	beb9                	j	200a2338 <USBHS_IRQHandler+0x130>
200a27dc:	08400613          	li	a2,132
200a27e0:	06c70063          	beq	a4,a2,200a2840 <USBHS_IRQHandler+0x638>
200a27e4:	08600613          	li	a2,134
200a27e8:	06c70663          	beq	a4,a2,200a2854 <USBHS_IRQHandler+0x64c>
200a27ec:	08200613          	li	a2,130
200a27f0:	fcc71ee3          	bne	a4,a2,200a27cc <USBHS_IRQHandler+0x5c4>
200a27f4:	40030737          	lui	a4,0x40030
200a27f8:	0a674703          	lbu	a4,166(a4) # 400300a6 <_eusrstack+0x1ff300a6>
200a27fc:	8b0d                	andi	a4,a4,3
200a27fe:	4605                	li	a2,1
200a2800:	00c71363          	bne	a4,a2,200a2806 <USBHS_IRQHandler+0x5fe>
200a2804:	a298                	sb	a4,0(a3)
200a2806:	cfa45703          	lhu	a4,-774(s0)
200a280a:	b31d                	j	200a2530 <USBHS_IRQHandler+0x328>
200a280c:	400307b7          	lui	a5,0x40030
200a2810:	0a37c783          	lbu	a5,163(a5) # 400300a3 <_eusrstack+0x1ff300a3>
200a2814:	8b8d                	andi	a5,a5,3
200a2816:	00e79363          	bne	a5,a4,200a281c <USBHS_IRQHandler+0x614>
200a281a:	a29c                	sb	a5,0(a3)
200a281c:	400307b7          	lui	a5,0x40030
200a2820:	0a27c783          	lbu	a5,162(a5) # 400300a2 <_eusrstack+0x1ff300a2>
200a2824:	4705                	li	a4,1
200a2826:	8b8d                	andi	a5,a5,3
200a2828:	00e79363          	bne	a5,a4,200a282e <USBHS_IRQHandler+0x626>
200a282c:	a29c                	sb	a5,0(a3)
200a282e:	cfa45703          	lhu	a4,-774(s0)
200a2832:	4789                	li	a5,2
200a2834:	b9f5                	j	200a2530 <USBHS_IRQHandler+0x328>
200a2836:	40030737          	lui	a4,0x40030
200a283a:	0ab74703          	lbu	a4,171(a4) # 400300ab <_eusrstack+0x1ff300ab>
200a283e:	bf7d                	j	200a27fc <USBHS_IRQHandler+0x5f4>
200a2840:	40030737          	lui	a4,0x40030
200a2844:	0ae74703          	lbu	a4,174(a4) # 400300ae <_eusrstack+0x1ff300ae>
200a2848:	bf55                	j	200a27fc <USBHS_IRQHandler+0x5f4>
200a284a:	40030737          	lui	a4,0x40030
200a284e:	0b374703          	lbu	a4,179(a4) # 400300b3 <_eusrstack+0x1ff300b3>
200a2852:	b76d                	j	200a27fc <USBHS_IRQHandler+0x5f4>
200a2854:	40030737          	lui	a4,0x40030
200a2858:	0b674703          	lbu	a4,182(a4) # 400300b6 <_eusrstack+0x1ff300b6>
200a285c:	b745                	j	200a27fc <USBHS_IRQHandler+0x5f4>
200a285e:	d0094783          	lbu	a5,-768(s2)
200a2862:	8bfd                	andi	a5,a5,31
200a2864:	cb81                	beqz	a5,200a2874 <USBHS_IRQHandler+0x66c>
200a2866:	cfa45783          	lhu	a5,-774(s0)
200a286a:	a8f77ee3          	bgeu	a4,a5,200a2306 <USBHS_IRQHandler+0xfe>
200a286e:	cee41d23          	sh	a4,-774(s0)
200a2872:	bc51                	j	200a2306 <USBHS_IRQHandler+0xfe>
200a2874:	200d67b7          	lui	a5,0x200d6
200a2878:	cf37c783          	lbu	a5,-781(a5) # 200d5cf3 <USBHS_DevSleepStatus>
200a287c:	8b85                	andi	a5,a5,1
200a287e:	d7e5                	beqz	a5,200a2866 <USBHS_IRQHandler+0x65e>
200a2880:	a298                	sb	a4,0(a3)
200a2882:	b7d5                	j	200a2866 <USBHS_IRQHandler+0x65e>
200a2884:	cfa45703          	lhu	a4,-774(s0)
200a2888:	04000793          	li	a5,64
200a288c:	00e7e663          	bltu	a5,a4,200a2898 <USBHS_IRQHandler+0x690>
200a2890:	cfa45783          	lhu	a5,-774(s0)
200a2894:	0807c7b3          	zext.h	a5,a5
200a2898:	cfa45703          	lhu	a4,-774(s0)
200a289c:	8f1d                	sub	a4,a4,a5
200a289e:	08074733          	zext.h	a4,a4
200a28a2:	cee41d23          	sh	a4,-774(s0)
200a28a6:	40030737          	lui	a4,0x40030
200a28aa:	08f71e23          	sh	a5,156(a4) # 4003009c <_eusrstack+0x1ff3009c>
200a28ae:	4799                	li	a5,6
200a28b0:	08f70f23          	sb	a5,158(a4)
200a28b4:	b271                	j	200a2240 <USBHS_IRQHandler+0x38>
200a28b6:	cfa45783          	lhu	a5,-774(s0)
200a28ba:	a60790e3          	bnez	a5,200a231a <USBHS_IRQHandler+0x112>
200a28be:	400307b7          	lui	a5,0x40030
200a28c2:	08079e23          	sh	zero,156(a5) # 4003009c <_eusrstack+0x1ff3009c>
200a28c6:	4719                	li	a4,6
200a28c8:	08e78f23          	sb	a4,158(a5)
200a28cc:	ba95                	j	200a2240 <USBHS_IRQHandler+0x38>
200a28ce:	08048fa3          	sb	zero,159(s1)
200a28d2:	07c4d783          	lhu	a5,124(s1)
200a28d6:	d0094703          	lbu	a4,-768(s2)
200a28da:	0807c7b3          	zext.h	a5,a5
200a28de:	06077713          	andi	a4,a4,96
200a28e2:	c335                	beqz	a4,200a2946 <USBHS_IRQHandler+0x73e>
200a28e4:	ce041d23          	sh	zero,-774(s0)
200a28e8:	200d6737          	lui	a4,0x200d6
200a28ec:	d0174703          	lbu	a4,-767(a4) # 200d5d01 <USBHS_SetupReqCode>
200a28f0:	4769                	li	a4,26
200a28f2:	04e79a63          	bne	a5,a4,200a2946 <USBHS_IRQHandler+0x73e>
200a28f6:	200d8737          	lui	a4,0x200d8
200a28fa:	f5070713          	addi	a4,a4,-176 # 200d7f50 <USBHS_EP0_Buf>
200a28fe:	200d64b7          	lui	s1,0x200d6
200a2902:	233c                	lbu	a5,2(a4)
200a2904:	3334                	lbu	a3,3(a4)
200a2906:	cf14c703          	lbu	a4,-783(s1) # 200d5cf1 <format.1>
200a290a:	200d6937          	lui	s2,0x200d6
200a290e:	00f71663          	bne	a4,a5,200a291a <USBHS_IRQHandler+0x712>
200a2912:	cf094703          	lbu	a4,-784(s2) # 200d5cf0 <frame.0>
200a2916:	02d70863          	beq	a4,a3,200a2946 <USBHS_IRQHandler+0x73e>
200a291a:	200c0737          	lui	a4,0x200c0
200a291e:	38070713          	addi	a4,a4,896 # 200c0380 <Get_Curr>
200a2922:	a33c                	sb	a5,2(a4)
200a2924:	b334                	sb	a3,3(a4)
200a2926:	80f18e23          	sb	a5,-2020(gp) # 200c1c14 <Formatchange_flag>
200a292a:	81c1c503          	lbu	a0,-2020(gp) # 200c1c14 <Formatchange_flag>
200a292e:	cef488a3          	sb	a5,-783(s1)
200a2932:	ced90823          	sb	a3,-784(s2)
200a2936:	ceaff0ef          	jal	ra,200a1e20 <OV2640_Format_Mode>
200a293a:	cf094583          	lbu	a1,-784(s2)
200a293e:	cf14c503          	lbu	a0,-783(s1)
200a2942:	e0aff0ef          	jal	ra,200a1f4c <OV2640_Change_Resolution>
200a2946:	cfa45783          	lhu	a5,-774(s0)
200a294a:	8e079be3          	bnez	a5,200a2240 <USBHS_IRQHandler+0x38>
200a294e:	bf85                	j	200a28be <USBHS_IRQHandler+0x6b6>
200a2950:	0a34c783          	lbu	a5,163(s1)
200a2954:	07f7f793          	andi	a5,a5,127
200a2958:	0af481a3          	sb	a5,163(s1)
200a295c:	b0d5                	j	200a2240 <USBHS_IRQHandler+0x38>
200a295e:	c70d                	beqz	a4,200a2988 <USBHS_IRQHandler+0x780>
200a2960:	4785                	li	a5,1
200a2962:	8cf71fe3          	bne	a4,a5,200a2240 <USBHS_IRQHandler+0x38>
200a2966:	0a24c783          	lbu	a5,162(s1)
200a296a:	07f7f793          	andi	a5,a5,127
200a296e:	0af48123          	sb	a5,162(s1)
200a2972:	0a24c783          	lbu	a5,162(s1)
200a2976:	0fc7f793          	andi	a5,a5,252
200a297a:	0af48123          	sb	a5,162(s1)
200a297e:	9f1fe0ef          	jal	ra,200a136e <HS_Endp1_ISOHander>
200a2982:	9b3fe0ef          	jal	ra,200a1334 <HS_Endp1_Hander>
200a2986:	b86d                	j	200a2240 <USBHS_IRQHandler+0x38>
200a2988:	09e4c783          	lbu	a5,158(s1)
200a298c:	200d6937          	lui	s2,0x200d6
200a2990:	07f7f793          	andi	a5,a5,127
200a2994:	08f48f23          	sb	a5,158(s1)
200a2998:	cfa95783          	lhu	a5,-774(s2) # 200d5cfa <USBHS_SetupReqLen>
200a299c:	e781                	bnez	a5,200a29a4 <USBHS_IRQHandler+0x79c>
200a299e:	4799                	li	a5,6
200a29a0:	08f48fa3          	sb	a5,159(s1)
200a29a4:	200d67b7          	lui	a5,0x200d6
200a29a8:	d007c783          	lbu	a5,-768(a5) # 200d5d00 <USBHS_SetupReqType>
200a29ac:	0607f793          	andi	a5,a5,96
200a29b0:	e3c9                	bnez	a5,200a2a32 <USBHS_IRQHandler+0x82a>
200a29b2:	200d67b7          	lui	a5,0x200d6
200a29b6:	d017c783          	lbu	a5,-767(a5) # 200d5d01 <USBHS_SetupReqCode>
200a29ba:	4695                	li	a3,5
200a29bc:	0ff7f713          	zext.b	a4,a5
200a29c0:	08d78563          	beq	a5,a3,200a2a4a <USBHS_IRQHandler+0x842>
200a29c4:	4799                	li	a5,6
200a29c6:	08f71c63          	bne	a4,a5,200a2a5e <USBHS_IRQHandler+0x856>
200a29ca:	cfa95703          	lhu	a4,-774(s2)
200a29ce:	03f00793          	li	a5,63
200a29d2:	04000413          	li	s0,64
200a29d6:	00e7e663          	bltu	a5,a4,200a29e2 <USBHS_IRQHandler+0x7da>
200a29da:	cfa95403          	lhu	s0,-774(s2)
200a29de:	08044433          	zext.h	s0,s0
200a29e2:	200d69b7          	lui	s3,0x200d6
200a29e6:	d049a483          	lw	s1,-764(s3) # 200d5d04 <pUSBHS_Descr>
200a29ea:	200d8537          	lui	a0,0x200d8
200a29ee:	8622                	mv	a2,s0
200a29f0:	85a6                	mv	a1,s1
200a29f2:	f5050513          	addi	a0,a0,-176 # 200d7f50 <USBHS_EP0_Buf>
200a29f6:	8bffd0ef          	jal	ra,200a02b4 <memcpy>
200a29fa:	cfa95783          	lhu	a5,-774(s2)
200a29fe:	94a2                	add	s1,s1,s0
200a2a00:	d099a223          	sw	s1,-764(s3)
200a2a04:	8f81                	sub	a5,a5,s0
200a2a06:	0807c7b3          	zext.h	a5,a5
200a2a0a:	cef91d23          	sh	a5,-774(s2)
200a2a0e:	400307b7          	lui	a5,0x40030
200a2a12:	08879e23          	sh	s0,156(a5) # 4003009c <_eusrstack+0x1ff3009c>
200a2a16:	09e7c703          	lbu	a4,158(a5)
200a2a1a:	00474713          	xori	a4,a4,4
200a2a1e:	08e78f23          	sb	a4,158(a5)
200a2a22:	09e7c703          	lbu	a4,158(a5)
200a2a26:	0fc77713          	andi	a4,a4,252
200a2a2a:	00276713          	ori	a4,a4,2
200a2a2e:	08e78f23          	sb	a4,158(a5)
200a2a32:	200d67b7          	lui	a5,0x200d6
200a2a36:	d087c783          	lbu	a5,-760(a5) # 200d5d08 <USBHS_Test_Flag>
200a2a3a:	60479793          	sext.b	a5,a5
200a2a3e:	8007d1e3          	bgez	a5,200a2240 <USBHS_IRQHandler+0x38>
200a2a42:	e30ff0ef          	jal	ra,200a2072 <USB_TestMode_Deal>
200a2a46:	ffaff06f          	j	200a2240 <USBHS_IRQHandler+0x38>
200a2a4a:	200d67b7          	lui	a5,0x200d6
200a2a4e:	cf87c783          	lbu	a5,-776(a5) # 200d5cf8 <USBHS_DevAddr>
200a2a52:	40030737          	lui	a4,0x40030
200a2a56:	0ff7f793          	zext.b	a5,a5
200a2a5a:	b33c                	sb	a5,3(a4)
200a2a5c:	bfd9                	j	200a2a32 <USBHS_IRQHandler+0x82a>
200a2a5e:	400307b7          	lui	a5,0x40030
200a2a62:	08079e23          	sh	zero,156(a5) # 4003009c <_eusrstack+0x1ff3009c>
200a2a66:	b7f1                	j	200a2a32 <USBHS_IRQHandler+0x82a>
200a2a68:	04077793          	andi	a5,a4,64
200a2a6c:	c791                	beqz	a5,200a2a78 <USBHS_IRQHandler+0x870>
200a2a6e:	04000793          	li	a5,64
200a2a72:	a49c                	sb	a5,8(s1)
200a2a74:	fccff06f          	j	200a2240 <USBHS_IRQHandler+0x38>
200a2a78:	00277793          	andi	a5,a4,2
200a2a7c:	cb95                	beqz	a5,200a2ab0 <USBHS_IRQHandler+0x8a8>
200a2a7e:	4789                	li	a5,2
200a2a80:	a49c                	sb	a5,8(s1)
200a2a82:	24b8                	lbu	a4,10(s1)
200a2a84:	200d67b7          	lui	a5,0x200d6
200a2a88:	8b09                	andi	a4,a4,2
200a2a8a:	cb19                	beqz	a4,200a2aa0 <USBHS_IRQHandler+0x898>
200a2a8c:	cf37c703          	lbu	a4,-781(a5) # 200d5cf3 <USBHS_DevSleepStatus>
200a2a90:	00276713          	ori	a4,a4,2
200a2a94:	cee789a3          	sb	a4,-781(a5)
200a2a98:	cf37c783          	lbu	a5,-781(a5)
200a2a9c:	fa4ff06f          	j	200a2240 <USBHS_IRQHandler+0x38>
200a2aa0:	cf37c703          	lbu	a4,-781(a5)
200a2aa4:	0fd77713          	andi	a4,a4,253
200a2aa8:	cee789a3          	sb	a4,-781(a5)
200a2aac:	f94ff06f          	j	200a2240 <USBHS_IRQHandler+0x38>
200a2ab0:	00177793          	andi	a5,a4,1
200a2ab4:	c7ad                	beqz	a5,200a2b1e <USBHS_IRQHandler+0x916>
200a2ab6:	200d67b7          	lui	a5,0x200d6
200a2aba:	ce078ca3          	sb	zero,-775(a5) # 200d5cf9 <USBHS_DevConfig>
200a2abe:	200d67b7          	lui	a5,0x200d6
200a2ac2:	ce078c23          	sb	zero,-776(a5) # 200d5cf8 <USBHS_DevAddr>
200a2ac6:	200d67b7          	lui	a5,0x200d6
200a2aca:	ce0789a3          	sb	zero,-781(a5) # 200d5cf3 <USBHS_DevSleepStatus>
200a2ace:	200d67b7          	lui	a5,0x200d6
200a2ad2:	ce078923          	sb	zero,-782(a5) # 200d5cf2 <USBHS_DevEnumStatus>
200a2ad6:	000481a3          	sb	zero,3(s1)
200a2ada:	e52ff0ef          	jal	ra,200a212c <USBHS_Device_Endp_Init>
200a2ade:	4705                	li	a4,1
200a2ae0:	a498                	sb	a4,8(s1)
200a2ae2:	200d67b7          	lui	a5,0x200d6
200a2ae6:	d107c683          	lbu	a3,-752(a5) # 200d5d10 <USB_Enum_Status>
200a2aea:	00e68763          	beq	a3,a4,200a2af8 <USBHS_IRQHandler+0x8f0>
200a2aee:	d107c683          	lbu	a3,-752(a5)
200a2af2:	4711                	li	a4,4
200a2af4:	f4e69663          	bne	a3,a4,200a2240 <USBHS_IRQHandler+0x38>
200a2af8:	4709                	li	a4,2
200a2afa:	d0e78823          	sb	a4,-752(a5)
200a2afe:	e000e7b7          	lui	a5,0xe000e
200a2b02:	40000737          	lui	a4,0x40000
200a2b06:	10e7a223          	sw	a4,260(a5) # e000e104 <_eusrstack+0xbff0e104>
200a2b0a:	80000737          	lui	a4,0x80000
200a2b0e:	10e7a223          	sw	a4,260(a5)
200a2b12:	4505                	li	a0,1
200a2b14:	2251                	jal	200a2c98 <USB_Timer_Start>
200a2b16:	4505                	li	a0,1
200a2b18:	29d1                	jal	200a2fec <USBSS_Device_Init>
200a2b1a:	f26ff06f          	j	200a2240 <USBHS_IRQHandler+0x38>
200a2b1e:	a498                	sb	a4,8(s1)
200a2b20:	f20ff06f          	j	200a2240 <USBHS_IRQHandler+0x38>

200a2b24 <USB_Timer_Start.part.0>:
200a2b24:	40014737          	lui	a4,0x40014
200a2b28:	c2071223          	sh	zero,-988(a4) # 40013c24 <_eusrstack+0x1ff13c24>
200a2b2c:	56f9                	li	a3,-2
200a2b2e:	c0d71823          	sh	a3,-1008(a4)
200a2b32:	20000637          	lui	a2,0x20000
200a2b36:	e000e6b7          	lui	a3,0xe000e
200a2b3a:	10c6a423          	sw	a2,264(a3) # e000e108 <_eusrstack+0xbff0e108>
200a2b3e:	c0c75683          	lhu	a3,-1012(a4)
200a2b42:	0016e693          	ori	a3,a3,1
200a2b46:	c0d71623          	sh	a3,-1012(a4)
200a2b4a:	c0075783          	lhu	a5,-1024(a4)
200a2b4e:	0017e793          	ori	a5,a5,1
200a2b52:	c0f71023          	sh	a5,-1024(a4)
200a2b56:	8082                	ret

200a2b58 <USBSS_PLL_Init.part.0>:
200a2b58:	40021737          	lui	a4,0x40021
200a2b5c:	431c                	lw	a5,0(a4)
200a2b5e:	400216b7          	lui	a3,0x40021
200a2b62:	29679793          	bseti	a5,a5,0x16
200a2b66:	c31c                	sw	a5,0(a4)
200a2b68:	00800737          	lui	a4,0x800
200a2b6c:	429c                	lw	a5,0(a3)
200a2b6e:	8ff9                	and	a5,a5,a4
200a2b70:	dff5                	beqz	a5,200a2b6c <USBSS_PLL_Init.part.0+0x14>
200a2b72:	8082                	ret

200a2b74 <USBSS_RCC_Init.part.0>:
200a2b74:	f10fd2ef          	jal	t0,200a0284 <__riscv_save_0>
200a2b78:	4581                	li	a1,0
200a2b7a:	6505                	lui	a0,0x1
200a2b7c:	9e2fe0ef          	jal	ra,200a0d5e <RCC_HBPeriphClockCmd>
200a2b80:	4501                	li	a0,0
200a2b82:	a72fe0ef          	jal	ra,200a0df4 <RCC_UTMIcmd>
200a2b86:	4501                	li	a0,0
200a2b88:	a56fe0ef          	jal	ra,200a0dde <RCC_PIPECmd>
200a2b8c:	400217b7          	lui	a5,0x40021
200a2b90:	479c                	lw	a5,8(a5)
200a2b92:	70000737          	lui	a4,0x70000
200a2b96:	8ff9                	and	a5,a5,a4
200a2b98:	00e78563          	beq	a5,a4,200a2ba2 <USBSS_RCC_Init.part.0+0x2e>
200a2b9c:	4501                	li	a0,0
200a2b9e:	a2afe0ef          	jal	ra,200a0dc8 <RCC_USBSS_PLLCmd>
200a2ba2:	f06fd06f          	j	200a02a8 <__riscv_restore_0>

200a2ba6 <USBSS_RCC_Init>:
200a2ba6:	edefd2ef          	jal	t0,200a0284 <__riscv_save_0>
200a2baa:	c10d                	beqz	a0,200a2bcc <USBSS_RCC_Init+0x26>
200a2bac:	3775                	jal	200a2b58 <USBSS_PLL_Init.part.0>
200a2bae:	4585                	li	a1,1
200a2bb0:	6505                	lui	a0,0x1
200a2bb2:	9acfe0ef          	jal	ra,200a0d5e <RCC_HBPeriphClockCmd>
200a2bb6:	4505                	li	a0,1
200a2bb8:	a26fe0ef          	jal	ra,200a0dde <RCC_PIPECmd>
200a2bbc:	4505                	li	a0,1
200a2bbe:	a36fe0ef          	jal	ra,200a0df4 <RCC_UTMIcmd>
200a2bc2:	4505                	li	a0,1
200a2bc4:	a04fe0ef          	jal	ra,200a0dc8 <RCC_USBSS_PLLCmd>
200a2bc8:	ee0fd06f          	j	200a02a8 <__riscv_restore_0>
200a2bcc:	3765                	jal	200a2b74 <USBSS_RCC_Init.part.0>
200a2bce:	bfed                	j	200a2bc8 <USBSS_RCC_Init+0x22>

200a2bd0 <USBSS_Device_Endp_Deinit>:
200a2bd0:	400347b7          	lui	a5,0x40034
200a2bd4:	5bb8                	lw	a4,112(a5)
200a2bd6:	00276713          	ori	a4,a4,2
200a2bda:	dbb8                	sw	a4,112(a5)
200a2bdc:	5bb8                	lw	a4,112(a5)
200a2bde:	9b75                	andi	a4,a4,-3
200a2be0:	dbb8                	sw	a4,112(a5)
200a2be2:	8082                	ret

200a2be4 <USBSS_Device_Endp_Init>:
200a2be4:	ea0fd2ef          	jal	t0,200a0284 <__riscv_save_0>
200a2be8:	37e5                	jal	200a2bd0 <USBSS_Device_Endp_Deinit>
200a2bea:	400347b7          	lui	a5,0x40034
200a2bee:	4709                	li	a4,2
200a2bf0:	08e79023          	sh	a4,128(a5) # 40034080 <_eusrstack+0x1ff34080>
200a2bf4:	08e79123          	sh	a4,130(a5)
200a2bf8:	0807a223          	sw	zero,132(a5)
200a2bfc:	200e86b7          	lui	a3,0x200e8
200a2c00:	0807a423          	sw	zero,136(a5)
200a2c04:	08078713          	addi	a4,a5,128
200a2c08:	fac68693          	addi	a3,a3,-84 # 200e7fac <USBSS_EP0_Buf>
200a2c0c:	c754                	sw	a3,12(a4)
200a2c0e:	cb14                	sw	a3,16(a4)
200a2c10:	200e06b7          	lui	a3,0x200e0
200a2c14:	fac68693          	addi	a3,a3,-84 # 200dffac <USBSS_EP1_Tx_Buf>
200a2c18:	c774                	sw	a3,76(a4)
200a2c1a:	40000693          	li	a3,1024
200a2c1e:	0cd79323          	sh	a3,198(a5)
200a2c22:	0c07c683          	lbu	a3,192(a5)
200a2c26:	0016e693          	ori	a3,a3,1
200a2c2a:	0cd78023          	sb	a3,192(a5)
200a2c2e:	200d86b7          	lui	a3,0x200d8
200a2c32:	fac68693          	addi	a3,a3,-84 # 200d7fac <USBSS_EP1_Rx_Buf>
200a2c36:	cf74                	sw	a3,92(a4)
200a2c38:	4741                	li	a4,16
200a2c3a:	0ce78c23          	sb	a4,216(a5)
200a2c3e:	e6afd06f          	j	200a02a8 <__riscv_restore_0>

200a2c42 <USBSS_Reset_Init>:
200a2c42:	e42fd2ef          	jal	t0,200a0284 <__riscv_save_0>
200a2c46:	c10d                	beqz	a0,200a2c68 <USBSS_Reset_Init+0x26>
200a2c48:	400347b7          	lui	a5,0x40034
200a2c4c:	5bb8                	lw	a4,112(a5)
200a2c4e:	00476713          	ori	a4,a4,4
200a2c52:	dbb8                	sw	a4,112(a5)
200a2c54:	4705                	li	a4,1
200a2c56:	dbf8                	sw	a4,116(a5)
200a2c58:	00070737          	lui	a4,0x70
200a2c5c:	02170713          	addi	a4,a4,33 # 70021 <_data_lma+0x35e79>
200a2c60:	dbb8                	sw	a4,112(a5)
200a2c62:	3749                	jal	200a2be4 <USBSS_Device_Endp_Init>
200a2c64:	e44fd06f          	j	200a02a8 <__riscv_restore_0>
200a2c68:	40034437          	lui	s0,0x40034
200a2c6c:	4791                	li	a5,4
200a2c6e:	d83c                	sw	a5,112(s0)
200a2c70:	401c                	lw	a5,0(s0)
200a2c72:	800004b7          	lui	s1,0x80000
200a2c76:	00848713          	addi	a4,s1,8 # 80000008 <_eusrstack+0x5ff00008>
200a2c7a:	8fd9                	or	a5,a5,a4
200a2c7c:	c01c                	sw	a5,0(s0)
200a2c7e:	06400513          	li	a0,100
200a2c82:	accfe0ef          	jal	ra,200a0f4e <Delay_Us>
200a2c86:	583c                	lw	a5,112(s0)
200a2c88:	14dd                	addi	s1,s1,-9
200a2c8a:	9bed                	andi	a5,a5,-5
200a2c8c:	d83c                	sw	a5,112(s0)
200a2c8e:	401c                	lw	a5,0(s0)
200a2c90:	8fe5                	and	a5,a5,s1
200a2c92:	c01c                	sw	a5,0(s0)
200a2c94:	35c5                	jal	200a2b74 <USBSS_RCC_Init.part.0>
200a2c96:	b7f9                	j	200a2c64 <USBSS_Reset_Init+0x22>

200a2c98 <USB_Timer_Start>:
200a2c98:	c111                	beqz	a0,200a2c9c <USB_Timer_Start+0x4>
200a2c9a:	b569                	j	200a2b24 <USB_Timer_Start.part.0>
200a2c9c:	e000e7b7          	lui	a5,0xe000e
200a2ca0:	20000737          	lui	a4,0x20000
200a2ca4:	18e7a423          	sw	a4,392(a5) # e000e188 <_eusrstack+0xbff0e188>
200a2ca8:	0000100f          	fence.i
200a2cac:	40014737          	lui	a4,0x40014
200a2cb0:	c0c75783          	lhu	a5,-1012(a4) # 40013c0c <_eusrstack+0x1ff13c0c>
200a2cb4:	0807c7b3          	zext.h	a5,a5
200a2cb8:	9bf9                	andi	a5,a5,-2
200a2cba:	0807c7b3          	zext.h	a5,a5
200a2cbe:	c0f71623          	sh	a5,-1012(a4)
200a2cc2:	c0075783          	lhu	a5,-1024(a4)
200a2cc6:	0807c7b3          	zext.h	a5,a5
200a2cca:	9bf9                	andi	a5,a5,-2
200a2ccc:	0807c7b3          	zext.h	a5,a5
200a2cd0:	c0f71023          	sh	a5,-1024(a4)
200a2cd4:	8082                	ret

200a2cd6 <USBSS_LINK_Handle>:
200a2cd6:	daefd2ef          	jal	t0,200a0284 <__riscv_save_0>
200a2cda:	200d6637          	lui	a2,0x200d6
200a2cde:	491c                	lw	a5,16(a0)
200a2ce0:	4558                	lw	a4,12(a0)
200a2ce2:	d0c62583          	lw	a1,-756(a2) # 200d5d0c <Chip>
200a2ce6:	4689                	li	a3,2
200a2ce8:	842a                	mv	s0,a0
200a2cea:	00b6f863          	bgeu	a3,a1,200a2cfa <USBSS_LINK_Handle+0x24>
200a2cee:	400345b7          	lui	a1,0x40034
200a2cf2:	4594                	lw	a3,8(a1)
200a2cf4:	29569693          	bseti	a3,a3,0x15
200a2cf8:	c594                	sw	a3,8(a1)
200a2cfa:	12075463          	bgez	a4,200a2e22 <USBSS_LINK_Handle+0x14c>
200a2cfe:	6705                	lui	a4,0x1
200a2d00:	f0070693          	addi	a3,a4,-256 # f00 <__stack_size+0x700>
200a2d04:	8ff5                	and	a5,a5,a3
200a2d06:	800006b7          	lui	a3,0x80000
200a2d0a:	c454                	sw	a3,12(s0)
200a2d0c:	50000693          	li	a3,1280
200a2d10:	00d79863          	bne	a5,a3,200a2d20 <USBSS_LINK_Handle+0x4a>
200a2d14:	200d87b7          	lui	a5,0x200d8
200a2d18:	f8079823          	sh	zero,-112(a5) # 200d7f90 <USBSS_Dev_Info>
200a2d1c:	d8cfd06f          	j	200a02a8 <__riscv_restore_0>
200a2d20:	28b01693          	bseti	a3,zero,0xb
200a2d24:	02d79c63          	bne	a5,a3,200a2d5c <USBSS_LINK_Handle+0x86>
200a2d28:	200d67b7          	lui	a5,0x200d6
200a2d2c:	d097c703          	lbu	a4,-759(a5) # 200d5d09 <link_low_power.0>
200a2d30:	d775                	beqz	a4,200a2d1c <USBSS_LINK_Handle+0x46>
200a2d32:	06400513          	li	a0,100
200a2d36:	d00784a3          	sb	zero,-759(a5)
200a2d3a:	a14fe0ef          	jal	ra,200a0f4e <Delay_Us>
200a2d3e:	400347b7          	lui	a5,0x40034
200a2d42:	00926737          	lui	a4,0x926
200a2d46:	1f878693          	addi	a3,a5,504 # 400341f8 <_eusrstack+0x1ff341f8>
200a2d4a:	7c870713          	addi	a4,a4,1992 # 9267c8 <_data_lma+0x8ec620>
200a2d4e:	c298                	sw	a4,0(a3)
200a2d50:	1fc78793          	addi	a5,a5,508
200a2d54:	4705                	li	a4,1
200a2d56:	c398                	sw	a4,0(a5)
200a2d58:	439c                	lw	a5,0(a5)
200a2d5a:	b7c9                	j	200a2d1c <USBSS_LINK_Handle+0x46>
200a2d5c:	40000693          	li	a3,1024
200a2d60:	04d79663          	bne	a5,a3,200a2dac <USBSS_LINK_Handle+0xd6>
200a2d64:	405c                	lw	a5,4(s0)
200a2d66:	9bbd                	andi	a5,a5,-17
200a2d68:	c05c                	sw	a5,4(s0)
200a2d6a:	200d67b7          	lui	a5,0x200d6
200a2d6e:	d107c703          	lbu	a4,-752(a5) # 200d5d10 <USB_Enum_Status>
200a2d72:	e711                	bnez	a4,200a2d7e <USBSS_LINK_Handle+0xa8>
200a2d74:	4705                	li	a4,1
200a2d76:	d0e78823          	sb	a4,-752(a5)
200a2d7a:	336d                	jal	200a2b24 <USB_Timer_Start.part.0>
200a2d7c:	b745                	j	200a2d1c <USBSS_LINK_Handle+0x46>
200a2d7e:	d107c683          	lbu	a3,-752(a5)
200a2d82:	4709                	li	a4,2
200a2d84:	00e69963          	bne	a3,a4,200a2d96 <USBSS_LINK_Handle+0xc0>
200a2d88:	470d                	li	a4,3
200a2d8a:	4501                	li	a0,0
200a2d8c:	d0e78823          	sb	a4,-752(a5)
200a2d90:	c2aff0ef          	jal	ra,200a21ba <USBHS_Device_Init>
200a2d94:	b7dd                	j	200a2d7a <USBSS_LINK_Handle+0xa4>
200a2d96:	d107c683          	lbu	a3,-752(a5)
200a2d9a:	4711                	li	a4,4
200a2d9c:	f8e690e3          	bne	a3,a4,200a2d1c <USBSS_LINK_Handle+0x46>
200a2da0:	d0078823          	sb	zero,-752(a5)
200a2da4:	4505                	li	a0,1
200a2da6:	c14ff0ef          	jal	ra,200a21ba <USBHS_Device_Init>
200a2daa:	bf8d                	j	200a2d1c <USBSS_LINK_Handle+0x46>
200a2dac:	30000693          	li	a3,768
200a2db0:	02d79463          	bne	a5,a3,200a2dd8 <USBSS_LINK_Handle+0x102>
200a2db4:	4685                	li	a3,1
200a2db6:	200d67b7          	lui	a5,0x200d6
200a2dba:	d0d784a3          	sb	a3,-759(a5) # 200d5d09 <link_low_power.0>
200a2dbe:	00926737          	lui	a4,0x926
200a2dc2:	400347b7          	lui	a5,0x40034
200a2dc6:	1f878613          	addi	a2,a5,504 # 400341f8 <_eusrstack+0x1ff341f8>
200a2dca:	5c870713          	addi	a4,a4,1480 # 9265c8 <_data_lma+0x8ec420>
200a2dce:	c218                	sw	a4,0(a2)
200a2dd0:	1fc78793          	addi	a5,a5,508
200a2dd4:	c394                	sw	a3,0(a5)
200a2dd6:	b749                	j	200a2d58 <USBSS_LINK_Handle+0x82>
200a2dd8:	10000693          	li	a3,256
200a2ddc:	fcd78ce3          	beq	a5,a3,200a2db4 <USBSS_LINK_Handle+0xde>
200a2de0:	20000693          	li	a3,512
200a2de4:	fcd788e3          	beq	a5,a3,200a2db4 <USBSS_LINK_Handle+0xde>
200a2de8:	90070713          	addi	a4,a4,-1792
200a2dec:	02e79163          	bne	a5,a4,200a2e0e <USBSS_LINK_Handle+0x138>
200a2df0:	200d87b7          	lui	a5,0x200d8
200a2df4:	4505                	li	a0,1
200a2df6:	f8079823          	sh	zero,-112(a5) # 200d7f90 <USBSS_Dev_Info>
200a2dfa:	35a1                	jal	200a2c42 <USBSS_Reset_Init>
200a2dfc:	200d67b7          	lui	a5,0x200d6
200a2e00:	d00789a3          	sb	zero,-749(a5) # 200d5d13 <USBSS_DevEnumStatus>
200a2e04:	405c                	lw	a5,4(s0)
200a2e06:	49079793          	bclri	a5,a5,0x10
200a2e0a:	c05c                	sw	a5,4(s0)
200a2e0c:	bf01                	j	200a2d1c <USBSS_LINK_Handle+0x46>
200a2e0e:	60000713          	li	a4,1536
200a2e12:	f0e795e3          	bne	a5,a4,200a2d1c <USBSS_LINK_Handle+0x46>
200a2e16:	200d67b7          	lui	a5,0x200d6
200a2e1a:	4705                	li	a4,1
200a2e1c:	d0e78823          	sb	a4,-752(a5) # 200d5d10 <USB_Enum_Status>
200a2e20:	b751                	j	200a2da4 <USBSS_LINK_Handle+0xce>
200a2e22:	40077793          	andi	a5,a4,1024
200a2e26:	cb91                	beqz	a5,200a2e3a <USBSS_LINK_Handle+0x164>
200a2e28:	40000793          	li	a5,1024
200a2e2c:	c45c                	sw	a5,12(s0)
200a2e2e:	200d67b7          	lui	a5,0x200d6
200a2e32:	d00789a3          	sb	zero,-749(a5) # 200d5d13 <USBSS_DevEnumStatus>
200a2e36:	481c                	lw	a5,16(s0)
200a2e38:	b5d5                	j	200a2d1c <USBSS_LINK_Handle+0x46>
200a2e3a:	008007b7          	lui	a5,0x800
200a2e3e:	00f776b3          	and	a3,a4,a5
200a2e42:	ca91                	beqz	a3,200a2e56 <USBSS_LINK_Handle+0x180>
200a2e44:	c45c                	sw	a5,12(s0)
200a2e46:	405c                	lw	a5,4(s0)
200a2e48:	0107e793          	ori	a5,a5,16
200a2e4c:	c05c                	sw	a5,4(s0)
200a2e4e:	405c                	lw	a5,4(s0)
200a2e50:	0807e793          	ori	a5,a5,128
200a2e54:	bf5d                	j	200a2e0a <USBSS_LINK_Handle+0x134>
200a2e56:	004007b7          	lui	a5,0x400
200a2e5a:	00f776b3          	and	a3,a4,a5
200a2e5e:	c28d                	beqz	a3,200a2e80 <USBSS_LINK_Handle+0x1aa>
200a2e60:	c45c                	sw	a5,12(s0)
200a2e62:	28000793          	li	a5,640
200a2e66:	d07c                	sw	a5,100(s0)
200a2e68:	401c                	lw	a5,0(s0)
200a2e6a:	8b85                	andi	a5,a5,1
200a2e6c:	c799                	beqz	a5,200a2e7a <USBSS_LINK_Handle+0x1a4>
200a2e6e:	67c1                	lui	a5,0x10
200a2e70:	0791                	addi	a5,a5,4 # 10004 <__stack_size+0xf804>
200a2e72:	d43c                	sw	a5,104(s0)
200a2e74:	06042623          	sw	zero,108(s0) # 4003406c <_eusrstack+0x1ff3406c>
200a2e78:	b555                	j	200a2d1c <USBSS_LINK_Handle+0x46>
200a2e7a:	000207b7          	lui	a5,0x20
200a2e7e:	bfcd                	j	200a2e70 <USBSS_LINK_Handle+0x19a>
200a2e80:	002007b7          	lui	a5,0x200
200a2e84:	00f776b3          	and	a3,a4,a5
200a2e88:	c6f9                	beqz	a3,200a2f56 <USBSS_LINK_Handle+0x280>
200a2e8a:	c45c                	sw	a5,12(s0)
200a2e8c:	4c3c                	lw	a5,88(s0)
200a2e8e:	4014                	lw	a3,0(s0)
200a2e90:	1e07f713          	andi	a4,a5,480
200a2e94:	8a85                	andi	a3,a3,1
200a2e96:	c685                	beqz	a3,200a2ebe <USBSS_LINK_Handle+0x1e8>
200a2e98:	08000793          	li	a5,128
200a2e9c:	00f71863          	bne	a4,a5,200a2eac <USBSS_LINK_Handle+0x1d6>
200a2ea0:	2a000793          	li	a5,672
200a2ea4:	d07c                	sw	a5,100(s0)
200a2ea6:	06042423          	sw	zero,104(s0)
200a2eaa:	b7e9                	j	200a2e74 <USBSS_LINK_Handle+0x19e>
200a2eac:	0c000793          	li	a5,192
200a2eb0:	e6f716e3          	bne	a4,a5,200a2d1c <USBSS_LINK_Handle+0x46>
200a2eb4:	487c                	lw	a5,84(s0)
200a2eb6:	29e79793          	bseti	a5,a5,0x1e
200a2eba:	c87c                	sw	a5,84(s0)
200a2ebc:	b585                	j	200a2d1c <USBSS_LINK_Handle+0x46>
200a2ebe:	0a000693          	li	a3,160
200a2ec2:	02d71663          	bne	a4,a3,200a2eee <USBSS_LINK_Handle+0x218>
200a2ec6:	2c000793          	li	a5,704
200a2eca:	d07c                	sw	a5,100(s0)
200a2ecc:	06042423          	sw	zero,104(s0)
200a2ed0:	06042623          	sw	zero,108(s0)
200a2ed4:	487c                	lw	a5,84(s0)
200a2ed6:	4711                	li	a4,4
200a2ed8:	4501                	li	a0,0
200a2eda:	29e79793          	bseti	a5,a5,0x1e
200a2ede:	c87c                	sw	a5,84(s0)
200a2ee0:	200d67b7          	lui	a5,0x200d6
200a2ee4:	d0e78823          	sb	a4,-752(a5) # 200d5d10 <USB_Enum_Status>
200a2ee8:	3b45                	jal	200a2c98 <USB_Timer_Start>
200a2eea:	4501                	li	a0,0
200a2eec:	bd6d                	j	200a2da6 <USBSS_LINK_Handle+0xd0>
200a2eee:	04000693          	li	a3,64
200a2ef2:	00d71763          	bne	a4,a3,200a2f00 <USBSS_LINK_Handle+0x22a>
200a2ef6:	83a5                	srli	a5,a5,0x9
200a2ef8:	0ff7f793          	zext.b	a5,a5
200a2efc:	bc5c                	sb	a5,29(s0)
200a2efe:	bd39                	j	200a2d1c <USBSS_LINK_Handle+0x46>
200a2f00:	02000793          	li	a5,32
200a2f04:	e0f71ce3          	bne	a4,a5,200a2d1c <USBSS_LINK_Handle+0x46>
200a2f08:	d0c62703          	lw	a4,-756(a2)
200a2f0c:	4789                	li	a5,2
200a2f0e:	e0e7e7e3          	bltu	a5,a4,200a2d1c <USBSS_LINK_Handle+0x46>
200a2f12:	4c3c                	lw	a5,88(s0)
200a2f14:	200d86b7          	lui	a3,0x200d8
200a2f18:	4007f793          	andi	a5,a5,1024
200a2f1c:	c385                	beqz	a5,200a2f3c <USBSS_LINK_Handle+0x266>
200a2f1e:	400347b7          	lui	a5,0x40034
200a2f22:	4398                	lw	a4,0(a5)
200a2f24:	29071713          	bseti	a4,a4,0x10
200a2f28:	c398                	sw	a4,0(a5)
200a2f2a:	4398                	lw	a4,0(a5)
200a2f2c:	29171713          	bseti	a4,a4,0x11
200a2f30:	c398                	sw	a4,0(a5)
200a2f32:	10100793          	li	a5,257
200a2f36:	f8f69823          	sh	a5,-112(a3) # 200d7f90 <USBSS_Dev_Info>
200a2f3a:	b3cd                	j	200a2d1c <USBSS_LINK_Handle+0x46>
200a2f3c:	400347b7          	lui	a5,0x40034
200a2f40:	4398                	lw	a4,0(a5)
200a2f42:	49071713          	bclri	a4,a4,0x10
200a2f46:	c398                	sw	a4,0(a5)
200a2f48:	4398                	lw	a4,0(a5)
200a2f4a:	49171713          	bclri	a4,a4,0x11
200a2f4e:	c398                	sw	a4,0(a5)
200a2f50:	f8069823          	sh	zero,-112(a3)
200a2f54:	b3e1                	j	200a2d1c <USBSS_LINK_Handle+0x46>
200a2f56:	6789                	lui	a5,0x2
200a2f58:	8f7d                	and	a4,a4,a5
200a2f5a:	dc0701e3          	beqz	a4,200a2d1c <USBSS_LINK_Handle+0x46>
200a2f5e:	c45c                	sw	a5,12(s0)
200a2f60:	481c                	lw	a5,16(s0)
200a2f62:	8b89                	andi	a5,a5,2
200a2f64:	da078ce3          	beqz	a5,200a2d1c <USBSS_LINK_Handle+0x46>
200a2f68:	200d67b7          	lui	a5,0x200d6
200a2f6c:	4505                	li	a0,1
200a2f6e:	d00789a3          	sb	zero,-749(a5) # 200d5d13 <USBSS_DevEnumStatus>
200a2f72:	39c1                	jal	200a2c42 <USBSS_Reset_Init>
200a2f74:	405c                	lw	a5,4(s0)
200a2f76:	0107e793          	ori	a5,a5,16
200a2f7a:	c05c                	sw	a5,4(s0)
200a2f7c:	0001                	nop
200a2f7e:	0001                	nop
200a2f80:	0001                	nop
200a2f82:	0001                	nop
200a2f84:	405c                	lw	a5,4(s0)
200a2f86:	9bbd                	andi	a5,a5,-17
200a2f88:	b549                	j	200a2e0a <USBSS_LINK_Handle+0x134>

200a2f8a <SET_Device_Address>:
200a2f8a:	59bc                	lw	a5,112(a1)
200a2f8c:	0562                	slli	a0,a0,0x18
200a2f8e:	07a2                	slli	a5,a5,0x8
200a2f90:	83a1                	srli	a5,a5,0x8
200a2f92:	d9bc                	sw	a5,112(a1)
200a2f94:	59bc                	lw	a5,112(a1)
200a2f96:	8d5d                	or	a0,a0,a5
200a2f98:	d9a8                	sw	a0,112(a1)
200a2f9a:	8082                	ret

200a2f9c <USBSS_CFG_MOD>:
200a2f9c:	400347b7          	lui	a5,0x40034
200a2fa0:	00838737          	lui	a4,0x838
200a2fa4:	1f878693          	addi	a3,a5,504 # 400341f8 <_eusrstack+0x1ff341f8>
200a2fa8:	c1270713          	addi	a4,a4,-1006 # 837c12 <_data_lma+0x7fda6a>
200a2fac:	c298                	sw	a4,0(a3)
200a2fae:	1fc78793          	addi	a5,a5,508
200a2fb2:	4705                	li	a4,1
200a2fb4:	c398                	sw	a4,0(a5)
200a2fb6:	4390                	lw	a2,0(a5)
200a2fb8:	008d8637          	lui	a2,0x8d8
200a2fbc:	9aa60613          	addi	a2,a2,-1622 # 8d79aa <_data_lma+0x89d802>
200a2fc0:	c290                	sw	a2,0(a3)
200a2fc2:	c398                	sw	a4,0(a5)
200a2fc4:	4390                	lw	a2,0(a5)
200a2fc6:	00954637          	lui	a2,0x954
200a2fca:	43060613          	addi	a2,a2,1072 # 954430 <_data_lma+0x91a288>
200a2fce:	c290                	sw	a2,0(a3)
200a2fd0:	c398                	sw	a4,0(a5)
200a2fd2:	4390                	lw	a2,0(a5)
200a2fd4:	00930637          	lui	a2,0x930
200a2fd8:	0641                	addi	a2,a2,16 # 930010 <_data_lma+0x8f5e68>
200a2fda:	c290                	sw	a2,0(a3)
200a2fdc:	c398                	sw	a4,0(a5)
200a2fde:	439c                	lw	a5,0(a5)
200a2fe0:	b0054737          	lui	a4,0xb0054
200a2fe4:	5003c7b7          	lui	a5,0x5003c
200a2fe8:	cf98                	sw	a4,24(a5)
200a2fea:	8082                	ret

200a2fec <USBSS_Device_Init>:
200a2fec:	a98fd2ef          	jal	t0,200a0284 <__riscv_save_0>
200a2ff0:	c15d                	beqz	a0,200a3096 <USBSS_Device_Init+0xaa>
200a2ff2:	4505                	li	a0,1
200a2ff4:	bb3ff0ef          	jal	ra,200a2ba6 <USBSS_RCC_Init>
200a2ff8:	400347b7          	lui	a5,0x40034
200a2ffc:	34800713          	li	a4,840
200a3000:	c398                	sw	a4,0(a5)
200a3002:	4749                	li	a4,18
200a3004:	c3d8                	sw	a4,4(a5)
200a3006:	00208737          	lui	a4,0x208
200a300a:	34070713          	addi	a4,a4,832 # 208340 <_data_lma+0x1ce198>
200a300e:	c398                	sw	a4,0(a5)
200a3010:	0507d703          	lhu	a4,80(a5) # 40034050 <_eusrstack+0x1ff34050>
200a3014:	20076713          	ori	a4,a4,512
200a3018:	04e79823          	sh	a4,80(a5)
200a301c:	4398                	lw	a4,0(a5)
200a301e:	00276713          	ori	a4,a4,2
200a3022:	c398                	sw	a4,0(a5)
200a3024:	80e02737          	lui	a4,0x80e02
200a3028:	40070713          	addi	a4,a4,1024 # 80e02400 <_eusrstack+0x60d02400>
200a302c:	c798                	sw	a4,8(a5)
200a302e:	200d6737          	lui	a4,0x200d6
200a3032:	d0c72683          	lw	a3,-756(a4) # 200d5d0c <Chip>
200a3036:	4709                	li	a4,2
200a3038:	00d77663          	bgeu	a4,a3,200a3044 <USBSS_Device_Init+0x58>
200a303c:	4798                	lw	a4,8(a5)
200a303e:	29571713          	bseti	a4,a4,0x15
200a3042:	c798                	sw	a4,8(a5)
200a3044:	400347b7          	lui	a5,0x40034
200a3048:	4709                	li	a4,2
200a304a:	c3d8                	sw	a4,4(a5)
200a304c:	07800713          	li	a4,120
200a3050:	b7ba                	sh	a4,42(a5)
200a3052:	03200713          	li	a4,50
200a3056:	02e78423          	sb	a4,40(a5) # 40034028 <_eusrstack+0x1ff34028>
200a305a:	02078623          	sb	zero,44(a5)
200a305e:	02078823          	sb	zero,48(a5)
200a3062:	5bb8                	lw	a4,112(a5)
200a3064:	00476713          	ori	a4,a4,4
200a3068:	dbb8                	sw	a4,112(a5)
200a306a:	4705                	li	a4,1
200a306c:	dbf8                	sw	a4,116(a5)
200a306e:	00070737          	lui	a4,0x70
200a3072:	02170713          	addi	a4,a4,33 # 70021 <_data_lma+0x35e79>
200a3076:	dbb8                	sw	a4,112(a5)
200a3078:	3715                	jal	200a2f9c <USBSS_CFG_MOD>
200a307a:	b6bff0ef          	jal	ra,200a2be4 <USBSS_Device_Endp_Init>
200a307e:	e000e7b7          	lui	a5,0xe000e
200a3082:	40000737          	lui	a4,0x40000
200a3086:	10e7a223          	sw	a4,260(a5) # e000e104 <_eusrstack+0xbff0e104>
200a308a:	80000737          	lui	a4,0x80000
200a308e:	10e7a223          	sw	a4,260(a5)
200a3092:	a16fd06f          	j	200a02a8 <__riscv_restore_0>
200a3096:	e000e7b7          	lui	a5,0xe000e
200a309a:	800004b7          	lui	s1,0x80000
200a309e:	1897a223          	sw	s1,388(a5) # e000e184 <_eusrstack+0xbff0e184>
200a30a2:	0000100f          	fence.i
200a30a6:	40000737          	lui	a4,0x40000
200a30aa:	18e7a223          	sw	a4,388(a5)
200a30ae:	0000100f          	fence.i
200a30b2:	40034437          	lui	s0,0x40034
200a30b6:	4791                	li	a5,4
200a30b8:	d83c                	sw	a5,112(s0)
200a30ba:	401c                	lw	a5,0(s0)
200a30bc:	00848713          	addi	a4,s1,8 # 80000008 <_eusrstack+0x5ff00008>
200a30c0:	06400513          	li	a0,100
200a30c4:	8fd9                	or	a5,a5,a4
200a30c6:	c01c                	sw	a5,0(s0)
200a30c8:	e87fd0ef          	jal	ra,200a0f4e <Delay_Us>
200a30cc:	583c                	lw	a5,112(s0)
200a30ce:	14dd                	addi	s1,s1,-9
200a30d0:	9bed                	andi	a5,a5,-5
200a30d2:	d83c                	sw	a5,112(s0)
200a30d4:	401c                	lw	a5,0(s0)
200a30d6:	8fe5                	and	a5,a5,s1
200a30d8:	c01c                	sw	a5,0(s0)
200a30da:	a9bff0ef          	jal	ra,200a2b74 <USBSS_RCC_Init.part.0>
200a30de:	bf55                	j	200a3092 <USBSS_Device_Init+0xa6>

200a30e0 <TIM12_IRQHandler>:
200a30e0:	1141                	addi	sp,sp,-16
200a30e2:	c426                	sw	s1,8(sp)
200a30e4:	400144b7          	lui	s1,0x40014
200a30e8:	4585                	li	a1,1
200a30ea:	c0048513          	addi	a0,s1,-1024 # 40013c00 <_eusrstack+0x1ff13c00>
200a30ee:	c622                	sw	s0,12(sp)
200a30f0:	d57fd0ef          	jal	ra,200a0e46 <TIM_GetITStatus>
200a30f4:	4785                	li	a5,1
200a30f6:	06f51563          	bne	a0,a5,200a3160 <TIM12_IRQHandler+0x80>
200a30fa:	842a                	mv	s0,a0
200a30fc:	4585                	li	a1,1
200a30fe:	c0048513          	addi	a0,s1,-1024
200a3102:	d5dfd0ef          	jal	ra,200a0e5e <TIM_ClearITPendingBit>
200a3106:	200d64b7          	lui	s1,0x200d6
200a310a:	d104c783          	lbu	a5,-752(s1) # 200d5d10 <USB_Enum_Status>
200a310e:	00879e63          	bne	a5,s0,200a312a <TIM12_IRQHandler+0x4a>
200a3112:	200d6737          	lui	a4,0x200d6
200a3116:	d0a74783          	lbu	a5,-758(a4) # 200d5d0a <u3_first_count.1>
200a311a:	4689                	li	a3,2
200a311c:	0785                	addi	a5,a5,1
200a311e:	0ff7f793          	zext.b	a5,a5
200a3122:	04f6e463          	bltu	a3,a5,200a316a <TIM12_IRQHandler+0x8a>
200a3126:	d0f70523          	sb	a5,-758(a4)
200a312a:	d104c703          	lbu	a4,-752(s1)
200a312e:	478d                	li	a5,3
200a3130:	02f71863          	bne	a4,a5,200a3160 <TIM12_IRQHandler+0x80>
200a3134:	e000e7b7          	lui	a5,0xe000e
200a3138:	40000737          	lui	a4,0x40000
200a313c:	18e7a223          	sw	a4,388(a5) # e000e184 <_eusrstack+0xbff0e184>
200a3140:	0000100f          	fence.i
200a3144:	80000737          	lui	a4,0x80000
200a3148:	18e7a223          	sw	a4,388(a5)
200a314c:	0000100f          	fence.i
200a3150:	4501                	li	a0,0
200a3152:	3d69                	jal	200a2fec <USBSS_Device_Init>
200a3154:	4505                	li	a0,1
200a3156:	864ff0ef          	jal	ra,200a21ba <USBHS_Device_Init>
200a315a:	4501                	li	a0,0
200a315c:	b3dff0ef          	jal	ra,200a2c98 <USB_Timer_Start>
200a3160:	4432                	lw	s0,12(sp)
200a3162:	44a2                	lw	s1,8(sp)
200a3164:	0141                	addi	sp,sp,16
200a3166:	30200073          	mret
200a316a:	d0070523          	sb	zero,-758(a4) # 7ffffd0a <_eusrstack+0x5feffd0a>
200a316e:	e000e7b7          	lui	a5,0xe000e
200a3172:	40000737          	lui	a4,0x40000
200a3176:	18e7a223          	sw	a4,388(a5) # e000e184 <_eusrstack+0xbff0e184>
200a317a:	0000100f          	fence.i
200a317e:	80000737          	lui	a4,0x80000
200a3182:	18e7a223          	sw	a4,388(a5)
200a3186:	0000100f          	fence.i
200a318a:	4501                	li	a0,0
200a318c:	3585                	jal	200a2fec <USBSS_Device_Init>
200a318e:	4505                	li	a0,1
200a3190:	82aff0ef          	jal	ra,200a21ba <USBHS_Device_Init>
200a3194:	4501                	li	a0,0
200a3196:	b03ff0ef          	jal	ra,200a2c98 <USB_Timer_Start>
200a319a:	bf41                	j	200a312a <TIM12_IRQHandler+0x4a>

200a319c <USBSS_LINK_IRQHandler>:
200a319c:	40034537          	lui	a0,0x40034
200a31a0:	b37ff0ef          	jal	ra,200a2cd6 <USBSS_LINK_Handle>
200a31a4:	30200073          	mret

200a31a8 <USBSS_Endp_Clear_Frature>:
200a31a8:	872a                	mv	a4,a0
200a31aa:	07057513          	andi	a0,a0,112
200a31ae:	e121                	bnez	a0,200a31ee <USBSS_Endp_Clear_Frature+0x46>
200a31b0:	fff70793          	addi	a5,a4,-1 # 7fffffff <_eusrstack+0x5fefffff>
200a31b4:	60471713          	sext.b	a4,a4
200a31b8:	00075e63          	bgez	a4,200a31d4 <USBSS_Endp_Clear_Frature+0x2c>
200a31bc:	07f7f793          	andi	a5,a5,127
200a31c0:	40034737          	lui	a4,0x40034
200a31c4:	0c070713          	addi	a4,a4,192 # 400340c0 <_eusrstack+0x1ff340c0>
200a31c8:	0796                	slli	a5,a5,0x5
200a31ca:	97ba                	add	a5,a5,a4
200a31cc:	06000713          	li	a4,96
200a31d0:	b398                	sb	a4,1(a5)
200a31d2:	8082                	ret
200a31d4:	40034737          	lui	a4,0x40034
200a31d8:	0d070713          	addi	a4,a4,208 # 400340d0 <_eusrstack+0x1ff340d0>
200a31dc:	0796                	slli	a5,a5,0x5
200a31de:	97ba                	add	a5,a5,a4
200a31e0:	3398                	lbu	a4,1(a5)
200a31e2:	06076713          	ori	a4,a4,96
200a31e6:	b398                	sb	a4,1(a5)
200a31e8:	4741                	li	a4,16
200a31ea:	a798                	sb	a4,8(a5)
200a31ec:	8082                	ret
200a31ee:	0ff00513          	li	a0,255
200a31f2:	8082                	ret

200a31f4 <USBSS_Endp_Set_Frature>:
200a31f4:	872a                	mv	a4,a0
200a31f6:	07057513          	andi	a0,a0,112
200a31fa:	e915                	bnez	a0,200a322e <USBSS_Endp_Set_Frature+0x3a>
200a31fc:	fff70793          	addi	a5,a4,-1
200a3200:	60471713          	sext.b	a4,a4
200a3204:	00075f63          	bgez	a4,200a3222 <USBSS_Endp_Set_Frature+0x2e>
200a3208:	07f7f793          	andi	a5,a5,127
200a320c:	40034737          	lui	a4,0x40034
200a3210:	0796                	slli	a5,a5,0x5
200a3212:	0c070713          	addi	a4,a4,192 # 400340c0 <_eusrstack+0x1ff340c0>
200a3216:	97ba                	add	a5,a5,a4
200a3218:	3398                	lbu	a4,1(a5)
200a321a:	08076713          	ori	a4,a4,128
200a321e:	b398                	sb	a4,1(a5)
200a3220:	8082                	ret
200a3222:	40034737          	lui	a4,0x40034
200a3226:	0796                	slli	a5,a5,0x5
200a3228:	0d070713          	addi	a4,a4,208 # 400340d0 <_eusrstack+0x1ff340d0>
200a322c:	b7ed                	j	200a3216 <USBSS_Endp_Set_Frature+0x22>
200a322e:	0ff00513          	li	a0,255
200a3232:	8082                	ret

200a3234 <USBSS_Get_Endp_Status>:
200a3234:	872a                	mv	a4,a0
200a3236:	07057513          	andi	a0,a0,112
200a323a:	e139                	bnez	a0,200a3280 <USBSS_Get_Endp_Status+0x4c>
200a323c:	07f77793          	andi	a5,a4,127
200a3240:	c3b1                	beqz	a5,200a3284 <USBSS_Get_Endp_Status+0x50>
200a3242:	fff70793          	addi	a5,a4,-1
200a3246:	60471713          	sext.b	a4,a4
200a324a:	02075563          	bgez	a4,200a3274 <USBSS_Get_Endp_Status+0x40>
200a324e:	07f7f793          	andi	a5,a5,127
200a3252:	40034737          	lui	a4,0x40034
200a3256:	0796                	slli	a5,a5,0x5
200a3258:	0c070713          	addi	a4,a4,192 # 400340c0 <_eusrstack+0x1ff340c0>
200a325c:	97ba                	add	a5,a5,a4
200a325e:	339c                	lbu	a5,1(a5)
200a3260:	60479793          	sext.b	a5,a5
200a3264:	0207d063          	bgez	a5,200a3284 <USBSS_Get_Endp_Status+0x50>
200a3268:	200e87b7          	lui	a5,0x200e8
200a326c:	4705                	li	a4,1
200a326e:	fae78623          	sb	a4,-84(a5) # 200e7fac <USBSS_EP0_Buf>
200a3272:	8082                	ret
200a3274:	40034737          	lui	a4,0x40034
200a3278:	0796                	slli	a5,a5,0x5
200a327a:	0d070713          	addi	a4,a4,208 # 400340d0 <_eusrstack+0x1ff340d0>
200a327e:	bff9                	j	200a325c <USBSS_Get_Endp_Status+0x28>
200a3280:	0ff00513          	li	a0,255
200a3284:	8082                	ret

200a3286 <USBSS_IRQHandler>:
200a3286:	400347b7          	lui	a5,0x40034
200a328a:	5bf8                	lw	a4,116(a5)
200a328c:	1101                	addi	sp,sp,-32
200a328e:	ce22                	sw	s0,28(sp)
200a3290:	cc26                	sw	s1,24(sp)
200a3292:	ca4a                	sw	s2,20(sp)
200a3294:	c84e                	sw	s3,16(sp)
200a3296:	c652                	sw	s4,12(sp)
200a3298:	c456                	sw	s5,8(sp)
200a329a:	c25a                	sw	s6,4(sp)
200a329c:	00677613          	andi	a2,a4,6
200a32a0:	4689                	li	a3,2
200a32a2:	48d61663          	bne	a2,a3,200a372e <USBSS_IRQHandler+0x4a8>
200a32a6:	200e8ab7          	lui	s5,0x200e8
200a32aa:	faca8713          	addi	a4,s5,-84 # 200e7fac <USBSS_EP0_Buf>
200a32ae:	231c                	lbu	a5,0(a4)
200a32b0:	200d64b7          	lui	s1,0x200d6
200a32b4:	200d65b7          	lui	a1,0x200d6
200a32b8:	d0f48ea3          	sb	a5,-739(s1) # 200d5d1d <USBSS_SetupReqType>
200a32bc:	331c                	lbu	a5,1(a4)
200a32be:	2336                	lhu	a3,2(a4)
200a32c0:	200d6437          	lui	s0,0x200d6
200a32c4:	d0f58e23          	sb	a5,-740(a1) # 200d5d1c <USBSS_SetupReqCode>
200a32c8:	237e                	lhu	a5,6(a4)
200a32ca:	235a                	lhu	a4,4(a4)
200a32cc:	200d8937          	lui	s2,0x200d8
200a32d0:	d0f41b23          	sh	a5,-746(s0) # 200d5d16 <USBSS_SetupReqLen>
200a32d4:	200d67b7          	lui	a5,0x200d6
200a32d8:	d0d79d23          	sh	a3,-742(a5) # 200d5d1a <USBSS_SetupReqValue>
200a32dc:	200d66b7          	lui	a3,0x200d6
200a32e0:	d0e69c23          	sh	a4,-744(a3) # 200d5d18 <USBSS_SetupReqIndex>
200a32e4:	d1d4c983          	lbu	s3,-739(s1)
200a32e8:	f9090613          	addi	a2,s2,-112 # 200d7f90 <USBSS_Dev_Info>
200a32ec:	00060123          	sb	zero,2(a2)
200a32f0:	00060323          	sb	zero,6(a2)
200a32f4:	0609f993          	andi	s3,s3,96
200a32f8:	f9090913          	addi	s2,s2,-112
200a32fc:	faca8a13          	addi	s4,s5,-84
200a3300:	08098663          	beqz	s3,200a338c <USBSS_IRQHandler+0x106>
200a3304:	d1d4c783          	lbu	a5,-739(s1)
200a3308:	60479793          	sext.b	a5,a5
200a330c:	0607d463          	bgez	a5,200a3374 <USBSS_IRQHandler+0xee>
200a3310:	200d6a37          	lui	s4,0x200d6
200a3314:	d20a0513          	addi	a0,s4,-736 # 200d5d20 <pUSBSS_Descr>
200a3318:	f8afe0ef          	jal	ra,200a1aa2 <USBSS_UVC_NonStandardReq>
200a331c:	0ff57513          	zext.b	a0,a0
200a3320:	0ff00793          	li	a5,255
200a3324:	08f50b63          	beq	a0,a5,200a33ba <USBSS_IRQHandler+0x134>
200a3328:	d1645703          	lhu	a4,-746(s0)
200a332c:	1ff00793          	li	a5,511
200a3330:	20000913          	li	s2,512
200a3334:	00e7e663          	bltu	a5,a4,200a3340 <USBSS_IRQHandler+0xba>
200a3338:	d1645903          	lhu	s2,-746(s0)
200a333c:	08094933          	zext.h	s2,s2
200a3340:	d20a2983          	lw	s3,-736(s4)
200a3344:	864a                	mv	a2,s2
200a3346:	faca8513          	addi	a0,s5,-84
200a334a:	85ce                	mv	a1,s3
200a334c:	99ca                	add	s3,s3,s2
200a334e:	f67fc0ef          	jal	ra,200a02b4 <memcpy>
200a3352:	d33a2023          	sw	s3,-736(s4)
200a3356:	d1d4c783          	lbu	a5,-739(s1)
200a335a:	60479793          	sext.b	a5,a5
200a335e:	3a07d563          	bgez	a5,200a3708 <USBSS_IRQHandler+0x482>
200a3362:	d1645783          	lhu	a5,-746(s0)
200a3366:	34079663          	bnez	a5,200a36b2 <USBSS_IRQHandler+0x42c>
200a336a:	400347b7          	lui	a5,0x40034
200a336e:	00a00737          	lui	a4,0xa00
200a3372:	a8a1                	j	200a33ca <USBSS_IRQHandler+0x144>
200a3374:	d1d4c703          	lbu	a4,-739(s1)
200a3378:	02100793          	li	a5,33
200a337c:	02f71f63          	bne	a4,a5,200a33ba <USBSS_IRQHandler+0x134>
200a3380:	d1c5c703          	lbu	a4,-740(a1)
200a3384:	4785                	li	a5,1
200a3386:	02e79a63          	bne	a5,a4,200a33ba <USBSS_IRQHandler+0x134>
200a338a:	b7f1                	j	200a3356 <USBSS_IRQHandler+0xd0>
200a338c:	d1c5c703          	lbu	a4,-740(a1)
200a3390:	45ad                	li	a1,11
200a3392:	0ff77513          	zext.b	a0,a4
200a3396:	00e5ea63          	bltu	a1,a4,200a33aa <USBSS_IRQHandler+0x124>
200a339a:	200a9737          	lui	a4,0x200a9
200a339e:	57c70713          	addi	a4,a4,1404 # 200a957c <yuv_uxga+0x194>
200a33a2:	20e54733          	sh2add	a4,a0,a4
200a33a6:	4318                	lw	a4,0(a4)
200a33a8:	8702                	jr	a4
200a33aa:	03000713          	li	a4,48
200a33ae:	fae504e3          	beq	a0,a4,200a3356 <USBSS_IRQHandler+0xd0>
200a33b2:	03100713          	li	a4,49
200a33b6:	14e50463          	beq	a0,a4,200a34fe <USBSS_IRQHandler+0x278>
200a33ba:	00400737          	lui	a4,0x400
200a33be:	400347b7          	lui	a5,0x40034
200a33c2:	08e7a223          	sw	a4,132(a5) # 40034084 <_eusrstack+0x1ff34084>
200a33c6:	00c00737          	lui	a4,0xc00
200a33ca:	08e7a423          	sw	a4,136(a5)
200a33ce:	ae39                	j	200a36ec <USBSS_IRQHandler+0x466>
200a33d0:	d1a7d703          	lhu	a4,-742(a5)
200a33d4:	46b9                	li	a3,14
200a33d6:	200d6937          	lui	s2,0x200d6
200a33da:	8321                	srli	a4,a4,0x8
200a33dc:	177d                	addi	a4,a4,-1 # bfffff <_data_lma+0xbc5e57>
200a33de:	0ff77713          	zext.b	a4,a4
200a33e2:	0ae6e663          	bltu	a3,a4,200a348e <USBSS_IRQHandler+0x208>
200a33e6:	200a96b7          	lui	a3,0x200a9
200a33ea:	5ac68693          	addi	a3,a3,1452 # 200a95ac <yuv_uxga+0x1c4>
200a33ee:	20d74733          	sh2add	a4,a4,a3
200a33f2:	4318                	lw	a4,0(a4)
200a33f4:	8702                	jr	a4
200a33f6:	200aa7b7          	lui	a5,0x200aa
200a33fa:	86878793          	addi	a5,a5,-1944 # 200a9868 <SS_DeviceDescriptor>
200a33fe:	d2f92023          	sw	a5,-736(s2) # 200d5d20 <pUSBSS_Descr>
200a3402:	239c                	lbu	a5,0(a5)
200a3404:	a825                	j	200a343c <USBSS_IRQHandler+0x1b6>
200a3406:	200a97b7          	lui	a5,0x200a9
200a340a:	67478793          	addi	a5,a5,1652 # 200a9674 <SS_ConfigDescriptor>
200a340e:	23b8                	lbu	a4,2(a5)
200a3410:	d2f92023          	sw	a5,-736(s2)
200a3414:	33bc                	lbu	a5,3(a5)
200a3416:	07a2                	slli	a5,a5,0x8
200a3418:	8fd9                	or	a5,a5,a4
200a341a:	a00d                	j	200a343c <USBSS_IRQHandler+0x1b6>
200a341c:	d1a7d783          	lhu	a5,-742(a5)
200a3420:	4709                	li	a4,2
200a3422:	0ff7f793          	zext.b	a5,a5
200a3426:	06e78d63          	beq	a5,a4,200a34a0 <USBSS_IRQHandler+0x21a>
200a342a:	04f76b63          	bltu	a4,a5,200a3480 <USBSS_IRQHandler+0x1fa>
200a342e:	e7a5                	bnez	a5,200a3496 <USBSS_IRQHandler+0x210>
200a3430:	89018793          	addi	a5,gp,-1904 # 200c1c88 <MyLangDescr>
200a3434:	d2f92023          	sw	a5,-736(s2)
200a3438:	239c                	lbu	a5,0(a5)
200a343a:	4981                	li	s3,0
200a343c:	d1645703          	lhu	a4,-746(s0)
200a3440:	00e7f463          	bgeu	a5,a4,200a3448 <USBSS_IRQHandler+0x1c2>
200a3444:	d0f41b23          	sh	a5,-746(s0)
200a3448:	d1645703          	lhu	a4,-746(s0)
200a344c:	1ff00793          	li	a5,511
200a3450:	20000a13          	li	s4,512
200a3454:	00e7e663          	bltu	a5,a4,200a3460 <USBSS_IRQHandler+0x1da>
200a3458:	d1645a03          	lhu	s4,-746(s0)
200a345c:	080a4a33          	zext.h	s4,s4
200a3460:	d2092b03          	lw	s6,-736(s2)
200a3464:	8652                	mv	a2,s4
200a3466:	faca8513          	addi	a0,s5,-84
200a346a:	85da                	mv	a1,s6
200a346c:	9b52                	add	s6,s6,s4
200a346e:	e47fc0ef          	jal	ra,200a02b4 <memcpy>
200a3472:	d3692023          	sw	s6,-736(s2)
200a3476:	0ff00793          	li	a5,255
200a347a:	f4f980e3          	beq	s3,a5,200a33ba <USBSS_IRQHandler+0x134>
200a347e:	bde1                	j	200a3356 <USBSS_IRQHandler+0xd0>
200a3480:	470d                	li	a4,3
200a3482:	02e78463          	beq	a5,a4,200a34aa <USBSS_IRQHandler+0x224>
200a3486:	0ee00713          	li	a4,238
200a348a:	02e78563          	beq	a5,a4,200a34b4 <USBSS_IRQHandler+0x22e>
200a348e:	4781                	li	a5,0
200a3490:	0ff00993          	li	s3,255
200a3494:	b765                	j	200a343c <USBSS_IRQHandler+0x1b6>
200a3496:	200a97b7          	lui	a5,0x200a9
200a349a:	64c78793          	addi	a5,a5,1612 # 200a964c <MyManuInfo>
200a349e:	b785                	j	200a33fe <USBSS_IRQHandler+0x178>
200a34a0:	200a97b7          	lui	a5,0x200a9
200a34a4:	62c78793          	addi	a5,a5,1580 # 200a962c <MyProdInfo>
200a34a8:	bf99                	j	200a33fe <USBSS_IRQHandler+0x178>
200a34aa:	200a97b7          	lui	a5,0x200a9
200a34ae:	61478793          	addi	a5,a5,1556 # 200a9614 <MySerNumInfo>
200a34b2:	b7b1                	j	200a33fe <USBSS_IRQHandler+0x178>
200a34b4:	200a97b7          	lui	a5,0x200a9
200a34b8:	60078793          	addi	a5,a5,1536 # 200a9600 <OSStringDescriptor>
200a34bc:	b789                	j	200a33fe <USBSS_IRQHandler+0x178>
200a34be:	200aa7b7          	lui	a5,0x200aa
200a34c2:	87c78793          	addi	a5,a5,-1924 # 200a987c <MyQuaDesc>
200a34c6:	bf25                	j	200a33fe <USBSS_IRQHandler+0x178>
200a34c8:	200a97b7          	lui	a5,0x200a9
200a34cc:	5e878793          	addi	a5,a5,1512 # 200a95e8 <MyBOSDesc_SS>
200a34d0:	bf3d                	j	200a340e <USBSS_IRQHandler+0x188>
200a34d2:	d1a7d783          	lhu	a5,-742(a5)
200a34d6:	4705                	li	a4,1
200a34d8:	00e90123          	sb	a4,2(s2)
200a34dc:	00f901a3          	sb	a5,3(s2)
200a34e0:	bd9d                	j	200a3356 <USBSS_IRQHandler+0xd0>
200a34e2:	200d67b7          	lui	a5,0x200d6
200a34e6:	d157c783          	lbu	a5,-747(a5) # 200d5d15 <USBSS_DevConfig>
200a34ea:	00fa0023          	sb	a5,0(s4)
200a34ee:	d1645703          	lhu	a4,-746(s0)
200a34f2:	4785                	li	a5,1
200a34f4:	e6e7f1e3          	bgeu	a5,a4,200a3356 <USBSS_IRQHandler+0xd0>
200a34f8:	d0f41b23          	sh	a5,-746(s0)
200a34fc:	bda9                	j	200a3356 <USBSS_IRQHandler+0xd0>
200a34fe:	d1a7d783          	lhu	a5,-742(a5)
200a3502:	4705                	li	a4,1
200a3504:	a278                	sb	a4,6(a2)
200a3506:	b27c                	sb	a5,7(a2)
200a3508:	b5b9                	j	200a3356 <USBSS_IRQHandler+0xd0>
200a350a:	d1a7d683          	lhu	a3,-742(a5)
200a350e:	200d6737          	lui	a4,0x200d6
200a3512:	0ff6f693          	zext.b	a3,a3
200a3516:	d0d70aa3          	sb	a3,-747(a4) # 200d5d15 <USBSS_DevConfig>
200a351a:	d1574683          	lbu	a3,-747(a4)
200a351e:	ca85                	beqz	a3,200a354e <USBSS_IRQHandler+0x2c8>
200a3520:	200a96b7          	lui	a3,0x200a9
200a3524:	6796c683          	lbu	a3,1657(a3) # 200a9679 <SS_ConfigDescriptor+0x5>
200a3528:	d1574603          	lbu	a2,-747(a4)
200a352c:	02c68163          	beq	a3,a2,200a354e <USBSS_IRQHandler+0x2c8>
200a3530:	d0d70aa3          	sb	a3,-747(a4)
200a3534:	d1574703          	lbu	a4,-747(a4)
200a3538:	d1a7d783          	lhu	a5,-742(a5)
200a353c:	0ff7f793          	zext.b	a5,a5
200a3540:	e6f70de3          	beq	a4,a5,200a33ba <USBSS_IRQHandler+0x134>
200a3544:	00090023          	sb	zero,0(s2)
200a3548:	000900a3          	sb	zero,1(s2)
200a354c:	b5bd                	j	200a33ba <USBSS_IRQHandler+0x134>
200a354e:	d1574603          	lbu	a2,-747(a4)
200a3552:	200d66b7          	lui	a3,0x200d6
200a3556:	e205                	bnez	a2,200a3576 <USBSS_IRQHandler+0x2f0>
200a3558:	d00689a3          	sb	zero,-749(a3) # 200d5d13 <USBSS_DevEnumStatus>
200a355c:	d1574703          	lbu	a4,-747(a4)
200a3560:	d1a7d783          	lhu	a5,-742(a5)
200a3564:	0ff7f793          	zext.b	a5,a5
200a3568:	def707e3          	beq	a4,a5,200a3356 <USBSS_IRQHandler+0xd0>
200a356c:	00090023          	sb	zero,0(s2)
200a3570:	000900a3          	sb	zero,1(s2)
200a3574:	b3cd                	j	200a3356 <USBSS_IRQHandler+0xd0>
200a3576:	4605                	li	a2,1
200a3578:	d0c689a3          	sb	a2,-749(a3)
200a357c:	b7c5                	j	200a355c <USBSS_IRQHandler+0x2d6>
200a357e:	d1d4c703          	lbu	a4,-739(s1)
200a3582:	8b7d                	andi	a4,a4,31
200a3584:	e321                	bnez	a4,200a35c4 <USBSS_IRQHandler+0x33e>
200a3586:	d1a7d703          	lhu	a4,-742(a5)
200a358a:	4685                	li	a3,1
200a358c:	0ff77713          	zext.b	a4,a4
200a3590:	00d71b63          	bne	a4,a3,200a35a6 <USBSS_IRQHandler+0x320>
200a3594:	200d6737          	lui	a4,0x200d6
200a3598:	d1474783          	lbu	a5,-748(a4) # 200d5d14 <USBSS_DevSleepStatus>
200a359c:	0fe7f793          	andi	a5,a5,254
200a35a0:	d0f70a23          	sb	a5,-748(a4)
200a35a4:	bb4d                	j	200a3356 <USBSS_IRQHandler+0xd0>
200a35a6:	d1a7d703          	lhu	a4,-742(a5)
200a35aa:	03000693          	li	a3,48
200a35ae:	0ff77713          	zext.b	a4,a4
200a35b2:	dad702e3          	beq	a4,a3,200a3356 <USBSS_IRQHandler+0xd0>
200a35b6:	d1a7d783          	lhu	a5,-742(a5)
200a35ba:	03100713          	li	a4,49
200a35be:	0ff7f793          	zext.b	a5,a5
200a35c2:	b3d1                	j	200a3386 <USBSS_IRQHandler+0x100>
200a35c4:	d1d4c703          	lbu	a4,-739(s1)
200a35c8:	4609                	li	a2,2
200a35ca:	8b7d                	andi	a4,a4,31
200a35cc:	dec717e3          	bne	a4,a2,200a33ba <USBSS_IRQHandler+0x134>
200a35d0:	d1a7d783          	lhu	a5,-742(a5)
200a35d4:	0ff7f793          	zext.b	a5,a5
200a35d8:	de0791e3          	bnez	a5,200a33ba <USBSS_IRQHandler+0x134>
200a35dc:	d186d503          	lhu	a0,-744(a3)
200a35e0:	0ff57513          	zext.b	a0,a0
200a35e4:	bc5ff0ef          	jal	ra,200a31a8 <USBSS_Endp_Clear_Frature>
200a35e8:	b3bd                	j	200a3356 <USBSS_IRQHandler+0xd0>
200a35ea:	d1d4c703          	lbu	a4,-739(s1)
200a35ee:	8b7d                	andi	a4,a4,31
200a35f0:	e305                	bnez	a4,200a3610 <USBSS_IRQHandler+0x38a>
200a35f2:	d1a7d703          	lhu	a4,-742(a5)
200a35f6:	03000693          	li	a3,48
200a35fa:	0ff77713          	zext.b	a4,a4
200a35fe:	fad71ce3          	bne	a4,a3,200a35b6 <USBSS_IRQHandler+0x330>
200a3602:	200d67b7          	lui	a5,0x200d6
200a3606:	d137c783          	lbu	a5,-749(a5) # 200d5d13 <USBSS_DevEnumStatus>
200a360a:	d40796e3          	bnez	a5,200a3356 <USBSS_IRQHandler+0xd0>
200a360e:	b375                	j	200a33ba <USBSS_IRQHandler+0x134>
200a3610:	d1d4c703          	lbu	a4,-739(s1)
200a3614:	4609                	li	a2,2
200a3616:	8b7d                	andi	a4,a4,31
200a3618:	d2c71fe3          	bne	a4,a2,200a3356 <USBSS_IRQHandler+0xd0>
200a361c:	d1a7d783          	lhu	a5,-742(a5)
200a3620:	0ff7f793          	zext.b	a5,a5
200a3624:	d20799e3          	bnez	a5,200a3356 <USBSS_IRQHandler+0xd0>
200a3628:	d186d503          	lhu	a0,-744(a3)
200a362c:	0ff57513          	zext.b	a0,a0
200a3630:	bc5ff0ef          	jal	ra,200a31f4 <USBSS_Endp_Set_Frature>
200a3634:	b30d                	j	200a3356 <USBSS_IRQHandler+0xd0>
200a3636:	40034737          	lui	a4,0x40034
200a363a:	0c174783          	lbu	a5,193(a4) # 400340c1 <_eusrstack+0x1ff340c1>
200a363e:	0207e793          	ori	a5,a5,32
200a3642:	0cf700a3          	sb	a5,193(a4)
200a3646:	a5bfd0ef          	jal	ra,200a10a0 <SS_CtrlCamera>
200a364a:	b331                	j	200a3356 <USBSS_IRQHandler+0xd0>
200a364c:	000a0023          	sb	zero,0(s4)
200a3650:	bd79                	j	200a34ee <USBSS_IRQHandler+0x268>
200a3652:	d1d4c783          	lbu	a5,-739(s1)
200a3656:	fa0a9623          	sh	zero,-84(s5)
200a365a:	4709                	li	a4,2
200a365c:	8bfd                	andi	a5,a5,31
200a365e:	02e79d63          	bne	a5,a4,200a3698 <USBSS_IRQHandler+0x412>
200a3662:	d186d503          	lhu	a0,-744(a3)
200a3666:	0ff57513          	zext.b	a0,a0
200a366a:	bcbff0ef          	jal	ra,200a3234 <USBSS_Get_Endp_Status>
200a366e:	00194783          	lbu	a5,1(s2)
200a3672:	00094703          	lbu	a4,0(s2)
200a3676:	078e                	slli	a5,a5,0x3
200a3678:	070a                	slli	a4,a4,0x2
200a367a:	8fd9                	or	a5,a5,a4
200a367c:	000a4703          	lbu	a4,0(s4)
200a3680:	8fd9                	or	a5,a5,a4
200a3682:	d1645703          	lhu	a4,-746(s0)
200a3686:	00fa0023          	sb	a5,0(s4)
200a368a:	4789                	li	a5,2
200a368c:	00e7f463          	bgeu	a5,a4,200a3694 <USBSS_IRQHandler+0x40e>
200a3690:	d0f41b23          	sh	a5,-746(s0)
200a3694:	89aa                	mv	s3,a0
200a3696:	b3c5                	j	200a3476 <USBSS_IRQHandler+0x1f0>
200a3698:	d1d4c783          	lbu	a5,-739(s1)
200a369c:	8bfd                	andi	a5,a5,31
200a369e:	fbe1                	bnez	a5,200a366e <USBSS_IRQHandler+0x3e8>
200a36a0:	200d67b7          	lui	a5,0x200d6
200a36a4:	d147c783          	lbu	a5,-748(a5) # 200d5d14 <USBSS_DevSleepStatus>
200a36a8:	8b85                	andi	a5,a5,1
200a36aa:	d3f1                	beqz	a5,200a366e <USBSS_IRQHandler+0x3e8>
200a36ac:	00ea0023          	sb	a4,0(s4)
200a36b0:	bf7d                	j	200a366e <USBSS_IRQHandler+0x3e8>
200a36b2:	d1645703          	lhu	a4,-746(s0)
200a36b6:	20000793          	li	a5,512
200a36ba:	00e7e663          	bltu	a5,a4,200a36c6 <USBSS_IRQHandler+0x440>
200a36be:	d1645783          	lhu	a5,-746(s0)
200a36c2:	0807c7b3          	zext.h	a5,a5
200a36c6:	d1645703          	lhu	a4,-746(s0)
200a36ca:	8f1d                	sub	a4,a4,a5
200a36cc:	08074733          	zext.h	a4,a4
200a36d0:	d0e41b23          	sh	a4,-746(s0)
200a36d4:	40034737          	lui	a4,0x40034
200a36d8:	29579793          	bseti	a5,a5,0x15
200a36dc:	08f72223          	sw	a5,132(a4) # 40034084 <_eusrstack+0x1ff34084>
200a36e0:	08472783          	lw	a5,132(a4)
200a36e4:	29779793          	bseti	a5,a5,0x17
200a36e8:	08f72223          	sw	a5,132(a4)
200a36ec:	400347b7          	lui	a5,0x40034
200a36f0:	4709                	li	a4,2
200a36f2:	dbf8                	sw	a4,116(a5)
200a36f4:	4472                	lw	s0,28(sp)
200a36f6:	44e2                	lw	s1,24(sp)
200a36f8:	4952                	lw	s2,20(sp)
200a36fa:	49c2                	lw	s3,16(sp)
200a36fc:	4a32                	lw	s4,12(sp)
200a36fe:	4aa2                	lw	s5,8(sp)
200a3700:	4b12                	lw	s6,4(sp)
200a3702:	6105                	addi	sp,sp,32
200a3704:	30200073          	mret
200a3708:	d1645783          	lhu	a5,-746(s0)
200a370c:	c4079fe3          	bnez	a5,200a336a <USBSS_IRQHandler+0xe4>
200a3710:	400347b7          	lui	a5,0x40034
200a3714:	08078793          	addi	a5,a5,128 # 40034080 <_eusrstack+0x1ff34080>
200a3718:	00200737          	lui	a4,0x200
200a371c:	c3d8                	sw	a4,4(a5)
200a371e:	43d8                	lw	a4,4(a5)
200a3720:	29771713          	bseti	a4,a4,0x17
200a3724:	c3d8                	sw	a4,4(a5)
200a3726:	00a00737          	lui	a4,0xa00
200a372a:	c798                	sw	a4,8(a5)
200a372c:	b7c1                	j	200a36ec <USBSS_IRQHandler+0x466>
200a372e:	00477693          	andi	a3,a4,4
200a3732:	ce9d                	beqz	a3,200a3770 <USBSS_IRQHandler+0x4ea>
200a3734:	4711                	li	a4,4
200a3736:	200d8437          	lui	s0,0x200d8
200a373a:	dbf8                	sw	a4,116(a5)
200a373c:	f9040413          	addi	s0,s0,-112 # 200d7f90 <USBSS_Dev_Info>
200a3740:	2038                	lbu	a4,2(s0)
200a3742:	cf19                	beqz	a4,200a3760 <USBSS_IRQHandler+0x4da>
200a3744:	3028                	lbu	a0,3(s0)
200a3746:	400345b7          	lui	a1,0x40034
200a374a:	841ff0ef          	jal	ra,200a2f8a <SET_Device_Address>
200a374e:	00040123          	sb	zero,2(s0)
200a3752:	400347b7          	lui	a5,0x40034
200a3756:	0807a223          	sw	zero,132(a5) # 40034084 <_eusrstack+0x1ff34084>
200a375a:	0807a423          	sw	zero,136(a5)
200a375e:	bf59                	j	200a36f4 <USBSS_IRQHandler+0x46e>
200a3760:	2078                	lbu	a4,6(s0)
200a3762:	db65                	beqz	a4,200a3752 <USBSS_IRQHandler+0x4cc>
200a3764:	3078                	lbu	a4,7(s0)
200a3766:	04e79023          	sh	a4,64(a5)
200a376a:	00040323          	sb	zero,6(s0)
200a376e:	b7d5                	j	200a3752 <USBSS_IRQHandler+0x4cc>
200a3770:	00177693          	andi	a3,a4,1
200a3774:	d2c1                	beqz	a3,200a36f4 <USBSS_IRQHandler+0x46e>
200a3776:	6605                	lui	a2,0x1
200a3778:	00875693          	srli	a3,a4,0x8
200a377c:	8f71                	and	a4,a4,a2
200a377e:	8a9d                	andi	a3,a3,7
200a3780:	cf45                	beqz	a4,200a3838 <USBSS_IRQHandler+0x5b2>
200a3782:	ce89                	beqz	a3,200a379c <USBSS_IRQHandler+0x516>
200a3784:	4705                	li	a4,1
200a3786:	f6e697e3          	bne	a3,a4,200a36f4 <USBSS_IRQHandler+0x46e>
200a378a:	0c57c703          	lbu	a4,197(a5)
200a378e:	04076713          	ori	a4,a4,64
200a3792:	0ce782a3          	sb	a4,197(a5)
200a3796:	e2dfd0ef          	jal	ra,200a15c2 <SS_Endp1_Hander>
200a379a:	bfa9                	j	200a36f4 <USBSS_IRQHandler+0x46e>
200a379c:	200d64b7          	lui	s1,0x200d6
200a37a0:	d164d703          	lhu	a4,-746(s1) # 200d5d16 <USBSS_SetupReqLen>
200a37a4:	eb11                	bnez	a4,200a37b8 <USBSS_IRQHandler+0x532>
200a37a6:	00200737          	lui	a4,0x200
200a37aa:	08e7a223          	sw	a4,132(a5)
200a37ae:	00a00737          	lui	a4,0xa00
200a37b2:	08e7a423          	sw	a4,136(a5)
200a37b6:	bf3d                	j	200a36f4 <USBSS_IRQHandler+0x46e>
200a37b8:	200d6737          	lui	a4,0x200d6
200a37bc:	d1c74683          	lbu	a3,-740(a4) # 200d5d1c <USBSS_SetupReqCode>
200a37c0:	4719                	li	a4,6
200a37c2:	06e69663          	bne	a3,a4,200a382e <USBSS_IRQHandler+0x5a8>
200a37c6:	d164d703          	lhu	a4,-746(s1)
200a37ca:	1ff00793          	li	a5,511
200a37ce:	20000413          	li	s0,512
200a37d2:	00e7e663          	bltu	a5,a4,200a37de <USBSS_IRQHandler+0x558>
200a37d6:	d164d403          	lhu	s0,-746(s1)
200a37da:	08044433          	zext.h	s0,s0
200a37de:	200d69b7          	lui	s3,0x200d6
200a37e2:	d209a903          	lw	s2,-736(s3) # 200d5d20 <pUSBSS_Descr>
200a37e6:	200e8537          	lui	a0,0x200e8
200a37ea:	8622                	mv	a2,s0
200a37ec:	85ca                	mv	a1,s2
200a37ee:	fac50513          	addi	a0,a0,-84 # 200e7fac <USBSS_EP0_Buf>
200a37f2:	ac3fc0ef          	jal	ra,200a02b4 <memcpy>
200a37f6:	d164d783          	lhu	a5,-746(s1)
200a37fa:	40034737          	lui	a4,0x40034
200a37fe:	08070713          	addi	a4,a4,128 # 40034080 <_eusrstack+0x1ff34080>
200a3802:	8f81                	sub	a5,a5,s0
200a3804:	0807c7b3          	zext.h	a5,a5
200a3808:	d0f49b23          	sh	a5,-746(s1)
200a380c:	435c                	lw	a5,4(a4)
200a380e:	9922                	add	s2,s2,s0
200a3810:	d329a023          	sw	s2,-736(s3)
200a3814:	83c1                	srli	a5,a5,0x10
200a3816:	8bfd                	andi	a5,a5,31
200a3818:	0785                	addi	a5,a5,1
200a381a:	07c2                	slli	a5,a5,0x10
200a381c:	8fc1                	or	a5,a5,s0
200a381e:	29579793          	bseti	a5,a5,0x15
200a3822:	c35c                	sw	a5,4(a4)
200a3824:	435c                	lw	a5,4(a4)
200a3826:	29779793          	bseti	a5,a5,0x17
200a382a:	c35c                	sw	a5,4(a4)
200a382c:	b5e1                	j	200a36f4 <USBSS_IRQHandler+0x46e>
200a382e:	00200737          	lui	a4,0x200
200a3832:	08e7a223          	sw	a4,132(a5)
200a3836:	bd7d                	j	200a36f4 <USBSS_IRQHandler+0x46e>
200a3838:	c685                	beqz	a3,200a3860 <USBSS_IRQHandler+0x5da>
200a383a:	4705                	li	a4,1
200a383c:	eae69ce3          	bne	a3,a4,200a36f4 <USBSS_IRQHandler+0x46e>
200a3840:	200d8737          	lui	a4,0x200d8
200a3844:	fac70713          	addi	a4,a4,-84 # 200d7fac <USBSS_EP1_Rx_Buf>
200a3848:	0ce7ae23          	sw	a4,220(a5)
200a384c:	4741                	li	a4,16
200a384e:	0ce78c23          	sb	a4,216(a5)
200a3852:	0d57c703          	lbu	a4,213(a5)
200a3856:	04076713          	ori	a4,a4,64
200a385a:	0ce78aa3          	sb	a4,213(a5)
200a385e:	bd59                	j	200a36f4 <USBSS_IRQHandler+0x46e>
200a3860:	00a00737          	lui	a4,0xa00
200a3864:	08e7a423          	sw	a4,136(a5)
200a3868:	0887a783          	lw	a5,136(a5)
200a386c:	4769                	li	a4,26
200a386e:	7ff7f793          	andi	a5,a5,2047
200a3872:	e8e791e3          	bne	a5,a4,200a36f4 <USBSS_IRQHandler+0x46e>
200a3876:	200e8737          	lui	a4,0x200e8
200a387a:	fac70713          	addi	a4,a4,-84 # 200e7fac <USBSS_EP0_Buf>
200a387e:	200d6437          	lui	s0,0x200d6
200a3882:	233c                	lbu	a5,2(a4)
200a3884:	3334                	lbu	a3,3(a4)
200a3886:	d1244703          	lbu	a4,-750(s0) # 200d5d12 <format.1>
200a388a:	200d64b7          	lui	s1,0x200d6
200a388e:	00f71663          	bne	a4,a5,200a389a <USBSS_IRQHandler+0x614>
200a3892:	d114c703          	lbu	a4,-751(s1) # 200d5d11 <frame.0>
200a3896:	e4d70fe3          	beq	a4,a3,200a36f4 <USBSS_IRQHandler+0x46e>
200a389a:	200c0737          	lui	a4,0x200c0
200a389e:	38070713          	addi	a4,a4,896 # 200c0380 <Get_Curr>
200a38a2:	a33c                	sb	a5,2(a4)
200a38a4:	b334                	sb	a3,3(a4)
200a38a6:	80f18e23          	sb	a5,-2020(gp) # 200c1c14 <Formatchange_flag>
200a38aa:	81c1c503          	lbu	a0,-2020(gp) # 200c1c14 <Formatchange_flag>
200a38ae:	d0f40923          	sb	a5,-750(s0)
200a38b2:	d0d488a3          	sb	a3,-751(s1)
200a38b6:	d6afe0ef          	jal	ra,200a1e20 <OV2640_Format_Mode>
200a38ba:	d114c583          	lbu	a1,-751(s1)
200a38be:	d1244503          	lbu	a0,-750(s0)
200a38c2:	e8afe0ef          	jal	ra,200a1f4c <OV2640_Change_Resolution>
200a38c6:	b53d                	j	200a36f4 <USBSS_IRQHandler+0x46e>

200a38c8 <__udivdi3>:
200a38c8:	8832                	mv	a6,a2
200a38ca:	88aa                	mv	a7,a0
200a38cc:	872e                	mv	a4,a1
200a38ce:	eacd                	bnez	a3,200a3980 <__udivdi3+0xb8>
200a38d0:	0ec5ff63          	bgeu	a1,a2,200a39ce <__udivdi3+0x106>
200a38d4:	67c1                	lui	a5,0x10
200a38d6:	18f66a63          	bltu	a2,a5,200a3a6a <__udivdi3+0x1a2>
200a38da:	010007b7          	lui	a5,0x1000
200a38de:	00f637b3          	sltu	a5,a2,a5
200a38e2:	40f007b3          	neg	a5,a5
200a38e6:	9be1                	andi	a5,a5,-8
200a38e8:	07e1                	addi	a5,a5,24 # 1000018 <_data_lma+0xfc5e70>
200a38ea:	00f65333          	srl	t1,a2,a5
200a38ee:	00006697          	auipc	a3,0x6
200a38f2:	21668693          	addi	a3,a3,534 # 200a9b04 <__clz_tab>
200a38f6:	969a                	add	a3,a3,t1
200a38f8:	2294                	lbu	a3,0(a3)
200a38fa:	02000313          	li	t1,32
200a38fe:	97b6                	add	a5,a5,a3
200a3900:	40f306b3          	sub	a3,t1,a5
200a3904:	00f30b63          	beq	t1,a5,200a391a <__udivdi3+0x52>
200a3908:	00d59733          	sll	a4,a1,a3
200a390c:	00f557b3          	srl	a5,a0,a5
200a3910:	00d61833          	sll	a6,a2,a3
200a3914:	8f5d                	or	a4,a4,a5
200a3916:	00d518b3          	sll	a7,a0,a3
200a391a:	01085613          	srli	a2,a6,0x10
200a391e:	02c75533          	divu	a0,a4,a2
200a3922:	080846b3          	zext.h	a3,a6
200a3926:	0108d793          	srli	a5,a7,0x10
200a392a:	02c77733          	remu	a4,a4,a2
200a392e:	02a685b3          	mul	a1,a3,a0
200a3932:	0742                	slli	a4,a4,0x10
200a3934:	8fd9                	or	a5,a5,a4
200a3936:	00b7fa63          	bgeu	a5,a1,200a394a <__udivdi3+0x82>
200a393a:	97c2                	add	a5,a5,a6
200a393c:	fff50713          	addi	a4,a0,-1
200a3940:	0107e463          	bltu	a5,a6,200a3948 <__udivdi3+0x80>
200a3944:	30b7e863          	bltu	a5,a1,200a3c54 <__udivdi3+0x38c>
200a3948:	853a                	mv	a0,a4
200a394a:	8f8d                	sub	a5,a5,a1
200a394c:	02c7d733          	divu	a4,a5,a2
200a3950:	0808c8b3          	zext.h	a7,a7
200a3954:	02c7f7b3          	remu	a5,a5,a2
200a3958:	02e686b3          	mul	a3,a3,a4
200a395c:	07c2                	slli	a5,a5,0x10
200a395e:	00f8e8b3          	or	a7,a7,a5
200a3962:	00d8fb63          	bgeu	a7,a3,200a3978 <__udivdi3+0xb0>
200a3966:	98c2                	add	a7,a7,a6
200a3968:	fff70793          	addi	a5,a4,-1
200a396c:	0108e563          	bltu	a7,a6,200a3976 <__udivdi3+0xae>
200a3970:	1779                	addi	a4,a4,-2
200a3972:	00d8e363          	bltu	a7,a3,200a3978 <__udivdi3+0xb0>
200a3976:	873e                	mv	a4,a5
200a3978:	0542                	slli	a0,a0,0x10
200a397a:	8d59                	or	a0,a0,a4
200a397c:	4581                	li	a1,0
200a397e:	8082                	ret
200a3980:	00d5f563          	bgeu	a1,a3,200a398a <__udivdi3+0xc2>
200a3984:	4581                	li	a1,0
200a3986:	4501                	li	a0,0
200a3988:	8082                	ret
200a398a:	67c1                	lui	a5,0x10
200a398c:	18f6e563          	bltu	a3,a5,200a3b16 <__udivdi3+0x24e>
200a3990:	010007b7          	lui	a5,0x1000
200a3994:	00f6b7b3          	sltu	a5,a3,a5
200a3998:	40f007b3          	neg	a5,a5
200a399c:	9be1                	andi	a5,a5,-8
200a399e:	07e1                	addi	a5,a5,24 # 1000018 <_data_lma+0xfc5e70>
200a39a0:	00f6d833          	srl	a6,a3,a5
200a39a4:	00006717          	auipc	a4,0x6
200a39a8:	16070713          	addi	a4,a4,352 # 200a9b04 <__clz_tab>
200a39ac:	9742                	add	a4,a4,a6
200a39ae:	2318                	lbu	a4,0(a4)
200a39b0:	02000893          	li	a7,32
200a39b4:	973e                	add	a4,a4,a5
200a39b6:	40e88833          	sub	a6,a7,a4
200a39ba:	18e89263          	bne	a7,a4,200a3b3e <__udivdi3+0x276>
200a39be:	26b6ed63          	bltu	a3,a1,200a3c38 <__udivdi3+0x370>
200a39c2:	00c53533          	sltu	a0,a0,a2
200a39c6:	00154513          	xori	a0,a0,1
200a39ca:	4581                	li	a1,0
200a39cc:	8082                	ret
200a39ce:	c645                	beqz	a2,200a3a76 <__udivdi3+0x1ae>
200a39d0:	67c1                	lui	a5,0x10
200a39d2:	24f67b63          	bgeu	a2,a5,200a3c28 <__udivdi3+0x360>
200a39d6:	10063713          	sltiu	a4,a2,256
200a39da:	00174713          	xori	a4,a4,1
200a39de:	070e                	slli	a4,a4,0x3
200a39e0:	00e656b3          	srl	a3,a2,a4
200a39e4:	00006797          	auipc	a5,0x6
200a39e8:	12078793          	addi	a5,a5,288 # 200a9b04 <__clz_tab>
200a39ec:	97b6                	add	a5,a5,a3
200a39ee:	239c                	lbu	a5,0(a5)
200a39f0:	02000693          	li	a3,32
200a39f4:	97ba                	add	a5,a5,a4
200a39f6:	40f68eb3          	sub	t4,a3,a5
200a39fa:	08f69d63          	bne	a3,a5,200a3a94 <__udivdi3+0x1cc>
200a39fe:	40c587b3          	sub	a5,a1,a2
200a3a02:	4585                	li	a1,1
200a3a04:	01065693          	srli	a3,a2,0x10
200a3a08:	08064633          	zext.h	a2,a2
200a3a0c:	02d7d533          	divu	a0,a5,a3
200a3a10:	0108d713          	srli	a4,a7,0x10
200a3a14:	02d7f7b3          	remu	a5,a5,a3
200a3a18:	02c50333          	mul	t1,a0,a2
200a3a1c:	07c2                	slli	a5,a5,0x10
200a3a1e:	8fd9                	or	a5,a5,a4
200a3a20:	0067fa63          	bgeu	a5,t1,200a3a34 <__udivdi3+0x16c>
200a3a24:	97c2                	add	a5,a5,a6
200a3a26:	fff50713          	addi	a4,a0,-1
200a3a2a:	0107e463          	bltu	a5,a6,200a3a32 <__udivdi3+0x16a>
200a3a2e:	2267e063          	bltu	a5,t1,200a3c4e <__udivdi3+0x386>
200a3a32:	853a                	mv	a0,a4
200a3a34:	406787b3          	sub	a5,a5,t1
200a3a38:	02d7d733          	divu	a4,a5,a3
200a3a3c:	0808c8b3          	zext.h	a7,a7
200a3a40:	02d7f7b3          	remu	a5,a5,a3
200a3a44:	02c70633          	mul	a2,a4,a2
200a3a48:	07c2                	slli	a5,a5,0x10
200a3a4a:	00f8e8b3          	or	a7,a7,a5
200a3a4e:	00c8fb63          	bgeu	a7,a2,200a3a64 <__udivdi3+0x19c>
200a3a52:	98c2                	add	a7,a7,a6
200a3a54:	fff70793          	addi	a5,a4,-1
200a3a58:	0108e563          	bltu	a7,a6,200a3a62 <__udivdi3+0x19a>
200a3a5c:	1779                	addi	a4,a4,-2
200a3a5e:	00c8e363          	bltu	a7,a2,200a3a64 <__udivdi3+0x19c>
200a3a62:	873e                	mv	a4,a5
200a3a64:	0542                	slli	a0,a0,0x10
200a3a66:	8d59                	or	a0,a0,a4
200a3a68:	8082                	ret
200a3a6a:	10063793          	sltiu	a5,a2,256
200a3a6e:	0017c793          	xori	a5,a5,1
200a3a72:	078e                	slli	a5,a5,0x3
200a3a74:	bd9d                	j	200a38ea <__udivdi3+0x22>
200a3a76:	4681                	li	a3,0
200a3a78:	00006797          	auipc	a5,0x6
200a3a7c:	08c78793          	addi	a5,a5,140 # 200a9b04 <__clz_tab>
200a3a80:	97b6                	add	a5,a5,a3
200a3a82:	239c                	lbu	a5,0(a5)
200a3a84:	4701                	li	a4,0
200a3a86:	02000693          	li	a3,32
200a3a8a:	97ba                	add	a5,a5,a4
200a3a8c:	40f68eb3          	sub	t4,a3,a5
200a3a90:	f6f687e3          	beq	a3,a5,200a39fe <__udivdi3+0x136>
200a3a94:	01d61833          	sll	a6,a2,t4
200a3a98:	00f5d333          	srl	t1,a1,a5
200a3a9c:	01085693          	srli	a3,a6,0x10
200a3aa0:	02d35e33          	divu	t3,t1,a3
200a3aa4:	01d595b3          	sll	a1,a1,t4
200a3aa8:	00f557b3          	srl	a5,a0,a5
200a3aac:	8fcd                	or	a5,a5,a1
200a3aae:	08084633          	zext.h	a2,a6
200a3ab2:	0107d713          	srli	a4,a5,0x10
200a3ab6:	01d518b3          	sll	a7,a0,t4
200a3aba:	02d37333          	remu	t1,t1,a3
200a3abe:	03c605b3          	mul	a1,a2,t3
200a3ac2:	0342                	slli	t1,t1,0x10
200a3ac4:	00676733          	or	a4,a4,t1
200a3ac8:	00b77b63          	bgeu	a4,a1,200a3ade <__udivdi3+0x216>
200a3acc:	9742                	add	a4,a4,a6
200a3ace:	fffe0513          	addi	a0,t3,-1
200a3ad2:	17076a63          	bltu	a4,a6,200a3c46 <__udivdi3+0x37e>
200a3ad6:	16b77863          	bgeu	a4,a1,200a3c46 <__udivdi3+0x37e>
200a3ada:	1e79                	addi	t3,t3,-2
200a3adc:	9742                	add	a4,a4,a6
200a3ade:	8f0d                	sub	a4,a4,a1
200a3ae0:	02d75533          	divu	a0,a4,a3
200a3ae4:	0807c7b3          	zext.h	a5,a5
200a3ae8:	02d77733          	remu	a4,a4,a3
200a3aec:	02a60333          	mul	t1,a2,a0
200a3af0:	0742                	slli	a4,a4,0x10
200a3af2:	8fd9                	or	a5,a5,a4
200a3af4:	0067fb63          	bgeu	a5,t1,200a3b0a <__udivdi3+0x242>
200a3af8:	97c2                	add	a5,a5,a6
200a3afa:	fff50713          	addi	a4,a0,-1
200a3afe:	1507e063          	bltu	a5,a6,200a3c3e <__udivdi3+0x376>
200a3b02:	1267fe63          	bgeu	a5,t1,200a3c3e <__udivdi3+0x376>
200a3b06:	1579                	addi	a0,a0,-2
200a3b08:	97c2                	add	a5,a5,a6
200a3b0a:	010e1593          	slli	a1,t3,0x10
200a3b0e:	406787b3          	sub	a5,a5,t1
200a3b12:	8dc9                	or	a1,a1,a0
200a3b14:	bde5                	j	200a3a0c <__udivdi3+0x144>
200a3b16:	1006b793          	sltiu	a5,a3,256
200a3b1a:	0017c793          	xori	a5,a5,1
200a3b1e:	078e                	slli	a5,a5,0x3
200a3b20:	00f6d833          	srl	a6,a3,a5
200a3b24:	00006717          	auipc	a4,0x6
200a3b28:	fe070713          	addi	a4,a4,-32 # 200a9b04 <__clz_tab>
200a3b2c:	9742                	add	a4,a4,a6
200a3b2e:	2318                	lbu	a4,0(a4)
200a3b30:	02000893          	li	a7,32
200a3b34:	973e                	add	a4,a4,a5
200a3b36:	40e88833          	sub	a6,a7,a4
200a3b3a:	e8e882e3          	beq	a7,a4,200a39be <__udivdi3+0xf6>
200a3b3e:	00e65e33          	srl	t3,a2,a4
200a3b42:	010696b3          	sll	a3,a3,a6
200a3b46:	00de6e33          	or	t3,t3,a3
200a3b4a:	00e5d8b3          	srl	a7,a1,a4
200a3b4e:	010e5e93          	srli	t4,t3,0x10
200a3b52:	03d8d7b3          	divu	a5,a7,t4
200a3b56:	010595b3          	sll	a1,a1,a6
200a3b5a:	00e55733          	srl	a4,a0,a4
200a3b5e:	8f4d                	or	a4,a4,a1
200a3b60:	080e4333          	zext.h	t1,t3
200a3b64:	01075693          	srli	a3,a4,0x10
200a3b68:	01061633          	sll	a2,a2,a6
200a3b6c:	03d8f8b3          	remu	a7,a7,t4
200a3b70:	02f305b3          	mul	a1,t1,a5
200a3b74:	08c2                	slli	a7,a7,0x10
200a3b76:	0116e6b3          	or	a3,a3,a7
200a3b7a:	00b6fb63          	bgeu	a3,a1,200a3b90 <__udivdi3+0x2c8>
200a3b7e:	96f2                	add	a3,a3,t3
200a3b80:	fff78893          	addi	a7,a5,-1
200a3b84:	0dc6e363          	bltu	a3,t3,200a3c4a <__udivdi3+0x382>
200a3b88:	0cb6f163          	bgeu	a3,a1,200a3c4a <__udivdi3+0x382>
200a3b8c:	17f9                	addi	a5,a5,-2
200a3b8e:	96f2                	add	a3,a3,t3
200a3b90:	8e8d                	sub	a3,a3,a1
200a3b92:	03d6d5b3          	divu	a1,a3,t4
200a3b96:	08074733          	zext.h	a4,a4
200a3b9a:	03d6f6b3          	remu	a3,a3,t4
200a3b9e:	02b308b3          	mul	a7,t1,a1
200a3ba2:	06c2                	slli	a3,a3,0x10
200a3ba4:	8f55                	or	a4,a4,a3
200a3ba6:	01177b63          	bgeu	a4,a7,200a3bbc <__udivdi3+0x2f4>
200a3baa:	9772                	add	a4,a4,t3
200a3bac:	fff58693          	addi	a3,a1,-1 # 40033fff <_eusrstack+0x1ff33fff>
200a3bb0:	09c76963          	bltu	a4,t3,200a3c42 <__udivdi3+0x37a>
200a3bb4:	09177763          	bgeu	a4,a7,200a3c42 <__udivdi3+0x37a>
200a3bb8:	15f9                	addi	a1,a1,-2
200a3bba:	9772                	add	a4,a4,t3
200a3bbc:	07c2                	slli	a5,a5,0x10
200a3bbe:	6ec1                	lui	t4,0x10
200a3bc0:	8fcd                	or	a5,a5,a1
200a3bc2:	fffe8693          	addi	a3,t4,-1 # ffff <__stack_size+0xf7ff>
200a3bc6:	00d7f5b3          	and	a1,a5,a3
200a3bca:	0107d313          	srli	t1,a5,0x10
200a3bce:	8ef1                	and	a3,a3,a2
200a3bd0:	8241                	srli	a2,a2,0x10
200a3bd2:	02d58e33          	mul	t3,a1,a3
200a3bd6:	41170733          	sub	a4,a4,a7
200a3bda:	02d306b3          	mul	a3,t1,a3
200a3bde:	010e5893          	srli	a7,t3,0x10
200a3be2:	02c585b3          	mul	a1,a1,a2
200a3be6:	95b6                	add	a1,a1,a3
200a3be8:	95c6                	add	a1,a1,a7
200a3bea:	02c30333          	mul	t1,t1,a2
200a3bee:	00d5f363          	bgeu	a1,a3,200a3bf4 <__udivdi3+0x32c>
200a3bf2:	9376                	add	t1,t1,t4
200a3bf4:	0105d693          	srli	a3,a1,0x10
200a3bf8:	969a                	add	a3,a3,t1
200a3bfa:	02d76363          	bltu	a4,a3,200a3c20 <__udivdi3+0x358>
200a3bfe:	00d70563          	beq	a4,a3,200a3c08 <__udivdi3+0x340>
200a3c02:	853e                	mv	a0,a5
200a3c04:	4581                	li	a1,0
200a3c06:	8082                	ret
200a3c08:	66c1                	lui	a3,0x10
200a3c0a:	16fd                	addi	a3,a3,-1 # ffff <__stack_size+0xf7ff>
200a3c0c:	00d5f733          	and	a4,a1,a3
200a3c10:	0742                	slli	a4,a4,0x10
200a3c12:	00de7e33          	and	t3,t3,a3
200a3c16:	01051533          	sll	a0,a0,a6
200a3c1a:	9772                	add	a4,a4,t3
200a3c1c:	fee573e3          	bgeu	a0,a4,200a3c02 <__udivdi3+0x33a>
200a3c20:	fff78513          	addi	a0,a5,-1
200a3c24:	4581                	li	a1,0
200a3c26:	8082                	ret
200a3c28:	010007b7          	lui	a5,0x1000
200a3c2c:	02f67763          	bgeu	a2,a5,200a3c5a <__udivdi3+0x392>
200a3c30:	01065693          	srli	a3,a2,0x10
200a3c34:	4741                	li	a4,16
200a3c36:	b37d                	j	200a39e4 <__udivdi3+0x11c>
200a3c38:	4581                	li	a1,0
200a3c3a:	4505                	li	a0,1
200a3c3c:	8082                	ret
200a3c3e:	853a                	mv	a0,a4
200a3c40:	b5e9                	j	200a3b0a <__udivdi3+0x242>
200a3c42:	85b6                	mv	a1,a3
200a3c44:	bfa5                	j	200a3bbc <__udivdi3+0x2f4>
200a3c46:	8e2a                	mv	t3,a0
200a3c48:	bd59                	j	200a3ade <__udivdi3+0x216>
200a3c4a:	87c6                	mv	a5,a7
200a3c4c:	b791                	j	200a3b90 <__udivdi3+0x2c8>
200a3c4e:	1579                	addi	a0,a0,-2
200a3c50:	97c2                	add	a5,a5,a6
200a3c52:	b3cd                	j	200a3a34 <__udivdi3+0x16c>
200a3c54:	1579                	addi	a0,a0,-2
200a3c56:	97c2                	add	a5,a5,a6
200a3c58:	b9cd                	j	200a394a <__udivdi3+0x82>
200a3c5a:	01865693          	srli	a3,a2,0x18
200a3c5e:	4761                	li	a4,24
200a3c60:	b351                	j	200a39e4 <__udivdi3+0x11c>

200a3c62 <__adddf3>:
200a3c62:	001007b7          	lui	a5,0x100
200a3c66:	17fd                	addi	a5,a5,-1 # fffff <_data_lma+0xc5e57>
200a3c68:	00b7f8b3          	and	a7,a5,a1
200a3c6c:	00d7f833          	and	a6,a5,a3
200a3c70:	0146de13          	srli	t3,a3,0x14
200a3c74:	0145d793          	srli	a5,a1,0x14
200a3c78:	088e                	slli	a7,a7,0x3
200a3c7a:	01d65313          	srli	t1,a2,0x1d
200a3c7e:	01d55713          	srli	a4,a0,0x1d
200a3c82:	080e                	slli	a6,a6,0x3
200a3c84:	7ff7f793          	andi	a5,a5,2047
200a3c88:	7ffe7e13          	andi	t3,t3,2047
200a3c8c:	81fd                	srli	a1,a1,0x1f
200a3c8e:	82fd                	srli	a3,a3,0x1f
200a3c90:	01176733          	or	a4,a4,a7
200a3c94:	01036833          	or	a6,t1,a6
200a3c98:	00351e93          	slli	t4,a0,0x3
200a3c9c:	00361313          	slli	t1,a2,0x3
200a3ca0:	41c788b3          	sub	a7,a5,t3
200a3ca4:	16d58863          	beq	a1,a3,200a3e14 <__adddf3+0x1b2>
200a3ca8:	11105063          	blez	a7,200a3da8 <__adddf3+0x146>
200a3cac:	1e0e0b63          	beqz	t3,200a3ea2 <__adddf3+0x240>
200a3cb0:	7ff00693          	li	a3,2047
200a3cb4:	54d78d63          	beq	a5,a3,200a420e <__adddf3+0x5ac>
200a3cb8:	03800693          	li	a3,56
200a3cbc:	4605                	li	a2,1
200a3cbe:	29781813          	bseti	a6,a6,0x17
200a3cc2:	0316c763          	blt	a3,a7,200a3cf0 <__adddf3+0x8e>
200a3cc6:	46fd                	li	a3,31
200a3cc8:	4116cb63          	blt	a3,a7,200a40de <__adddf3+0x47c>
200a3ccc:	02000693          	li	a3,32
200a3cd0:	411686b3          	sub	a3,a3,a7
200a3cd4:	00d81633          	sll	a2,a6,a3
200a3cd8:	01135533          	srl	a0,t1,a7
200a3cdc:	00d316b3          	sll	a3,t1,a3
200a3ce0:	8e49                	or	a2,a2,a0
200a3ce2:	00d036b3          	snez	a3,a3
200a3ce6:	011858b3          	srl	a7,a6,a7
200a3cea:	8e55                	or	a2,a2,a3
200a3cec:	41170733          	sub	a4,a4,a7
200a3cf0:	40ce8633          	sub	a2,t4,a2
200a3cf4:	00ceb6b3          	sltu	a3,t4,a2
200a3cf8:	8f15                	sub	a4,a4,a3
200a3cfa:	008006b7          	lui	a3,0x800
200a3cfe:	00d77533          	and	a0,a4,a3
200a3d02:	24050563          	beqz	a0,200a3f4c <__adddf3+0x2ea>
200a3d06:	16fd                	addi	a3,a3,-1 # 7fffff <_data_lma+0x7c5e57>
200a3d08:	8f75                	and	a4,a4,a3
200a3d0a:	26070f63          	beqz	a4,200a3f88 <__adddf3+0x326>
200a3d0e:	60071693          	clz	a3,a4
200a3d12:	16e1                	addi	a3,a3,-8
200a3d14:	02000513          	li	a0,32
200a3d18:	40d508b3          	sub	a7,a0,a3
200a3d1c:	011658b3          	srl	a7,a2,a7
200a3d20:	00d71733          	sll	a4,a4,a3
200a3d24:	00e8e8b3          	or	a7,a7,a4
200a3d28:	00d61633          	sll	a2,a2,a3
200a3d2c:	32f6c163          	blt	a3,a5,200a404e <__adddf3+0x3ec>
200a3d30:	8e9d                	sub	a3,a3,a5
200a3d32:	0685                	addi	a3,a3,1
200a3d34:	8d15                	sub	a0,a0,a3
200a3d36:	00a617b3          	sll	a5,a2,a0
200a3d3a:	00d65733          	srl	a4,a2,a3
200a3d3e:	00f037b3          	snez	a5,a5
200a3d42:	8fd9                	or	a5,a5,a4
200a3d44:	00a89533          	sll	a0,a7,a0
200a3d48:	00f56633          	or	a2,a0,a5
200a3d4c:	00d8d733          	srl	a4,a7,a3
200a3d50:	4781                	li	a5,0
200a3d52:	00767693          	andi	a3,a2,7
200a3d56:	ce81                	beqz	a3,200a3d6e <__adddf3+0x10c>
200a3d58:	00f67693          	andi	a3,a2,15
200a3d5c:	4511                	li	a0,4
200a3d5e:	00a68863          	beq	a3,a0,200a3d6e <__adddf3+0x10c>
200a3d62:	00460693          	addi	a3,a2,4 # 1004 <__stack_size+0x804>
200a3d66:	00c6b633          	sltu	a2,a3,a2
200a3d6a:	9732                	add	a4,a4,a2
200a3d6c:	8636                	mv	a2,a3
200a3d6e:	008006b7          	lui	a3,0x800
200a3d72:	8ef9                	and	a3,a3,a4
200a3d74:	26068263          	beqz	a3,200a3fd8 <__adddf3+0x376>
200a3d78:	0785                	addi	a5,a5,1
200a3d7a:	7ff00693          	li	a3,2047
200a3d7e:	1ad78a63          	beq	a5,a3,200a3f32 <__adddf3+0x2d0>
200a3d82:	820d                	srli	a2,a2,0x3
200a3d84:	01d71893          	slli	a7,a4,0x1d
200a3d88:	00971813          	slli	a6,a4,0x9
200a3d8c:	00c8e8b3          	or	a7,a7,a2
200a3d90:	00c85813          	srli	a6,a6,0xc
200a3d94:	7ff7f793          	andi	a5,a5,2047
200a3d98:	07d2                	slli	a5,a5,0x14
200a3d9a:	0107e7b3          	or	a5,a5,a6
200a3d9e:	05fe                	slli	a1,a1,0x1f
200a3da0:	8fcd                	or	a5,a5,a1
200a3da2:	8546                	mv	a0,a7
200a3da4:	85be                	mv	a1,a5
200a3da6:	8082                	ret
200a3da8:	12088063          	beqz	a7,200a3ec8 <__adddf3+0x266>
200a3dac:	40fe08b3          	sub	a7,t3,a5
200a3db0:	30079b63          	bnez	a5,200a40c6 <__adddf3+0x464>
200a3db4:	01d767b3          	or	a5,a4,t4
200a3db8:	28078463          	beqz	a5,200a4040 <__adddf3+0x3de>
200a3dbc:	fff88793          	addi	a5,a7,-1
200a3dc0:	4e078263          	beqz	a5,200a42a4 <__adddf3+0x642>
200a3dc4:	7ff00593          	li	a1,2047
200a3dc8:	44b88c63          	beq	a7,a1,200a4220 <__adddf3+0x5be>
200a3dcc:	03800593          	li	a1,56
200a3dd0:	4605                	li	a2,1
200a3dd2:	02f5c863          	blt	a1,a5,200a3e02 <__adddf3+0x1a0>
200a3dd6:	88be                	mv	a7,a5
200a3dd8:	47fd                	li	a5,31
200a3dda:	4717c663          	blt	a5,a7,200a4246 <__adddf3+0x5e4>
200a3dde:	02000793          	li	a5,32
200a3de2:	411787b3          	sub	a5,a5,a7
200a3de6:	00f71633          	sll	a2,a4,a5
200a3dea:	011ed5b3          	srl	a1,t4,a7
200a3dee:	00fe97b3          	sll	a5,t4,a5
200a3df2:	8e4d                	or	a2,a2,a1
200a3df4:	00f037b3          	snez	a5,a5
200a3df8:	011758b3          	srl	a7,a4,a7
200a3dfc:	8e5d                	or	a2,a2,a5
200a3dfe:	41180833          	sub	a6,a6,a7
200a3e02:	40c30633          	sub	a2,t1,a2
200a3e06:	00c33333          	sltu	t1,t1,a2
200a3e0a:	40680733          	sub	a4,a6,t1
200a3e0e:	87f2                	mv	a5,t3
200a3e10:	85b6                	mv	a1,a3
200a3e12:	b5e5                	j	200a3cfa <__adddf3+0x98>
200a3e14:	15105163          	blez	a7,200a3f56 <__adddf3+0x2f4>
200a3e18:	100e1163          	bnez	t3,200a3f1a <__adddf3+0x2b8>
200a3e1c:	006866b3          	or	a3,a6,t1
200a3e20:	22068363          	beqz	a3,200a4046 <__adddf3+0x3e4>
200a3e24:	fff88693          	addi	a3,a7,-1
200a3e28:	3a068a63          	beqz	a3,200a41dc <__adddf3+0x57a>
200a3e2c:	7ff00613          	li	a2,2047
200a3e30:	48c88663          	beq	a7,a2,200a42bc <__adddf3+0x65a>
200a3e34:	03800513          	li	a0,56
200a3e38:	4605                	li	a2,1
200a3e3a:	02d54963          	blt	a0,a3,200a3e6c <__adddf3+0x20a>
200a3e3e:	88b6                	mv	a7,a3
200a3e40:	46fd                	li	a3,31
200a3e42:	3316d063          	bge	a3,a7,200a4162 <__adddf3+0x500>
200a3e46:	fe088693          	addi	a3,a7,-32
200a3e4a:	02000613          	li	a2,32
200a3e4e:	00d856b3          	srl	a3,a6,a3
200a3e52:	00c88a63          	beq	a7,a2,200a3e66 <__adddf3+0x204>
200a3e56:	04000613          	li	a2,64
200a3e5a:	41160633          	sub	a2,a2,a7
200a3e5e:	00c81633          	sll	a2,a6,a2
200a3e62:	00c36333          	or	t1,t1,a2
200a3e66:	00603633          	snez	a2,t1
200a3e6a:	8e55                	or	a2,a2,a3
200a3e6c:	01d606b3          	add	a3,a2,t4
200a3e70:	00c6b533          	sltu	a0,a3,a2
200a3e74:	972a                	add	a4,a4,a0
200a3e76:	8636                	mv	a2,a3
200a3e78:	008006b7          	lui	a3,0x800
200a3e7c:	8ef9                	and	a3,a3,a4
200a3e7e:	c6f9                	beqz	a3,200a3f4c <__adddf3+0x2ea>
200a3e80:	0785                	addi	a5,a5,1
200a3e82:	7ff00693          	li	a3,2047
200a3e86:	0ad78663          	beq	a5,a3,200a3f32 <__adddf3+0x2d0>
200a3e8a:	00165693          	srli	a3,a2,0x1
200a3e8e:	8a05                	andi	a2,a2,1
200a3e90:	01f71513          	slli	a0,a4,0x1f
200a3e94:	8ed1                	or	a3,a3,a2
200a3e96:	49771713          	bclri	a4,a4,0x17
200a3e9a:	00d56633          	or	a2,a0,a3
200a3e9e:	8305                	srli	a4,a4,0x1
200a3ea0:	bd4d                	j	200a3d52 <__adddf3+0xf0>
200a3ea2:	006866b3          	or	a3,a6,t1
200a3ea6:	1a068063          	beqz	a3,200a4046 <__adddf3+0x3e4>
200a3eaa:	fff88693          	addi	a3,a7,-1
200a3eae:	34068563          	beqz	a3,200a41f8 <__adddf3+0x596>
200a3eb2:	7ff00613          	li	a2,2047
200a3eb6:	14c88a63          	beq	a7,a2,200a400a <__adddf3+0x3a8>
200a3eba:	03800513          	li	a0,56
200a3ebe:	4605                	li	a2,1
200a3ec0:	e2d548e3          	blt	a0,a3,200a3cf0 <__adddf3+0x8e>
200a3ec4:	88b6                	mv	a7,a3
200a3ec6:	b501                	j	200a3cc6 <__adddf3+0x64>
200a3ec8:	00178893          	addi	a7,a5,1
200a3ecc:	7fe8f893          	andi	a7,a7,2046
200a3ed0:	1c089463          	bnez	a7,200a4098 <__adddf3+0x436>
200a3ed4:	01d76e33          	or	t3,a4,t4
200a3ed8:	006868b3          	or	a7,a6,t1
200a3edc:	2e079663          	bnez	a5,200a41c8 <__adddf3+0x566>
200a3ee0:	3a0e0563          	beqz	t3,200a428a <__adddf3+0x628>
200a3ee4:	3e088663          	beqz	a7,200a42d0 <__adddf3+0x66e>
200a3ee8:	406e8633          	sub	a2,t4,t1
200a3eec:	00ceb533          	sltu	a0,t4,a2
200a3ef0:	41070e33          	sub	t3,a4,a6
200a3ef4:	40ae0e33          	sub	t3,t3,a0
200a3ef8:	00800537          	lui	a0,0x800
200a3efc:	00ae7533          	and	a0,t3,a0
200a3f00:	42050e63          	beqz	a0,200a433c <__adddf3+0x6da>
200a3f04:	41d30eb3          	sub	t4,t1,t4
200a3f08:	40e80833          	sub	a6,a6,a4
200a3f0c:	01d33333          	sltu	t1,t1,t4
200a3f10:	8676                	mv	a2,t4
200a3f12:	40680733          	sub	a4,a6,t1
200a3f16:	85b6                	mv	a1,a3
200a3f18:	bd2d                	j	200a3d52 <__adddf3+0xf0>
200a3f1a:	7ff00693          	li	a3,2047
200a3f1e:	0ed78663          	beq	a5,a3,200a400a <__adddf3+0x3a8>
200a3f22:	03800693          	li	a3,56
200a3f26:	4605                	li	a2,1
200a3f28:	29781813          	bseti	a6,a6,0x17
200a3f2c:	f116dae3          	bge	a3,a7,200a3e40 <__adddf3+0x1de>
200a3f30:	bf35                	j	200a3e6c <__adddf3+0x20a>
200a3f32:	7ff00793          	li	a5,2047
200a3f36:	4801                	li	a6,0
200a3f38:	07d2                	slli	a5,a5,0x14
200a3f3a:	0107e7b3          	or	a5,a5,a6
200a3f3e:	05fe                	slli	a1,a1,0x1f
200a3f40:	4881                	li	a7,0
200a3f42:	8fcd                	or	a5,a5,a1
200a3f44:	8546                	mv	a0,a7
200a3f46:	85be                	mv	a1,a5
200a3f48:	8082                	ret
200a3f4a:	4785                	li	a5,1
200a3f4c:	00767513          	andi	a0,a2,7
200a3f50:	e00514e3          	bnez	a0,200a3d58 <__adddf3+0xf6>
200a3f54:	aa3d                	j	200a4092 <__adddf3+0x430>
200a3f56:	10088063          	beqz	a7,200a4056 <__adddf3+0x3f4>
200a3f5a:	40fe08b3          	sub	a7,t3,a5
200a3f5e:	1a079463          	bnez	a5,200a4106 <__adddf3+0x4a4>
200a3f62:	01d767b3          	or	a5,a4,t4
200a3f66:	36078f63          	beqz	a5,200a42e4 <__adddf3+0x682>
200a3f6a:	fff88693          	addi	a3,a7,-1
200a3f6e:	26068763          	beqz	a3,200a41dc <__adddf3+0x57a>
200a3f72:	7ff00793          	li	a5,2047
200a3f76:	2af88f63          	beq	a7,a5,200a4234 <__adddf3+0x5d2>
200a3f7a:	03800613          	li	a2,56
200a3f7e:	4785                	li	a5,1
200a3f80:	1cd64263          	blt	a2,a3,200a4144 <__adddf3+0x4e2>
200a3f84:	88b6                	mv	a7,a3
200a3f86:	aa59                	j	200a411c <__adddf3+0x4ba>
200a3f88:	60061893          	clz	a7,a2
200a3f8c:	457d                	li	a0,31
200a3f8e:	01888693          	addi	a3,a7,24
200a3f92:	d8d551e3          	bge	a0,a3,200a3d14 <__adddf3+0xb2>
200a3f96:	18e1                	addi	a7,a7,-8
200a3f98:	011618b3          	sll	a7,a2,a7
200a3f9c:	1af6cc63          	blt	a3,a5,200a4154 <__adddf3+0x4f2>
200a3fa0:	40f68633          	sub	a2,a3,a5
200a3fa4:	00160693          	addi	a3,a2,1
200a3fa8:	3ad55b63          	bge	a0,a3,200a435e <__adddf3+0x6fc>
200a3fac:	1605                	addi	a2,a2,-31
200a3fae:	02000793          	li	a5,32
200a3fb2:	00c8d633          	srl	a2,a7,a2
200a3fb6:	00f68b63          	beq	a3,a5,200a3fcc <__adddf3+0x36a>
200a3fba:	04000793          	li	a5,64
200a3fbe:	8f95                	sub	a5,a5,a3
200a3fc0:	00f898b3          	sll	a7,a7,a5
200a3fc4:	011038b3          	snez	a7,a7
200a3fc8:	01166633          	or	a2,a2,a7
200a3fcc:	00767513          	andi	a0,a2,7
200a3fd0:	4781                	li	a5,0
200a3fd2:	d80513e3          	bnez	a0,200a3d58 <__adddf3+0xf6>
200a3fd6:	a875                	j	200a4092 <__adddf3+0x430>
200a3fd8:	00365693          	srli	a3,a2,0x3
200a3fdc:	01d71893          	slli	a7,a4,0x1d
200a3fe0:	7ff00613          	li	a2,2047
200a3fe4:	00d8e8b3          	or	a7,a7,a3
200a3fe8:	00375813          	srli	a6,a4,0x3
200a3fec:	02c78863          	beq	a5,a2,200a401c <__adddf3+0x3ba>
200a3ff0:	0832                	slli	a6,a6,0xc
200a3ff2:	7ff7f793          	andi	a5,a5,2047
200a3ff6:	00c85813          	srli	a6,a6,0xc
200a3ffa:	07d2                	slli	a5,a5,0x14
200a3ffc:	0107e7b3          	or	a5,a5,a6
200a4000:	05fe                	slli	a1,a1,0x1f
200a4002:	8fcd                	or	a5,a5,a1
200a4004:	8546                	mv	a0,a7
200a4006:	85be                	mv	a1,a5
200a4008:	8082                	ret
200a400a:	050e                	slli	a0,a0,0x3
200a400c:	00355893          	srli	a7,a0,0x3
200a4010:	01d71793          	slli	a5,a4,0x1d
200a4014:	00f8e8b3          	or	a7,a7,a5
200a4018:	00375813          	srli	a6,a4,0x3
200a401c:	0108e8b3          	or	a7,a7,a6
200a4020:	f00889e3          	beqz	a7,200a3f32 <__adddf3+0x2d0>
200a4024:	7ff00793          	li	a5,2047
200a4028:	00080837          	lui	a6,0x80
200a402c:	4581                	li	a1,0
200a402e:	07d2                	slli	a5,a5,0x14
200a4030:	0107e7b3          	or	a5,a5,a6
200a4034:	05fe                	slli	a1,a1,0x1f
200a4036:	4881                	li	a7,0
200a4038:	8fcd                	or	a5,a5,a1
200a403a:	8546                	mv	a0,a7
200a403c:	85be                	mv	a1,a5
200a403e:	8082                	ret
200a4040:	8e9a                	mv	t4,t1
200a4042:	8742                	mv	a4,a6
200a4044:	85b6                	mv	a1,a3
200a4046:	003ed693          	srli	a3,t4,0x3
200a404a:	87c6                	mv	a5,a7
200a404c:	bf41                	j	200a3fdc <__adddf3+0x37a>
200a404e:	8f95                	sub	a5,a5,a3
200a4050:	49789713          	bclri	a4,a7,0x17
200a4054:	b9fd                	j	200a3d52 <__adddf3+0xf0>
200a4056:	00178893          	addi	a7,a5,1
200a405a:	7fe8f693          	andi	a3,a7,2046
200a405e:	12069463          	bnez	a3,200a4186 <__adddf3+0x524>
200a4062:	01d766b3          	or	a3,a4,t4
200a4066:	20079463          	bnez	a5,200a426e <__adddf3+0x60c>
200a406a:	28068363          	beqz	a3,200a42f0 <__adddf3+0x68e>
200a406e:	006866b3          	or	a3,a6,t1
200a4072:	28068863          	beqz	a3,200a4302 <__adddf3+0x6a0>
200a4076:	9376                	add	t1,t1,t4
200a4078:	983a                	add	a6,a6,a4
200a407a:	01d336b3          	sltu	a3,t1,t4
200a407e:	00d80733          	add	a4,a6,a3
200a4082:	00800537          	lui	a0,0x800
200a4086:	8d79                	and	a0,a0,a4
200a4088:	861a                	mv	a2,t1
200a408a:	c501                	beqz	a0,200a4092 <__adddf3+0x430>
200a408c:	4785                	li	a5,1
200a408e:	49771713          	bclri	a4,a4,0x17
200a4092:	8eb2                	mv	t4,a2
200a4094:	88be                	mv	a7,a5
200a4096:	bf45                	j	200a4046 <__adddf3+0x3e4>
200a4098:	406e8633          	sub	a2,t4,t1
200a409c:	00ceb8b3          	sltu	a7,t4,a2
200a40a0:	41070533          	sub	a0,a4,a6
200a40a4:	41150533          	sub	a0,a0,a7
200a40a8:	008008b7          	lui	a7,0x800
200a40ac:	011578b3          	and	a7,a0,a7
200a40b0:	10089163          	bnez	a7,200a41b2 <__adddf3+0x550>
200a40b4:	00a668b3          	or	a7,a2,a0
200a40b8:	872a                	mv	a4,a0
200a40ba:	c40898e3          	bnez	a7,200a3d0a <__adddf3+0xa8>
200a40be:	4581                	li	a1,0
200a40c0:	4781                	li	a5,0
200a40c2:	4801                	li	a6,0
200a40c4:	b9d1                	j	200a3d98 <__adddf3+0x136>
200a40c6:	7ff00793          	li	a5,2047
200a40ca:	14fe0b63          	beq	t3,a5,200a4220 <__adddf3+0x5be>
200a40ce:	03800793          	li	a5,56
200a40d2:	4605                	li	a2,1
200a40d4:	29771713          	bseti	a4,a4,0x17
200a40d8:	d117d0e3          	bge	a5,a7,200a3dd8 <__adddf3+0x176>
200a40dc:	b31d                	j	200a3e02 <__adddf3+0x1a0>
200a40de:	fe088693          	addi	a3,a7,-32 # 7fffe0 <_data_lma+0x7c5e38>
200a40e2:	02000613          	li	a2,32
200a40e6:	00d856b3          	srl	a3,a6,a3
200a40ea:	00c88a63          	beq	a7,a2,200a40fe <__adddf3+0x49c>
200a40ee:	04000613          	li	a2,64
200a40f2:	41160633          	sub	a2,a2,a7
200a40f6:	00c81633          	sll	a2,a6,a2
200a40fa:	00c36333          	or	t1,t1,a2
200a40fe:	00603633          	snez	a2,t1
200a4102:	8e55                	or	a2,a2,a3
200a4104:	b6f5                	j	200a3cf0 <__adddf3+0x8e>
200a4106:	7ff00793          	li	a5,2047
200a410a:	12fe0563          	beq	t3,a5,200a4234 <__adddf3+0x5d2>
200a410e:	03800693          	li	a3,56
200a4112:	4785                	li	a5,1
200a4114:	29771713          	bseti	a4,a4,0x17
200a4118:	0316c663          	blt	a3,a7,200a4144 <__adddf3+0x4e2>
200a411c:	47fd                	li	a5,31
200a411e:	1f17cb63          	blt	a5,a7,200a4314 <__adddf3+0x6b2>
200a4122:	02000693          	li	a3,32
200a4126:	411686b3          	sub	a3,a3,a7
200a412a:	00d717b3          	sll	a5,a4,a3
200a412e:	011ed633          	srl	a2,t4,a7
200a4132:	00de96b3          	sll	a3,t4,a3
200a4136:	8fd1                	or	a5,a5,a2
200a4138:	00d036b3          	snez	a3,a3
200a413c:	011758b3          	srl	a7,a4,a7
200a4140:	8fd5                	or	a5,a5,a3
200a4142:	9846                	add	a6,a6,a7
200a4144:	933e                	add	t1,t1,a5
200a4146:	00f337b3          	sltu	a5,t1,a5
200a414a:	01078733          	add	a4,a5,a6
200a414e:	861a                	mv	a2,t1
200a4150:	87f2                	mv	a5,t3
200a4152:	b31d                	j	200a3e78 <__adddf3+0x216>
200a4154:	49789813          	bclri	a6,a7,0x17
200a4158:	8f95                	sub	a5,a5,a3
200a415a:	08f6                	slli	a7,a7,0x1d
200a415c:	00385813          	srli	a6,a6,0x3
200a4160:	bd41                	j	200a3ff0 <__adddf3+0x38e>
200a4162:	02000693          	li	a3,32
200a4166:	411686b3          	sub	a3,a3,a7
200a416a:	00d81633          	sll	a2,a6,a3
200a416e:	01135533          	srl	a0,t1,a7
200a4172:	00d316b3          	sll	a3,t1,a3
200a4176:	8e49                	or	a2,a2,a0
200a4178:	00d036b3          	snez	a3,a3
200a417c:	011858b3          	srl	a7,a6,a7
200a4180:	8e55                	or	a2,a2,a3
200a4182:	9746                	add	a4,a4,a7
200a4184:	b1e5                	j	200a3e6c <__adddf3+0x20a>
200a4186:	7ff00793          	li	a5,2047
200a418a:	daf884e3          	beq	a7,a5,200a3f32 <__adddf3+0x2d0>
200a418e:	006e8533          	add	a0,t4,t1
200a4192:	010707b3          	add	a5,a4,a6
200a4196:	01d536b3          	sltu	a3,a0,t4
200a419a:	97b6                	add	a5,a5,a3
200a419c:	8105                	srli	a0,a0,0x1
200a419e:	01f79613          	slli	a2,a5,0x1f
200a41a2:	8e49                	or	a2,a2,a0
200a41a4:	891d                	andi	a0,a0,7
200a41a6:	0017d713          	srli	a4,a5,0x1
200a41aa:	87c6                	mv	a5,a7
200a41ac:	ba0516e3          	bnez	a0,200a3d58 <__adddf3+0xf6>
200a41b0:	b5cd                	j	200a4092 <__adddf3+0x430>
200a41b2:	41d30eb3          	sub	t4,t1,t4
200a41b6:	40e80833          	sub	a6,a6,a4
200a41ba:	01d33333          	sltu	t1,t1,t4
200a41be:	8676                	mv	a2,t4
200a41c0:	40680733          	sub	a4,a6,t1
200a41c4:	85b6                	mv	a1,a3
200a41c6:	b691                	j	200a3d0a <__adddf3+0xa8>
200a41c8:	120e1163          	bnez	t3,200a42ea <__adddf3+0x688>
200a41cc:	16089e63          	bnez	a7,200a4348 <__adddf3+0x6e6>
200a41d0:	4581                	li	a1,0
200a41d2:	7ff00793          	li	a5,2047
200a41d6:	00080837          	lui	a6,0x80
200a41da:	be7d                	j	200a3d98 <__adddf3+0x136>
200a41dc:	9376                	add	t1,t1,t4
200a41de:	983a                	add	a6,a6,a4
200a41e0:	01d336b3          	sltu	a3,t1,t4
200a41e4:	00d80733          	add	a4,a6,a3
200a41e8:	008007b7          	lui	a5,0x800
200a41ec:	8ff9                	and	a5,a5,a4
200a41ee:	861a                	mv	a2,t1
200a41f0:	d4078de3          	beqz	a5,200a3f4a <__adddf3+0x2e8>
200a41f4:	4789                	li	a5,2
200a41f6:	b951                	j	200a3e8a <__adddf3+0x228>
200a41f8:	406e8333          	sub	t1,t4,t1
200a41fc:	41070833          	sub	a6,a4,a6
200a4200:	006eb6b3          	sltu	a3,t4,t1
200a4204:	861a                	mv	a2,t1
200a4206:	40d80733          	sub	a4,a6,a3
200a420a:	4785                	li	a5,1
200a420c:	b4fd                	j	200a3cfa <__adddf3+0x98>
200a420e:	050e                	slli	a0,a0,0x3
200a4210:	810d                	srli	a0,a0,0x3
200a4212:	01d71893          	slli	a7,a4,0x1d
200a4216:	011568b3          	or	a7,a0,a7
200a421a:	00375813          	srli	a6,a4,0x3
200a421e:	bbfd                	j	200a401c <__adddf3+0x3ba>
200a4220:	060e                	slli	a2,a2,0x3
200a4222:	01d81793          	slli	a5,a6,0x1d
200a4226:	820d                	srli	a2,a2,0x3
200a4228:	00f668b3          	or	a7,a2,a5
200a422c:	00385813          	srli	a6,a6,0x3
200a4230:	85b6                	mv	a1,a3
200a4232:	b3ed                	j	200a401c <__adddf3+0x3ba>
200a4234:	060e                	slli	a2,a2,0x3
200a4236:	01d81793          	slli	a5,a6,0x1d
200a423a:	820d                	srli	a2,a2,0x3
200a423c:	00f668b3          	or	a7,a2,a5
200a4240:	00385813          	srli	a6,a6,0x3
200a4244:	bbe1                	j	200a401c <__adddf3+0x3ba>
200a4246:	fe088793          	addi	a5,a7,-32
200a424a:	02000613          	li	a2,32
200a424e:	00f757b3          	srl	a5,a4,a5
200a4252:	00c88a63          	beq	a7,a2,200a4266 <__adddf3+0x604>
200a4256:	04000613          	li	a2,64
200a425a:	41160633          	sub	a2,a2,a7
200a425e:	00c71733          	sll	a4,a4,a2
200a4262:	00eeeeb3          	or	t4,t4,a4
200a4266:	01d03633          	snez	a2,t4
200a426a:	8e5d                	or	a2,a2,a5
200a426c:	be59                	j	200a3e02 <__adddf3+0x1a0>
200a426e:	d2f9                	beqz	a3,200a4234 <__adddf3+0x5d2>
200a4270:	00686333          	or	t1,a6,t1
200a4274:	da0318e3          	bnez	t1,200a4024 <__adddf3+0x3c2>
200a4278:	050e                	slli	a0,a0,0x3
200a427a:	810d                	srli	a0,a0,0x3
200a427c:	01d71793          	slli	a5,a4,0x1d
200a4280:	00f568b3          	or	a7,a0,a5
200a4284:	00375813          	srli	a6,a4,0x3
200a4288:	bb51                	j	200a401c <__adddf3+0x3ba>
200a428a:	e2088ae3          	beqz	a7,200a40be <__adddf3+0x45c>
200a428e:	00361713          	slli	a4,a2,0x3
200a4292:	01d81893          	slli	a7,a6,0x1d
200a4296:	830d                	srli	a4,a4,0x3
200a4298:	00e8e8b3          	or	a7,a7,a4
200a429c:	00385813          	srli	a6,a6,0x3
200a42a0:	85b6                	mv	a1,a3
200a42a2:	b3b9                	j	200a3ff0 <__adddf3+0x38e>
200a42a4:	41d30eb3          	sub	t4,t1,t4
200a42a8:	40e80833          	sub	a6,a6,a4
200a42ac:	01d33333          	sltu	t1,t1,t4
200a42b0:	8676                	mv	a2,t4
200a42b2:	40680733          	sub	a4,a6,t1
200a42b6:	85b6                	mv	a1,a3
200a42b8:	4785                	li	a5,1
200a42ba:	b481                	j	200a3cfa <__adddf3+0x98>
200a42bc:	00351793          	slli	a5,a0,0x3
200a42c0:	01d71893          	slli	a7,a4,0x1d
200a42c4:	838d                	srli	a5,a5,0x3
200a42c6:	00f8e8b3          	or	a7,a7,a5
200a42ca:	00375813          	srli	a6,a4,0x3
200a42ce:	b3b9                	j	200a401c <__adddf3+0x3ba>
200a42d0:	00351693          	slli	a3,a0,0x3
200a42d4:	01d71893          	slli	a7,a4,0x1d
200a42d8:	828d                	srli	a3,a3,0x3
200a42da:	00d8e8b3          	or	a7,a7,a3
200a42de:	00375813          	srli	a6,a4,0x3
200a42e2:	b339                	j	200a3ff0 <__adddf3+0x38e>
200a42e4:	8e9a                	mv	t4,t1
200a42e6:	8742                	mv	a4,a6
200a42e8:	bbb9                	j	200a4046 <__adddf3+0x3e4>
200a42ea:	f80887e3          	beqz	a7,200a4278 <__adddf3+0x616>
200a42ee:	bb1d                	j	200a4024 <__adddf3+0x3c2>
200a42f0:	060e                	slli	a2,a2,0x3
200a42f2:	01d81713          	slli	a4,a6,0x1d
200a42f6:	820d                	srli	a2,a2,0x3
200a42f8:	00e668b3          	or	a7,a2,a4
200a42fc:	00385813          	srli	a6,a6,0x3
200a4300:	b9c5                	j	200a3ff0 <__adddf3+0x38e>
200a4302:	050e                	slli	a0,a0,0x3
200a4304:	810d                	srli	a0,a0,0x3
200a4306:	01d71693          	slli	a3,a4,0x1d
200a430a:	00d568b3          	or	a7,a0,a3
200a430e:	00375813          	srli	a6,a4,0x3
200a4312:	b9f9                	j	200a3ff0 <__adddf3+0x38e>
200a4314:	fe088693          	addi	a3,a7,-32
200a4318:	02000793          	li	a5,32
200a431c:	00d756b3          	srl	a3,a4,a3
200a4320:	00f88a63          	beq	a7,a5,200a4334 <__adddf3+0x6d2>
200a4324:	04000793          	li	a5,64
200a4328:	411787b3          	sub	a5,a5,a7
200a432c:	00f717b3          	sll	a5,a4,a5
200a4330:	00feeeb3          	or	t4,t4,a5
200a4334:	01d037b3          	snez	a5,t4
200a4338:	8fd5                	or	a5,a5,a3
200a433a:	b529                	j	200a4144 <__adddf3+0x4e2>
200a433c:	01c668b3          	or	a7,a2,t3
200a4340:	8772                	mv	a4,t3
200a4342:	d40898e3          	bnez	a7,200a4092 <__adddf3+0x430>
200a4346:	bba5                	j	200a40be <__adddf3+0x45c>
200a4348:	00361793          	slli	a5,a2,0x3
200a434c:	01d81893          	slli	a7,a6,0x1d
200a4350:	838d                	srli	a5,a5,0x3
200a4352:	00f8e8b3          	or	a7,a7,a5
200a4356:	00385813          	srli	a6,a6,0x3
200a435a:	85b6                	mv	a1,a3
200a435c:	b1c1                	j	200a401c <__adddf3+0x3ba>
200a435e:	02000513          	li	a0,32
200a4362:	8d15                	sub	a0,a0,a3
200a4364:	4781                	li	a5,0
200a4366:	baf1                	j	200a3d42 <__adddf3+0xe0>

200a4368 <__divdf3>:
200a4368:	1141                	addi	sp,sp,-16
200a436a:	0145d713          	srli	a4,a1,0x14
200a436e:	00c59793          	slli	a5,a1,0xc
200a4372:	c622                	sw	s0,12(sp)
200a4374:	c426                	sw	s1,8(sp)
200a4376:	7ff77713          	andi	a4,a4,2047
200a437a:	83b1                	srli	a5,a5,0xc
200a437c:	81fd                	srli	a1,a1,0x1f
200a437e:	10070263          	beqz	a4,200a4482 <__divdf3+0x11a>
200a4382:	7ff00813          	li	a6,2047
200a4386:	13070c63          	beq	a4,a6,200a44be <__divdf3+0x156>
200a438a:	01d55893          	srli	a7,a0,0x1d
200a438e:	078e                	slli	a5,a5,0x3
200a4390:	00f8e7b3          	or	a5,a7,a5
200a4394:	00351e13          	slli	t3,a0,0x3
200a4398:	4301                	li	t1,0
200a439a:	c0170513          	addi	a0,a4,-1023
200a439e:	4f01                	li	t5,0
200a43a0:	29779893          	bseti	a7,a5,0x17
200a43a4:	0146d793          	srli	a5,a3,0x14
200a43a8:	00c69713          	slli	a4,a3,0xc
200a43ac:	7ff7f793          	andi	a5,a5,2047
200a43b0:	8331                	srli	a4,a4,0xc
200a43b2:	82fd                	srli	a3,a3,0x1f
200a43b4:	cbd9                	beqz	a5,200a444a <__divdf3+0xe2>
200a43b6:	7ff00813          	li	a6,2047
200a43ba:	07078d63          	beq	a5,a6,200a4434 <__divdf3+0xcc>
200a43be:	00371813          	slli	a6,a4,0x3
200a43c2:	c0178793          	addi	a5,a5,-1023 # 7ffc01 <_data_lma+0x7c5a59>
200a43c6:	01d65713          	srli	a4,a2,0x1d
200a43ca:	01076733          	or	a4,a4,a6
200a43ce:	00361e93          	slli	t4,a2,0x3
200a43d2:	8d1d                	sub	a0,a0,a5
200a43d4:	4f81                	li	t6,0
200a43d6:	29771713          	bseti	a4,a4,0x17
200a43da:	463d                	li	a2,15
200a43dc:	00d5c833          	xor	a6,a1,a3
200a43e0:	16666e63          	bltu	a2,t1,200a455c <__divdf3+0x1f4>
200a43e4:	00005617          	auipc	a2,0x5
200a43e8:	6e060613          	addi	a2,a2,1760 # 200a9ac4 <MyDevDescr+0x14>
200a43ec:	20c347b3          	sh2add	a5,t1,a2
200a43f0:	439c                	lw	a5,0(a5)
200a43f2:	97b2                	add	a5,a5,a2
200a43f4:	8782                	jr	a5
200a43f6:	8e9d                	sub	a3,a3,a5
200a43f8:	03800613          	li	a2,56
200a43fc:	3ed65b63          	bge	a2,a3,200a47f2 <__divdf3+0x48a>
200a4400:	4781                	li	a5,0
200a4402:	4681                	li	a3,0
200a4404:	4601                	li	a2,0
200a4406:	4432                	lw	s0,12(sp)
200a4408:	07d2                	slli	a5,a5,0x14
200a440a:	8fd5                	or	a5,a5,a3
200a440c:	087e                	slli	a6,a6,0x1f
200a440e:	0107e7b3          	or	a5,a5,a6
200a4412:	44a2                	lw	s1,8(sp)
200a4414:	8532                	mv	a0,a2
200a4416:	85be                	mv	a1,a5
200a4418:	0141                	addi	sp,sp,16
200a441a:	8082                	ret
200a441c:	7ff00793          	li	a5,2047
200a4420:	4681                	li	a3,0
200a4422:	4601                	li	a2,0
200a4424:	b7cd                	j	200a4406 <__divdf3+0x9e>
200a4426:	4801                	li	a6,0
200a4428:	7ff00793          	li	a5,2047
200a442c:	000806b7          	lui	a3,0x80
200a4430:	4601                	li	a2,0
200a4432:	bfd1                	j	200a4406 <__divdf3+0x9e>
200a4434:	00c76eb3          	or	t4,a4,a2
200a4438:	80150513          	addi	a0,a0,-2047 # 7ff801 <_data_lma+0x7c5659>
200a443c:	100e9663          	bnez	t4,200a4548 <__divdf3+0x1e0>
200a4440:	00236313          	ori	t1,t1,2
200a4444:	4701                	li	a4,0
200a4446:	4f89                	li	t6,2
200a4448:	bf49                	j	200a43da <__divdf3+0x72>
200a444a:	00c76eb3          	or	t4,a4,a2
200a444e:	0e0e8863          	beqz	t4,200a453e <__divdf3+0x1d6>
200a4452:	34070d63          	beqz	a4,200a47ac <__divdf3+0x444>
200a4456:	60071793          	clz	a5,a4
200a445a:	ff578f93          	addi	t6,a5,-11
200a445e:	4875                	li	a6,29
200a4460:	ff878e93          	addi	t4,a5,-8
200a4464:	41f80833          	sub	a6,a6,t6
200a4468:	01d71733          	sll	a4,a4,t4
200a446c:	01065833          	srl	a6,a2,a6
200a4470:	00e86733          	or	a4,a6,a4
200a4474:	01d61eb3          	sll	t4,a2,t4
200a4478:	97aa                	add	a5,a5,a0
200a447a:	3f378513          	addi	a0,a5,1011
200a447e:	4f81                	li	t6,0
200a4480:	bfa9                	j	200a43da <__divdf3+0x72>
200a4482:	00a7e8b3          	or	a7,a5,a0
200a4486:	0c088663          	beqz	a7,200a4552 <__divdf3+0x1ea>
200a448a:	30078263          	beqz	a5,200a478e <__divdf3+0x426>
200a448e:	60079813          	clz	a6,a5
200a4492:	ff580713          	addi	a4,a6,-11 # 7fff5 <_data_lma+0x45e4d>
200a4496:	48f5                	li	a7,29
200a4498:	ff880e13          	addi	t3,a6,-8
200a449c:	40e888b3          	sub	a7,a7,a4
200a44a0:	01c797b3          	sll	a5,a5,t3
200a44a4:	011558b3          	srl	a7,a0,a7
200a44a8:	00f8e8b3          	or	a7,a7,a5
200a44ac:	01c51e33          	sll	t3,a0,t3
200a44b0:	c0d00713          	li	a4,-1011
200a44b4:	41070533          	sub	a0,a4,a6
200a44b8:	4301                	li	t1,0
200a44ba:	4f01                	li	t5,0
200a44bc:	b5e5                	j	200a43a4 <__divdf3+0x3c>
200a44be:	00a7e8b3          	or	a7,a5,a0
200a44c2:	06089763          	bnez	a7,200a4530 <__divdf3+0x1c8>
200a44c6:	4e01                	li	t3,0
200a44c8:	4321                	li	t1,8
200a44ca:	7ff00513          	li	a0,2047
200a44ce:	4f09                	li	t5,2
200a44d0:	bdd1                	j	200a43a4 <__divdf3+0x3c>
200a44d2:	8f7e                	mv	t5,t6
200a44d4:	4789                	li	a5,2
200a44d6:	3cff0963          	beq	t5,a5,200a48a8 <__divdf3+0x540>
200a44da:	478d                	li	a5,3
200a44dc:	f4ff05e3          	beq	t5,a5,200a4426 <__divdf3+0xbe>
200a44e0:	4785                	li	a5,1
200a44e2:	8836                	mv	a6,a3
200a44e4:	f0ff0ee3          	beq	t5,a5,200a4400 <__divdf3+0x98>
200a44e8:	3ff50793          	addi	a5,a0,1023
200a44ec:	20f05863          	blez	a5,200a46fc <__divdf3+0x394>
200a44f0:	007ef693          	andi	a3,t4,7
200a44f4:	3a069063          	bnez	a3,200a4894 <__divdf3+0x52c>
200a44f8:	010006b7          	lui	a3,0x1000
200a44fc:	8ef9                	and	a3,a3,a4
200a44fe:	c689                	beqz	a3,200a4508 <__divdf3+0x1a0>
200a4500:	40050793          	addi	a5,a0,1024
200a4504:	49871713          	bclri	a4,a4,0x18
200a4508:	7fe00693          	li	a3,2046
200a450c:	f0f6c8e3          	blt	a3,a5,200a441c <__divdf3+0xb4>
200a4510:	003ede93          	srli	t4,t4,0x3
200a4514:	01d71613          	slli	a2,a4,0x1d
200a4518:	00971693          	slli	a3,a4,0x9
200a451c:	01d66633          	or	a2,a2,t4
200a4520:	82b1                	srli	a3,a3,0xc
200a4522:	7ff7f793          	andi	a5,a5,2047
200a4526:	b5c5                	j	200a4406 <__divdf3+0x9e>
200a4528:	86ae                	mv	a3,a1
200a452a:	8746                	mv	a4,a7
200a452c:	8ef2                	mv	t4,t3
200a452e:	b75d                	j	200a44d4 <__divdf3+0x16c>
200a4530:	8e2a                	mv	t3,a0
200a4532:	88be                	mv	a7,a5
200a4534:	4331                	li	t1,12
200a4536:	7ff00513          	li	a0,2047
200a453a:	4f0d                	li	t5,3
200a453c:	b5a5                	j	200a43a4 <__divdf3+0x3c>
200a453e:	00136313          	ori	t1,t1,1
200a4542:	4701                	li	a4,0
200a4544:	4f85                	li	t6,1
200a4546:	bd51                	j	200a43da <__divdf3+0x72>
200a4548:	00336313          	ori	t1,t1,3
200a454c:	8eb2                	mv	t4,a2
200a454e:	4f8d                	li	t6,3
200a4550:	b569                	j	200a43da <__divdf3+0x72>
200a4552:	4e01                	li	t3,0
200a4554:	4311                	li	t1,4
200a4556:	4501                	li	a0,0
200a4558:	4f05                	li	t5,1
200a455a:	b5a9                	j	200a43a4 <__divdf3+0x3c>
200a455c:	21176f63          	bltu	a4,a7,200a477a <__divdf3+0x412>
200a4560:	20e88b63          	beq	a7,a4,200a4776 <__divdf3+0x40e>
200a4564:	8f72                	mv	t5,t3
200a4566:	157d                	addi	a0,a0,-1
200a4568:	87c6                	mv	a5,a7
200a456a:	4e01                	li	t3,0
200a456c:	00871693          	slli	a3,a4,0x8
200a4570:	0106d893          	srli	a7,a3,0x10
200a4574:	0317d733          	divu	a4,a5,a7
200a4578:	018ed613          	srli	a2,t4,0x18
200a457c:	8e55                	or	a2,a2,a3
200a457e:	008e9593          	slli	a1,t4,0x8
200a4582:	08064333          	zext.h	t1,a2
200a4586:	010f5693          	srli	a3,t5,0x10
200a458a:	0317f7b3          	remu	a5,a5,a7
200a458e:	02e30eb3          	mul	t4,t1,a4
200a4592:	07c2                	slli	a5,a5,0x10
200a4594:	8fd5                	or	a5,a5,a3
200a4596:	01d7f863          	bgeu	a5,t4,200a45a6 <__divdf3+0x23e>
200a459a:	97b2                	add	a5,a5,a2
200a459c:	fff70693          	addi	a3,a4,-1
200a45a0:	24c7f463          	bgeu	a5,a2,200a47e8 <__divdf3+0x480>
200a45a4:	8736                	mv	a4,a3
200a45a6:	41d787b3          	sub	a5,a5,t4
200a45aa:	0317deb3          	divu	t4,a5,a7
200a45ae:	080f46b3          	zext.h	a3,t5
200a45b2:	0317f7b3          	remu	a5,a5,a7
200a45b6:	03d30433          	mul	s0,t1,t4
200a45ba:	07c2                	slli	a5,a5,0x10
200a45bc:	8edd                	or	a3,a3,a5
200a45be:	0086f863          	bgeu	a3,s0,200a45ce <__divdf3+0x266>
200a45c2:	96b2                	add	a3,a3,a2
200a45c4:	fffe8793          	addi	a5,t4,-1
200a45c8:	20c6fb63          	bgeu	a3,a2,200a47de <__divdf3+0x476>
200a45cc:	8ebe                	mv	t4,a5
200a45ce:	0742                	slli	a4,a4,0x10
200a45d0:	64c1                	lui	s1,0x10
200a45d2:	01d76733          	or	a4,a4,t4
200a45d6:	fff48f13          	addi	t5,s1,-1 # ffff <__stack_size+0xf7ff>
200a45da:	01e77eb3          	and	t4,a4,t5
200a45de:	01075293          	srli	t0,a4,0x10
200a45e2:	0105df93          	srli	t6,a1,0x10
200a45e6:	01e5ff33          	and	t5,a1,t5
200a45ea:	03df03b3          	mul	t2,t5,t4
200a45ee:	8e81                	sub	a3,a3,s0
200a45f0:	03df8eb3          	mul	t4,t6,t4
200a45f4:	0103d793          	srli	a5,t2,0x10
200a45f8:	03e28433          	mul	s0,t0,t5
200a45fc:	9ea2                	add	t4,t4,s0
200a45fe:	97f6                	add	a5,a5,t4
200a4600:	03f282b3          	mul	t0,t0,t6
200a4604:	0087f363          	bgeu	a5,s0,200a460a <__divdf3+0x2a2>
200a4608:	92a6                	add	t0,t0,s1
200a460a:	6441                	lui	s0,0x10
200a460c:	147d                	addi	s0,s0,-1 # ffff <__stack_size+0xf7ff>
200a460e:	0107de93          	srli	t4,a5,0x10
200a4612:	8fe1                	and	a5,a5,s0
200a4614:	07c2                	slli	a5,a5,0x10
200a4616:	0083f3b3          	and	t2,t2,s0
200a461a:	9e96                	add	t4,t4,t0
200a461c:	979e                	add	a5,a5,t2
200a461e:	13d6ea63          	bltu	a3,t4,200a4752 <__divdf3+0x3ea>
200a4622:	13d68663          	beq	a3,t4,200a474e <__divdf3+0x3e6>
200a4626:	40fe07b3          	sub	a5,t3,a5
200a462a:	41d686b3          	sub	a3,a3,t4
200a462e:	00fe3e33          	sltu	t3,t3,a5
200a4632:	41c686b3          	sub	a3,a3,t3
200a4636:	24d60163          	beq	a2,a3,200a4878 <__divdf3+0x510>
200a463a:	0316deb3          	divu	t4,a3,a7
200a463e:	0107de13          	srli	t3,a5,0x10
200a4642:	0316f6b3          	remu	a3,a3,a7
200a4646:	03d302b3          	mul	t0,t1,t4
200a464a:	06c2                	slli	a3,a3,0x10
200a464c:	00de66b3          	or	a3,t3,a3
200a4650:	0056fb63          	bgeu	a3,t0,200a4666 <__divdf3+0x2fe>
200a4654:	96b2                	add	a3,a3,a2
200a4656:	fffe8e13          	addi	t3,t4,-1
200a465a:	24c6e563          	bltu	a3,a2,200a48a4 <__divdf3+0x53c>
200a465e:	2456f363          	bgeu	a3,t0,200a48a4 <__divdf3+0x53c>
200a4662:	1ef9                	addi	t4,t4,-2
200a4664:	96b2                	add	a3,a3,a2
200a4666:	405686b3          	sub	a3,a3,t0
200a466a:	0316de33          	divu	t3,a3,a7
200a466e:	0807c7b3          	zext.h	a5,a5
200a4672:	0316f6b3          	remu	a3,a3,a7
200a4676:	03c30333          	mul	t1,t1,t3
200a467a:	06c2                	slli	a3,a3,0x10
200a467c:	8fd5                	or	a5,a5,a3
200a467e:	0067fb63          	bgeu	a5,t1,200a4694 <__divdf3+0x32c>
200a4682:	97b2                	add	a5,a5,a2
200a4684:	fffe0693          	addi	a3,t3,-1
200a4688:	20c7ec63          	bltu	a5,a2,200a48a0 <__divdf3+0x538>
200a468c:	2067fa63          	bgeu	a5,t1,200a48a0 <__divdf3+0x538>
200a4690:	1e79                	addi	t3,t3,-2
200a4692:	97b2                	add	a5,a5,a2
200a4694:	0ec2                	slli	t4,t4,0x10
200a4696:	01ceeeb3          	or	t4,t4,t3
200a469a:	010ed293          	srli	t0,t4,0x10
200a469e:	080ec6b3          	zext.h	a3,t4
200a46a2:	03e28e33          	mul	t3,t0,t5
200a46a6:	406787b3          	sub	a5,a5,t1
200a46aa:	02df88b3          	mul	a7,t6,a3
200a46ae:	03e68f33          	mul	t5,a3,t5
200a46b2:	98f2                	add	a7,a7,t3
200a46b4:	010f5693          	srli	a3,t5,0x10
200a46b8:	96c6                	add	a3,a3,a7
200a46ba:	025f8fb3          	mul	t6,t6,t0
200a46be:	01c6f463          	bgeu	a3,t3,200a46c6 <__divdf3+0x35e>
200a46c2:	68c1                	lui	a7,0x10
200a46c4:	9fc6                	add	t6,t6,a7
200a46c6:	6341                	lui	t1,0x10
200a46c8:	137d                	addi	t1,t1,-1 # ffff <__stack_size+0xf7ff>
200a46ca:	0106d893          	srli	a7,a3,0x10
200a46ce:	0066f6b3          	and	a3,a3,t1
200a46d2:	06c2                	slli	a3,a3,0x10
200a46d4:	006f7f33          	and	t5,t5,t1
200a46d8:	98fe                	add	a7,a7,t6
200a46da:	96fa                	add	a3,a3,t5
200a46dc:	0f17f663          	bgeu	a5,a7,200a47c8 <__divdf3+0x460>
200a46e0:	97b2                	add	a5,a5,a2
200a46e2:	fffe8e13          	addi	t3,t4,-1
200a46e6:	833e                	mv	t1,a5
200a46e8:	16c7e663          	bltu	a5,a2,200a4854 <__divdf3+0x4ec>
200a46ec:	1d17e463          	bltu	a5,a7,200a48b4 <__divdf3+0x54c>
200a46f0:	1d178d63          	beq	a5,a7,200a48ca <__divdf3+0x562>
200a46f4:	8ef2                	mv	t4,t3
200a46f6:	001eee93          	ori	t4,t4,1
200a46fa:	b3fd                	j	200a44e8 <__divdf3+0x180>
200a46fc:	4685                	li	a3,1
200a46fe:	ce079ce3          	bnez	a5,200a43f6 <__divdf3+0x8e>
200a4702:	41e50513          	addi	a0,a0,1054
200a4706:	00ae97b3          	sll	a5,t4,a0
200a470a:	00f037b3          	snez	a5,a5
200a470e:	00a71533          	sll	a0,a4,a0
200a4712:	8fc9                	or	a5,a5,a0
200a4714:	00dedeb3          	srl	t4,t4,a3
200a4718:	00feeeb3          	or	t4,t4,a5
200a471c:	007ef793          	andi	a5,t4,7
200a4720:	00d75733          	srl	a4,a4,a3
200a4724:	cf81                	beqz	a5,200a473c <__divdf3+0x3d4>
200a4726:	00fef793          	andi	a5,t4,15
200a472a:	4691                	li	a3,4
200a472c:	00d78863          	beq	a5,a3,200a473c <__divdf3+0x3d4>
200a4730:	004e8793          	addi	a5,t4,4
200a4734:	01d7beb3          	sltu	t4,a5,t4
200a4738:	9776                	add	a4,a4,t4
200a473a:	8ebe                	mv	t4,a5
200a473c:	008005b7          	lui	a1,0x800
200a4740:	8df9                	and	a1,a1,a4
200a4742:	4785                	li	a5,1
200a4744:	4681                	li	a3,0
200a4746:	4601                	li	a2,0
200a4748:	ca059fe3          	bnez	a1,200a4406 <__divdf3+0x9e>
200a474c:	a8d5                	j	200a4840 <__divdf3+0x4d8>
200a474e:	ecfe7ce3          	bgeu	t3,a5,200a4626 <__divdf3+0x2be>
200a4752:	00be02b3          	add	t0,t3,a1
200a4756:	01c2b3b3          	sltu	t2,t0,t3
200a475a:	00c38e33          	add	t3,t2,a2
200a475e:	96f2                	add	a3,a3,t3
200a4760:	fff70413          	addi	s0,a4,-1
200a4764:	8e16                	mv	t3,t0
200a4766:	06d67663          	bgeu	a2,a3,200a47d2 <__divdf3+0x46a>
200a476a:	0fd6ef63          	bltu	a3,t4,200a4868 <__divdf3+0x500>
200a476e:	0ede8b63          	beq	t4,a3,200a4864 <__divdf3+0x4fc>
200a4772:	8722                	mv	a4,s0
200a4774:	bd4d                	j	200a4626 <__divdf3+0x2be>
200a4776:	dfde67e3          	bltu	t3,t4,200a4564 <__divdf3+0x1fc>
200a477a:	001e5693          	srli	a3,t3,0x1
200a477e:	01f89f13          	slli	t5,a7,0x1f
200a4782:	0018d793          	srli	a5,a7,0x1
200a4786:	00df6f33          	or	t5,t5,a3
200a478a:	0e7e                	slli	t3,t3,0x1f
200a478c:	b3c5                	j	200a456c <__divdf3+0x204>
200a478e:	60051893          	clz	a7,a0
200a4792:	4371                	li	t1,28
200a4794:	01588713          	addi	a4,a7,21 # 10015 <__stack_size+0xf815>
200a4798:	02088813          	addi	a6,a7,32
200a479c:	cee35de3          	bge	t1,a4,200a4496 <__divdf3+0x12e>
200a47a0:	ff888793          	addi	a5,a7,-8
200a47a4:	00f518b3          	sll	a7,a0,a5
200a47a8:	4e01                	li	t3,0
200a47aa:	b319                	j	200a44b0 <__divdf3+0x148>
200a47ac:	60061813          	clz	a6,a2
200a47b0:	4ef1                	li	t4,28
200a47b2:	01580f93          	addi	t6,a6,21
200a47b6:	02080793          	addi	a5,a6,32
200a47ba:	cbfed2e3          	bge	t4,t6,200a445e <__divdf3+0xf6>
200a47be:	1861                	addi	a6,a6,-8
200a47c0:	4e81                	li	t4,0
200a47c2:	01061733          	sll	a4,a2,a6
200a47c6:	b94d                	j	200a4478 <__divdf3+0x110>
200a47c8:	f31797e3          	bne	a5,a7,200a46f6 <__divdf3+0x38e>
200a47cc:	d0068ee3          	beqz	a3,200a44e8 <__divdf3+0x180>
200a47d0:	bf01                	j	200a46e0 <__divdf3+0x378>
200a47d2:	fad610e3          	bne	a2,a3,200a4772 <__divdf3+0x40a>
200a47d6:	f8038ae3          	beqz	t2,200a476a <__divdf3+0x402>
200a47da:	8722                	mv	a4,s0
200a47dc:	b5a9                	j	200a4626 <__divdf3+0x2be>
200a47de:	de86f7e3          	bgeu	a3,s0,200a45cc <__divdf3+0x264>
200a47e2:	1ef9                	addi	t4,t4,-2
200a47e4:	96b2                	add	a3,a3,a2
200a47e6:	b3e5                	j	200a45ce <__divdf3+0x266>
200a47e8:	dbd7fee3          	bgeu	a5,t4,200a45a4 <__divdf3+0x23c>
200a47ec:	1779                	addi	a4,a4,-2
200a47ee:	97b2                	add	a5,a5,a2
200a47f0:	bb5d                	j	200a45a6 <__divdf3+0x23e>
200a47f2:	467d                	li	a2,31
200a47f4:	f0d657e3          	bge	a2,a3,200a4702 <__divdf3+0x39a>
200a47f8:	5605                	li	a2,-31
200a47fa:	40f607b3          	sub	a5,a2,a5
200a47fe:	02000613          	li	a2,32
200a4802:	00f757b3          	srl	a5,a4,a5
200a4806:	00c68863          	beq	a3,a2,200a4816 <__divdf3+0x4ae>
200a480a:	43e50513          	addi	a0,a0,1086
200a480e:	00a71733          	sll	a4,a4,a0
200a4812:	00eeeeb3          	or	t4,t4,a4
200a4816:	01d03eb3          	snez	t4,t4
200a481a:	00feeeb3          	or	t4,t4,a5
200a481e:	007ef713          	andi	a4,t4,7
200a4822:	4681                	li	a3,0
200a4824:	c315                	beqz	a4,200a4848 <__divdf3+0x4e0>
200a4826:	00fef793          	andi	a5,t4,15
200a482a:	4691                	li	a3,4
200a482c:	4701                	li	a4,0
200a482e:	00d78963          	beq	a5,a3,200a4840 <__divdf3+0x4d8>
200a4832:	004e8793          	addi	a5,t4,4
200a4836:	01d7beb3          	sltu	t4,a5,t4
200a483a:	01d03733          	snez	a4,t4
200a483e:	8ebe                	mv	t4,a5
200a4840:	00971693          	slli	a3,a4,0x9
200a4844:	82b1                	srli	a3,a3,0xc
200a4846:	0776                	slli	a4,a4,0x1d
200a4848:	003ede93          	srli	t4,t4,0x3
200a484c:	00eee633          	or	a2,t4,a4
200a4850:	4781                	li	a5,0
200a4852:	be55                	j	200a4406 <__divdf3+0x9e>
200a4854:	8ef2                	mv	t4,t3
200a4856:	eb1310e3          	bne	t1,a7,200a46f6 <__divdf3+0x38e>
200a485a:	c8b687e3          	beq	a3,a1,200a44e8 <__divdf3+0x180>
200a485e:	001eee93          	ori	t4,t4,1
200a4862:	b159                	j	200a44e8 <__divdf3+0x180>
200a4864:	f0f2f7e3          	bgeu	t0,a5,200a4772 <__divdf3+0x40a>
200a4868:	92ae                	add	t0,t0,a1
200a486a:	00b2b3b3          	sltu	t2,t0,a1
200a486e:	93b2                	add	t2,t2,a2
200a4870:	1779                	addi	a4,a4,-2
200a4872:	8e16                	mv	t3,t0
200a4874:	969e                	add	a3,a3,t2
200a4876:	bb45                	j	200a4626 <__divdf3+0x2be>
200a4878:	c0200693          	li	a3,-1022
200a487c:	3ff50793          	addi	a5,a0,1023
200a4880:	5efd                	li	t4,-1
200a4882:	e6d54de3          	blt	a0,a3,200a46fc <__divdf3+0x394>
200a4886:	004e8693          	addi	a3,t4,4
200a488a:	01d6beb3          	sltu	t4,a3,t4
200a488e:	9776                	add	a4,a4,t4
200a4890:	8eb6                	mv	t4,a3
200a4892:	b19d                	j	200a44f8 <__divdf3+0x190>
200a4894:	00fef693          	andi	a3,t4,15
200a4898:	4611                	li	a2,4
200a489a:	c4c68fe3          	beq	a3,a2,200a44f8 <__divdf3+0x190>
200a489e:	b7e5                	j	200a4886 <__divdf3+0x51e>
200a48a0:	8e36                	mv	t3,a3
200a48a2:	bbcd                	j	200a4694 <__divdf3+0x32c>
200a48a4:	8ef2                	mv	t4,t3
200a48a6:	b3c1                	j	200a4666 <__divdf3+0x2fe>
200a48a8:	8836                	mv	a6,a3
200a48aa:	7ff00793          	li	a5,2047
200a48ae:	4681                	li	a3,0
200a48b0:	4601                	li	a2,0
200a48b2:	be91                	j	200a4406 <__divdf3+0x9e>
200a48b4:	00159e13          	slli	t3,a1,0x1
200a48b8:	00be3333          	sltu	t1,t3,a1
200a48bc:	9332                	add	t1,t1,a2
200a48be:	933e                	add	t1,t1,a5
200a48c0:	1ef9                	addi	t4,t4,-2
200a48c2:	85f2                	mv	a1,t3
200a48c4:	f9130be3          	beq	t1,a7,200a485a <__divdf3+0x4f2>
200a48c8:	b53d                	j	200a46f6 <__divdf3+0x38e>
200a48ca:	fed5e5e3          	bltu	a1,a3,200a48b4 <__divdf3+0x54c>
200a48ce:	8ef2                	mv	t4,t3
200a48d0:	f8b697e3          	bne	a3,a1,200a485e <__divdf3+0x4f6>
200a48d4:	b911                	j	200a44e8 <__divdf3+0x180>

200a48d6 <__eqdf2>:
200a48d6:	0145d713          	srli	a4,a1,0x14
200a48da:	001007b7          	lui	a5,0x100
200a48de:	17fd                	addi	a5,a5,-1 # fffff <_data_lma+0xc5e57>
200a48e0:	0146d813          	srli	a6,a3,0x14
200a48e4:	7ff77713          	andi	a4,a4,2047
200a48e8:	7ff00313          	li	t1,2047
200a48ec:	00b7fe33          	and	t3,a5,a1
200a48f0:	88aa                	mv	a7,a0
200a48f2:	8ff5                	and	a5,a5,a3
200a48f4:	81fd                	srli	a1,a1,0x1f
200a48f6:	7ff87813          	andi	a6,a6,2047
200a48fa:	82fd                	srli	a3,a3,0x1f
200a48fc:	4505                	li	a0,1
200a48fe:	00670a63          	beq	a4,t1,200a4912 <__eqdf2+0x3c>
200a4902:	00680763          	beq	a6,t1,200a4910 <__eqdf2+0x3a>
200a4906:	01071463          	bne	a4,a6,200a490e <__eqdf2+0x38>
200a490a:	02fe0063          	beq	t3,a5,200a492a <__eqdf2+0x54>
200a490e:	8082                	ret
200a4910:	8082                	ret
200a4912:	fee81ee3          	bne	a6,a4,200a490e <__eqdf2+0x38>
200a4916:	00fe67b3          	or	a5,t3,a5
200a491a:	8fd1                	or	a5,a5,a2
200a491c:	0117e7b3          	or	a5,a5,a7
200a4920:	f7fd                	bnez	a5,200a490e <__eqdf2+0x38>
200a4922:	8d95                	sub	a1,a1,a3
200a4924:	00b03533          	snez	a0,a1
200a4928:	8082                	ret
200a492a:	fec892e3          	bne	a7,a2,200a490e <__eqdf2+0x38>
200a492e:	00d58863          	beq	a1,a3,200a493e <__eqdf2+0x68>
200a4932:	ff71                	bnez	a4,200a490e <__eqdf2+0x38>
200a4934:	011e6e33          	or	t3,t3,a7
200a4938:	01c03533          	snez	a0,t3
200a493c:	8082                	ret
200a493e:	4501                	li	a0,0
200a4940:	8082                	ret

200a4942 <__gedf2>:
200a4942:	0145d813          	srli	a6,a1,0x14
200a4946:	001007b7          	lui	a5,0x100
200a494a:	17fd                	addi	a5,a5,-1 # fffff <_data_lma+0xc5e57>
200a494c:	0146d893          	srli	a7,a3,0x14
200a4950:	7ff87813          	andi	a6,a6,2047
200a4954:	7ff00e13          	li	t3,2047
200a4958:	00b7f333          	and	t1,a5,a1
200a495c:	872a                	mv	a4,a0
200a495e:	8eaa                	mv	t4,a0
200a4960:	81fd                	srli	a1,a1,0x1f
200a4962:	8f32                	mv	t5,a2
200a4964:	8ff5                	and	a5,a5,a3
200a4966:	7ff8f893          	andi	a7,a7,2047
200a496a:	01f6d513          	srli	a0,a3,0x1f
200a496e:	03c80c63          	beq	a6,t3,200a49a6 <__gedf2+0x64>
200a4972:	01c88d63          	beq	a7,t3,200a498c <__gedf2+0x4a>
200a4976:	04081563          	bnez	a6,200a49c0 <__gedf2+0x7e>
200a497a:	00e36733          	or	a4,t1,a4
200a497e:	02089e63          	bnez	a7,200a49ba <__gedf2+0x78>
200a4982:	8e5d                	or	a2,a2,a5
200a4984:	c225                	beqz	a2,200a49e4 <__gedf2+0xa2>
200a4986:	eb35                	bnez	a4,200a49fa <__gedf2+0xb8>
200a4988:	c51d                	beqz	a0,200a49b6 <__gedf2+0x74>
200a498a:	8082                	ret
200a498c:	8e5d                	or	a2,a2,a5
200a498e:	e625                	bnez	a2,200a49f6 <__gedf2+0xb4>
200a4990:	00081663          	bnez	a6,200a499c <__gedf2+0x5a>
200a4994:	00e36333          	or	t1,t1,a4
200a4998:	fe0308e3          	beqz	t1,200a4988 <__gedf2+0x46>
200a499c:	00a59b63          	bne	a1,a0,200a49b2 <__gedf2+0x70>
200a49a0:	c999                	beqz	a1,200a49b6 <__gedf2+0x74>
200a49a2:	852e                	mv	a0,a1
200a49a4:	8082                	ret
200a49a6:	00e36333          	or	t1,t1,a4
200a49aa:	04031663          	bnez	t1,200a49f6 <__gedf2+0xb4>
200a49ae:	03088e63          	beq	a7,a6,200a49ea <__gedf2+0xa8>
200a49b2:	4505                	li	a0,1
200a49b4:	d9f9                	beqz	a1,200a498a <__gedf2+0x48>
200a49b6:	557d                	li	a0,-1
200a49b8:	8082                	ret
200a49ba:	f36d                	bnez	a4,200a499c <__gedf2+0x5a>
200a49bc:	f579                	bnez	a0,200a498a <__gedf2+0x48>
200a49be:	bfe5                	j	200a49b6 <__gedf2+0x74>
200a49c0:	fe0889e3          	beqz	a7,200a49b2 <__gedf2+0x70>
200a49c4:	fea597e3          	bne	a1,a0,200a49b2 <__gedf2+0x70>
200a49c8:	ff08c5e3          	blt	a7,a6,200a49b2 <__gedf2+0x70>
200a49cc:	fd184ae3          	blt	a6,a7,200a49a0 <__gedf2+0x5e>
200a49d0:	fe67e1e3          	bltu	a5,t1,200a49b2 <__gedf2+0x70>
200a49d4:	fcf316e3          	bne	t1,a5,200a49a0 <__gedf2+0x5e>
200a49d8:	fddf6de3          	bltu	t5,t4,200a49b2 <__gedf2+0x70>
200a49dc:	4501                	li	a0,0
200a49de:	fdeee1e3          	bltu	t4,t5,200a49a0 <__gedf2+0x5e>
200a49e2:	8082                	ret
200a49e4:	4501                	li	a0,0
200a49e6:	f771                	bnez	a4,200a49b2 <__gedf2+0x70>
200a49e8:	8082                	ret
200a49ea:	8fd1                	or	a5,a5,a2
200a49ec:	e789                	bnez	a5,200a49f6 <__gedf2+0xb4>
200a49ee:	fca592e3          	bne	a1,a0,200a49b2 <__gedf2+0x70>
200a49f2:	4501                	li	a0,0
200a49f4:	8082                	ret
200a49f6:	5579                	li	a0,-2
200a49f8:	8082                	ret
200a49fa:	fca58be3          	beq	a1,a0,200a49d0 <__gedf2+0x8e>
200a49fe:	bf55                	j	200a49b2 <__gedf2+0x70>

200a4a00 <__ledf2>:
200a4a00:	0145d813          	srli	a6,a1,0x14
200a4a04:	001007b7          	lui	a5,0x100
200a4a08:	17fd                	addi	a5,a5,-1 # fffff <_data_lma+0xc5e57>
200a4a0a:	0146d893          	srli	a7,a3,0x14
200a4a0e:	7ff87813          	andi	a6,a6,2047
200a4a12:	7ff00313          	li	t1,2047
200a4a16:	00b7fe33          	and	t3,a5,a1
200a4a1a:	872a                	mv	a4,a0
200a4a1c:	8eaa                	mv	t4,a0
200a4a1e:	81fd                	srli	a1,a1,0x1f
200a4a20:	8f32                	mv	t5,a2
200a4a22:	8ff5                	and	a5,a5,a3
200a4a24:	7ff8f893          	andi	a7,a7,2047
200a4a28:	01f6d513          	srli	a0,a3,0x1f
200a4a2c:	02680d63          	beq	a6,t1,200a4a66 <__ledf2+0x66>
200a4a30:	00688d63          	beq	a7,t1,200a4a4a <__ledf2+0x4a>
200a4a34:	04081363          	bnez	a6,200a4a7a <__ledf2+0x7a>
200a4a38:	00ee6733          	or	a4,t3,a4
200a4a3c:	06089363          	bnez	a7,200a4aa2 <__ledf2+0xa2>
200a4a40:	8e5d                	or	a2,a2,a5
200a4a42:	c23d                	beqz	a2,200a4aa8 <__ledf2+0xa8>
200a4a44:	eb2d                	bnez	a4,200a4ab6 <__ledf2+0xb6>
200a4a46:	cd11                	beqz	a0,200a4a62 <__ledf2+0x62>
200a4a48:	8082                	ret
200a4a4a:	8e5d                	or	a2,a2,a5
200a4a4c:	e60d                	bnez	a2,200a4a76 <__ledf2+0x76>
200a4a4e:	00081663          	bnez	a6,200a4a5a <__ledf2+0x5a>
200a4a52:	00ee6e33          	or	t3,t3,a4
200a4a56:	fe0e08e3          	beqz	t3,200a4a46 <__ledf2+0x46>
200a4a5a:	04a58163          	beq	a1,a0,200a4a9c <__ledf2+0x9c>
200a4a5e:	4505                	li	a0,1
200a4a60:	d5e5                	beqz	a1,200a4a48 <__ledf2+0x48>
200a4a62:	557d                	li	a0,-1
200a4a64:	8082                	ret
200a4a66:	00ee6e33          	or	t3,t3,a4
200a4a6a:	000e1663          	bnez	t3,200a4a76 <__ledf2+0x76>
200a4a6e:	ff0898e3          	bne	a7,a6,200a4a5e <__ledf2+0x5e>
200a4a72:	8fd1                	or	a5,a5,a2
200a4a74:	cf8d                	beqz	a5,200a4aae <__ledf2+0xae>
200a4a76:	4509                	li	a0,2
200a4a78:	8082                	ret
200a4a7a:	fe0882e3          	beqz	a7,200a4a5e <__ledf2+0x5e>
200a4a7e:	fea590e3          	bne	a1,a0,200a4a5e <__ledf2+0x5e>
200a4a82:	fd08cee3          	blt	a7,a6,200a4a5e <__ledf2+0x5e>
200a4a86:	01184b63          	blt	a6,a7,200a4a9c <__ledf2+0x9c>
200a4a8a:	fdc7eae3          	bltu	a5,t3,200a4a5e <__ledf2+0x5e>
200a4a8e:	00fe1763          	bne	t3,a5,200a4a9c <__ledf2+0x9c>
200a4a92:	fddf66e3          	bltu	t5,t4,200a4a5e <__ledf2+0x5e>
200a4a96:	4501                	li	a0,0
200a4a98:	fbeef8e3          	bgeu	t4,t5,200a4a48 <__ledf2+0x48>
200a4a9c:	d1f9                	beqz	a1,200a4a62 <__ledf2+0x62>
200a4a9e:	852e                	mv	a0,a1
200a4aa0:	8082                	ret
200a4aa2:	ff45                	bnez	a4,200a4a5a <__ledf2+0x5a>
200a4aa4:	f155                	bnez	a0,200a4a48 <__ledf2+0x48>
200a4aa6:	bf75                	j	200a4a62 <__ledf2+0x62>
200a4aa8:	4501                	li	a0,0
200a4aaa:	fb55                	bnez	a4,200a4a5e <__ledf2+0x5e>
200a4aac:	8082                	ret
200a4aae:	faa598e3          	bne	a1,a0,200a4a5e <__ledf2+0x5e>
200a4ab2:	4501                	li	a0,0
200a4ab4:	8082                	ret
200a4ab6:	fca58ae3          	beq	a1,a0,200a4a8a <__ledf2+0x8a>
200a4aba:	b755                	j	200a4a5e <__ledf2+0x5e>

200a4abc <__muldf3>:
200a4abc:	1141                	addi	sp,sp,-16
200a4abe:	0145d793          	srli	a5,a1,0x14
200a4ac2:	00c59e93          	slli	t4,a1,0xc
200a4ac6:	c622                	sw	s0,12(sp)
200a4ac8:	c426                	sw	s1,8(sp)
200a4aca:	c24a                	sw	s2,4(sp)
200a4acc:	c04e                	sw	s3,0(sp)
200a4ace:	7ff7f793          	andi	a5,a5,2047
200a4ad2:	00cede93          	srli	t4,t4,0xc
200a4ad6:	81fd                	srli	a1,a1,0x1f
200a4ad8:	14078963          	beqz	a5,200a4c2a <__muldf3+0x16e>
200a4adc:	7ff00713          	li	a4,2047
200a4ae0:	18e78263          	beq	a5,a4,200a4c64 <__muldf3+0x1a8>
200a4ae4:	0e8e                	slli	t4,t4,0x3
200a4ae6:	01d55713          	srli	a4,a0,0x1d
200a4aea:	01d76eb3          	or	t4,a4,t4
200a4aee:	00351293          	slli	t0,a0,0x3
200a4af2:	c0178e13          	addi	t3,a5,-1023
200a4af6:	4881                	li	a7,0
200a4af8:	4481                	li	s1,0
200a4afa:	297e9e93          	bseti	t4,t4,0x17
200a4afe:	0146d793          	srli	a5,a3,0x14
200a4b02:	00c69713          	slli	a4,a3,0xc
200a4b06:	7ff7f793          	andi	a5,a5,2047
200a4b0a:	8432                	mv	s0,a2
200a4b0c:	00c75313          	srli	t1,a4,0xc
200a4b10:	01f6d393          	srli	t2,a3,0x1f
200a4b14:	cbf9                	beqz	a5,200a4bea <__muldf3+0x12e>
200a4b16:	7ff00513          	li	a0,2047
200a4b1a:	06a78663          	beq	a5,a0,200a4b86 <__muldf3+0xca>
200a4b1e:	00331713          	slli	a4,t1,0x3
200a4b22:	01d65513          	srli	a0,a2,0x1d
200a4b26:	8f49                	or	a4,a4,a0
200a4b28:	c0178693          	addi	a3,a5,-1023
200a4b2c:	01c68f33          	add	t5,a3,t3
200a4b30:	29771313          	bseti	t1,a4,0x17
200a4b34:	4729                	li	a4,10
200a4b36:	00361413          	slli	s0,a2,0x3
200a4b3a:	4501                	li	a0,0
200a4b3c:	001f0e13          	addi	t3,t5,1
200a4b40:	17174663          	blt	a4,a7,200a4cac <__muldf3+0x1f0>
200a4b44:	0075c833          	xor	a6,a1,t2
200a4b48:	8fc2                	mv	t6,a6
200a4b4a:	4589                	li	a1,2
200a4b4c:	0515cf63          	blt	a1,a7,200a4baa <__muldf3+0xee>
200a4b50:	fff88613          	addi	a2,a7,-1
200a4b54:	4885                	li	a7,1
200a4b56:	18c8eb63          	bltu	a7,a2,200a4cec <__muldf3+0x230>
200a4b5a:	10b50f63          	beq	a0,a1,200a4c78 <__muldf3+0x1bc>
200a4b5e:	4785                	li	a5,1
200a4b60:	887e                	mv	a6,t6
200a4b62:	06f51663          	bne	a0,a5,200a4bce <__muldf3+0x112>
200a4b66:	4781                	li	a5,0
200a4b68:	4681                	li	a3,0
200a4b6a:	4701                	li	a4,0
200a4b6c:	4432                	lw	s0,12(sp)
200a4b6e:	07d2                	slli	a5,a5,0x14
200a4b70:	8fd5                	or	a5,a5,a3
200a4b72:	087e                	slli	a6,a6,0x1f
200a4b74:	0107e7b3          	or	a5,a5,a6
200a4b78:	44a2                	lw	s1,8(sp)
200a4b7a:	4912                	lw	s2,4(sp)
200a4b7c:	4982                	lw	s3,0(sp)
200a4b7e:	853a                	mv	a0,a4
200a4b80:	85be                	mv	a1,a5
200a4b82:	0141                	addi	sp,sp,16
200a4b84:	8082                	ret
200a4b86:	00c36633          	or	a2,t1,a2
200a4b8a:	7ffe0f13          	addi	t5,t3,2047
200a4b8e:	10060163          	beqz	a2,200a4c90 <__muldf3+0x1d4>
200a4b92:	0075c833          	xor	a6,a1,t2
200a4b96:	28b01693          	bseti	a3,zero,0xb
200a4b9a:	0038e893          	ori	a7,a7,3
200a4b9e:	4729                	li	a4,10
200a4ba0:	8fc2                	mv	t6,a6
200a4ba2:	9e36                	add	t3,t3,a3
200a4ba4:	41174463          	blt	a4,a7,200a4fac <__muldf3+0x4f0>
200a4ba8:	450d                	li	a0,3
200a4baa:	29101633          	bset	a2,zero,a7
200a4bae:	53067713          	andi	a4,a2,1328
200a4bb2:	c305                	beqz	a4,200a4bd2 <__muldf3+0x116>
200a4bb4:	4789                	li	a5,2
200a4bb6:	0cf48163          	beq	s1,a5,200a4c78 <__muldf3+0x1bc>
200a4bba:	478d                	li	a5,3
200a4bbc:	12f48163          	beq	s1,a5,200a4cde <__muldf3+0x222>
200a4bc0:	8526                	mv	a0,s1
200a4bc2:	4785                	li	a5,1
200a4bc4:	8376                	mv	t1,t4
200a4bc6:	8416                	mv	s0,t0
200a4bc8:	887e                	mv	a6,t6
200a4bca:	f8f50ee3          	beq	a0,a5,200a4b66 <__muldf3+0xaa>
200a4bce:	8f72                	mv	t5,t3
200a4bd0:	acbd                	j	200a4e4e <__muldf3+0x392>
200a4bd2:	24067593          	andi	a1,a2,576
200a4bd6:	e5dd                	bnez	a1,200a4c84 <__muldf3+0x1c8>
200a4bd8:	08867613          	andi	a2,a2,136
200a4bdc:	10060863          	beqz	a2,200a4cec <__muldf3+0x230>
200a4be0:	8f9e                	mv	t6,t2
200a4be2:	8e9a                	mv	t4,t1
200a4be4:	82a2                	mv	t0,s0
200a4be6:	84aa                	mv	s1,a0
200a4be8:	b7f1                	j	200a4bb4 <__muldf3+0xf8>
200a4bea:	00c36733          	or	a4,t1,a2
200a4bee:	cf61                	beqz	a4,200a4cc6 <__muldf3+0x20a>
200a4bf0:	30030f63          	beqz	t1,200a4f0e <__muldf3+0x452>
200a4bf4:	60031f13          	clz	t5,t1
200a4bf8:	ff5f0713          	addi	a4,t5,-11
200a4bfc:	4575                	li	a0,29
200a4bfe:	ff8f0793          	addi	a5,t5,-8
200a4c02:	8d19                	sub	a0,a0,a4
200a4c04:	00a65533          	srl	a0,a2,a0
200a4c08:	00f31733          	sll	a4,t1,a5
200a4c0c:	00e56333          	or	t1,a0,a4
200a4c10:	00f61433          	sll	s0,a2,a5
200a4c14:	41ee0f33          	sub	t5,t3,t5
200a4c18:	c0df0f13          	addi	t5,t5,-1011
200a4c1c:	4729                	li	a4,10
200a4c1e:	4501                	li	a0,0
200a4c20:	001f0e13          	addi	t3,t5,1
200a4c24:	f31750e3          	bge	a4,a7,200a4b44 <__muldf3+0x88>
200a4c28:	a051                	j	200a4cac <__muldf3+0x1f0>
200a4c2a:	00aee2b3          	or	t0,t4,a0
200a4c2e:	08028763          	beqz	t0,200a4cbc <__muldf3+0x200>
200a4c32:	2c0e8063          	beqz	t4,200a4ef2 <__muldf3+0x436>
200a4c36:	600e9813          	clz	a6,t4
200a4c3a:	ff580793          	addi	a5,a6,-11
200a4c3e:	4775                	li	a4,29
200a4c40:	ff880293          	addi	t0,a6,-8
200a4c44:	8f1d                	sub	a4,a4,a5
200a4c46:	005e9eb3          	sll	t4,t4,t0
200a4c4a:	00e55733          	srl	a4,a0,a4
200a4c4e:	01d76eb3          	or	t4,a4,t4
200a4c52:	005512b3          	sll	t0,a0,t0
200a4c56:	c0d00e13          	li	t3,-1011
200a4c5a:	410e0e33          	sub	t3,t3,a6
200a4c5e:	4881                	li	a7,0
200a4c60:	4481                	li	s1,0
200a4c62:	bd71                	j	200a4afe <__muldf3+0x42>
200a4c64:	00aee2b3          	or	t0,t4,a0
200a4c68:	04029463          	bnez	t0,200a4cb0 <__muldf3+0x1f4>
200a4c6c:	4e81                	li	t4,0
200a4c6e:	48a1                	li	a7,8
200a4c70:	7ff00e13          	li	t3,2047
200a4c74:	4489                	li	s1,2
200a4c76:	b561                	j	200a4afe <__muldf3+0x42>
200a4c78:	887e                	mv	a6,t6
200a4c7a:	7ff00793          	li	a5,2047
200a4c7e:	4681                	li	a3,0
200a4c80:	4701                	li	a4,0
200a4c82:	b5ed                	j	200a4b6c <__muldf3+0xb0>
200a4c84:	4801                	li	a6,0
200a4c86:	7ff00793          	li	a5,2047
200a4c8a:	000806b7          	lui	a3,0x80
200a4c8e:	bdf9                	j	200a4b6c <__muldf3+0xb0>
200a4c90:	28b01713          	bseti	a4,zero,0xb
200a4c94:	0028e893          	ori	a7,a7,2
200a4c98:	47a9                	li	a5,10
200a4c9a:	9e3a                	add	t3,t3,a4
200a4c9c:	2917dc63          	bge	a5,a7,200a4f34 <__muldf3+0x478>
200a4ca0:	4401                	li	s0,0
200a4ca2:	47b9                	li	a5,14
200a4ca4:	4509                	li	a0,2
200a4ca6:	472d                	li	a4,11
200a4ca8:	30e78063          	beq	a5,a4,200a4fa8 <__muldf3+0x4ec>
200a4cac:	8fae                	mv	t6,a1
200a4cae:	b719                	j	200a4bb4 <__muldf3+0xf8>
200a4cb0:	82aa                	mv	t0,a0
200a4cb2:	48b1                	li	a7,12
200a4cb4:	7ff00e13          	li	t3,2047
200a4cb8:	448d                	li	s1,3
200a4cba:	b591                	j	200a4afe <__muldf3+0x42>
200a4cbc:	4e81                	li	t4,0
200a4cbe:	4891                	li	a7,4
200a4cc0:	4e01                	li	t3,0
200a4cc2:	4485                	li	s1,1
200a4cc4:	bd2d                	j	200a4afe <__muldf3+0x42>
200a4cc6:	8f72                	mv	t5,t3
200a4cc8:	0018e893          	ori	a7,a7,1
200a4ccc:	4729                	li	a4,10
200a4cce:	4301                	li	t1,0
200a4cd0:	4401                	li	s0,0
200a4cd2:	4505                	li	a0,1
200a4cd4:	001f0e13          	addi	t3,t5,1
200a4cd8:	e71756e3          	bge	a4,a7,200a4b44 <__muldf3+0x88>
200a4cdc:	bfc1                	j	200a4cac <__muldf3+0x1f0>
200a4cde:	4801                	li	a6,0
200a4ce0:	7ff00793          	li	a5,2047
200a4ce4:	000806b7          	lui	a3,0x80
200a4ce8:	4701                	li	a4,0
200a4cea:	b549                	j	200a4b6c <__muldf3+0xb0>
200a4cec:	65c1                	lui	a1,0x10
200a4cee:	fff58493          	addi	s1,a1,-1 # ffff <__stack_size+0xf7ff>
200a4cf2:	0092f7b3          	and	a5,t0,s1
200a4cf6:	0102d913          	srli	s2,t0,0x10
200a4cfa:	01045893          	srli	a7,s0,0x10
200a4cfe:	8ce1                	and	s1,s1,s0
200a4d00:	02978733          	mul	a4,a5,s1
200a4d04:	02990633          	mul	a2,s2,s1
200a4d08:	01075513          	srli	a0,a4,0x10
200a4d0c:	02f886b3          	mul	a3,a7,a5
200a4d10:	96b2                	add	a3,a3,a2
200a4d12:	9536                	add	a0,a0,a3
200a4d14:	03190fb3          	mul	t6,s2,a7
200a4d18:	00c57363          	bgeu	a0,a2,200a4d1e <__muldf3+0x262>
200a4d1c:	9fae                	add	t6,t6,a1
200a4d1e:	6441                	lui	s0,0x10
200a4d20:	fff40613          	addi	a2,s0,-1 # ffff <__stack_size+0xf7ff>
200a4d24:	00c575b3          	and	a1,a0,a2
200a4d28:	00c376b3          	and	a3,t1,a2
200a4d2c:	8f71                	and	a4,a4,a2
200a4d2e:	01035393          	srli	t2,t1,0x10
200a4d32:	05c2                	slli	a1,a1,0x10
200a4d34:	02d782b3          	mul	t0,a5,a3
200a4d38:	95ba                	add	a1,a1,a4
200a4d3a:	8141                	srli	a0,a0,0x10
200a4d3c:	02d90733          	mul	a4,s2,a3
200a4d40:	0102d613          	srli	a2,t0,0x10
200a4d44:	02f387b3          	mul	a5,t2,a5
200a4d48:	97ba                	add	a5,a5,a4
200a4d4a:	963e                	add	a2,a2,a5
200a4d4c:	027907b3          	mul	a5,s2,t2
200a4d50:	00e67363          	bgeu	a2,a4,200a4d56 <__muldf3+0x29a>
200a4d54:	97a2                	add	a5,a5,s0
200a4d56:	69c1                	lui	s3,0x10
200a4d58:	fff98313          	addi	t1,s3,-1 # ffff <__stack_size+0xf7ff>
200a4d5c:	00667733          	and	a4,a2,t1
200a4d60:	010ed413          	srli	s0,t4,0x10
200a4d64:	0062f2b3          	and	t0,t0,t1
200a4d68:	006efeb3          	and	t4,t4,t1
200a4d6c:	0742                	slli	a4,a4,0x10
200a4d6e:	9716                	add	a4,a4,t0
200a4d70:	03d48933          	mul	s2,s1,t4
200a4d74:	8241                	srli	a2,a2,0x10
200a4d76:	963e                	add	a2,a2,a5
200a4d78:	953a                	add	a0,a0,a4
200a4d7a:	03d882b3          	mul	t0,a7,t4
200a4d7e:	01095793          	srli	a5,s2,0x10
200a4d82:	02940333          	mul	t1,s0,s1
200a4d86:	929a                	add	t0,t0,t1
200a4d88:	9796                	add	a5,a5,t0
200a4d8a:	028888b3          	mul	a7,a7,s0
200a4d8e:	0067f363          	bgeu	a5,t1,200a4d94 <__muldf3+0x2d8>
200a4d92:	98ce                	add	a7,a7,s3
200a4d94:	69c1                	lui	s3,0x10
200a4d96:	fff98313          	addi	t1,s3,-1 # ffff <__stack_size+0xf7ff>
200a4d9a:	0067f4b3          	and	s1,a5,t1
200a4d9e:	04c2                	slli	s1,s1,0x10
200a4da0:	00697333          	and	t1,s2,t1
200a4da4:	83c1                	srli	a5,a5,0x10
200a4da6:	97c6                	add	a5,a5,a7
200a4da8:	03d682b3          	mul	t0,a3,t4
200a4dac:	006488b3          	add	a7,s1,t1
200a4db0:	02d406b3          	mul	a3,s0,a3
200a4db4:	0102d313          	srli	t1,t0,0x10
200a4db8:	03d38eb3          	mul	t4,t2,t4
200a4dbc:	9eb6                	add	t4,t4,a3
200a4dbe:	9e9a                	add	t4,t4,t1
200a4dc0:	02838333          	mul	t1,t2,s0
200a4dc4:	00def363          	bgeu	t4,a3,200a4dca <__muldf3+0x30e>
200a4dc8:	934e                	add	t1,t1,s3
200a4dca:	63c1                	lui	t2,0x10
200a4dcc:	13fd                	addi	t2,t2,-1 # ffff <__stack_size+0xf7ff>
200a4dce:	007ef6b3          	and	a3,t4,t2
200a4dd2:	06c2                	slli	a3,a3,0x10
200a4dd4:	0072f2b3          	and	t0,t0,t2
200a4dd8:	957e                	add	a0,a0,t6
200a4dda:	9696                	add	a3,a3,t0
200a4ddc:	9636                	add	a2,a2,a3
200a4dde:	00e53733          	sltu	a4,a0,a4
200a4de2:	9732                	add	a4,a4,a2
200a4de4:	98aa                	add	a7,a7,a0
200a4de6:	97ba                	add	a5,a5,a4
200a4de8:	00a8b533          	sltu	a0,a7,a0
200a4dec:	953e                	add	a0,a0,a5
200a4dee:	00d636b3          	sltu	a3,a2,a3
200a4df2:	00c73633          	sltu	a2,a4,a2
200a4df6:	8ed1                	or	a3,a3,a2
200a4df8:	00e7b733          	sltu	a4,a5,a4
200a4dfc:	010ed613          	srli	a2,t4,0x10
200a4e00:	00f537b3          	sltu	a5,a0,a5
200a4e04:	96b2                	add	a3,a3,a2
200a4e06:	8f5d                	or	a4,a4,a5
200a4e08:	9736                	add	a4,a4,a3
200a4e0a:	971a                	add	a4,a4,t1
200a4e0c:	00989793          	slli	a5,a7,0x9
200a4e10:	0726                	slli	a4,a4,0x9
200a4e12:	01755693          	srli	a3,a0,0x17
200a4e16:	8fcd                	or	a5,a5,a1
200a4e18:	00d76333          	or	t1,a4,a3
200a4e1c:	00f037b3          	snez	a5,a5
200a4e20:	0178d713          	srli	a4,a7,0x17
200a4e24:	8fd9                	or	a5,a5,a4
200a4e26:	01000737          	lui	a4,0x1000
200a4e2a:	0526                	slli	a0,a0,0x9
200a4e2c:	00e37733          	and	a4,t1,a4
200a4e30:	00a7e433          	or	s0,a5,a0
200a4e34:	cf09                	beqz	a4,200a4e4e <__muldf3+0x392>
200a4e36:	00145713          	srli	a4,s0,0x1
200a4e3a:	00147793          	andi	a5,s0,1
200a4e3e:	01f31693          	slli	a3,t1,0x1f
200a4e42:	8fd9                	or	a5,a5,a4
200a4e44:	00d7e433          	or	s0,a5,a3
200a4e48:	00135313          	srli	t1,t1,0x1
200a4e4c:	8f72                	mv	t5,t3
200a4e4e:	3fff0613          	addi	a2,t5,1023
200a4e52:	04c05863          	blez	a2,200a4ea2 <__muldf3+0x3e6>
200a4e56:	00747793          	andi	a5,s0,7
200a4e5a:	cf81                	beqz	a5,200a4e72 <__muldf3+0x3b6>
200a4e5c:	00f47793          	andi	a5,s0,15
200a4e60:	4711                	li	a4,4
200a4e62:	00e78863          	beq	a5,a4,200a4e72 <__muldf3+0x3b6>
200a4e66:	00440713          	addi	a4,s0,4
200a4e6a:	008737b3          	sltu	a5,a4,s0
200a4e6e:	933e                	add	t1,t1,a5
200a4e70:	843a                	mv	s0,a4
200a4e72:	010007b7          	lui	a5,0x1000
200a4e76:	00f377b3          	and	a5,t1,a5
200a4e7a:	c789                	beqz	a5,200a4e84 <__muldf3+0x3c8>
200a4e7c:	400f0613          	addi	a2,t5,1024
200a4e80:	49831313          	bclri	t1,t1,0x18
200a4e84:	7fe00793          	li	a5,2046
200a4e88:	0ac7c163          	blt	a5,a2,200a4f2a <__muldf3+0x46e>
200a4e8c:	00345793          	srli	a5,s0,0x3
200a4e90:	01d31713          	slli	a4,t1,0x1d
200a4e94:	00931693          	slli	a3,t1,0x9
200a4e98:	8f5d                	or	a4,a4,a5
200a4e9a:	82b1                	srli	a3,a3,0xc
200a4e9c:	7ff67793          	andi	a5,a2,2047
200a4ea0:	b1f1                	j	200a4b6c <__muldf3+0xb0>
200a4ea2:	4705                	li	a4,1
200a4ea4:	ee59                	bnez	a2,200a4f42 <__muldf3+0x486>
200a4ea6:	41ef0f13          	addi	t5,t5,1054
200a4eaa:	01e41633          	sll	a2,s0,t5
200a4eae:	00c03633          	snez	a2,a2
200a4eb2:	01e31f33          	sll	t5,t1,t5
200a4eb6:	00e457b3          	srl	a5,s0,a4
200a4eba:	01e66633          	or	a2,a2,t5
200a4ebe:	8e5d                	or	a2,a2,a5
200a4ec0:	00767793          	andi	a5,a2,7
200a4ec4:	00e355b3          	srl	a1,t1,a4
200a4ec8:	cf81                	beqz	a5,200a4ee0 <__muldf3+0x424>
200a4eca:	00f67793          	andi	a5,a2,15
200a4ece:	4711                	li	a4,4
200a4ed0:	00e78863          	beq	a5,a4,200a4ee0 <__muldf3+0x424>
200a4ed4:	00460793          	addi	a5,a2,4
200a4ed8:	00c7b633          	sltu	a2,a5,a2
200a4edc:	95b2                	add	a1,a1,a2
200a4ede:	863e                	mv	a2,a5
200a4ee0:	00800537          	lui	a0,0x800
200a4ee4:	8d6d                	and	a0,a0,a1
200a4ee6:	4785                	li	a5,1
200a4ee8:	4681                	li	a3,0
200a4eea:	4701                	li	a4,0
200a4eec:	c80510e3          	bnez	a0,200a4b6c <__muldf3+0xb0>
200a4ef0:	a05d                	j	200a4f96 <__muldf3+0x4da>
200a4ef2:	60051713          	clz	a4,a0
200a4ef6:	48f1                	li	a7,28
200a4ef8:	01570793          	addi	a5,a4,21 # 1000015 <_data_lma+0xfc5e6d>
200a4efc:	02070813          	addi	a6,a4,32
200a4f00:	d2f8dfe3          	bge	a7,a5,200a4c3e <__muldf3+0x182>
200a4f04:	1761                	addi	a4,a4,-8
200a4f06:	4281                	li	t0,0
200a4f08:	00e51eb3          	sll	t4,a0,a4
200a4f0c:	b3a9                	j	200a4c56 <__muldf3+0x19a>
200a4f0e:	60061793          	clz	a5,a2
200a4f12:	46f1                	li	a3,28
200a4f14:	01578713          	addi	a4,a5,21 # 1000015 <_data_lma+0xfc5e6d>
200a4f18:	02078f13          	addi	t5,a5,32
200a4f1c:	cee6d0e3          	bge	a3,a4,200a4bfc <__muldf3+0x140>
200a4f20:	17e1                	addi	a5,a5,-8
200a4f22:	4401                	li	s0,0
200a4f24:	00f61333          	sll	t1,a2,a5
200a4f28:	b1f5                	j	200a4c14 <__muldf3+0x158>
200a4f2a:	7ff00793          	li	a5,2047
200a4f2e:	4681                	li	a3,0
200a4f30:	4701                	li	a4,0
200a4f32:	b92d                	j	200a4b6c <__muldf3+0xb0>
200a4f34:	0075c833          	xor	a6,a1,t2
200a4f38:	8fc2                	mv	t6,a6
200a4f3a:	4301                	li	t1,0
200a4f3c:	4401                	li	s0,0
200a4f3e:	4509                	li	a0,2
200a4f40:	b129                	j	200a4b4a <__muldf3+0x8e>
200a4f42:	8f11                	sub	a4,a4,a2
200a4f44:	03800793          	li	a5,56
200a4f48:	c0e7cfe3          	blt	a5,a4,200a4b66 <__muldf3+0xaa>
200a4f4c:	47fd                	li	a5,31
200a4f4e:	f4e7dce3          	bge	a5,a4,200a4ea6 <__muldf3+0x3ea>
200a4f52:	5785                	li	a5,-31
200a4f54:	8f91                	sub	a5,a5,a2
200a4f56:	02000693          	li	a3,32
200a4f5a:	00f357b3          	srl	a5,t1,a5
200a4f5e:	00d70863          	beq	a4,a3,200a4f6e <__muldf3+0x4b2>
200a4f62:	43ef0f13          	addi	t5,t5,1086
200a4f66:	01e31f33          	sll	t5,t1,t5
200a4f6a:	01e46433          	or	s0,s0,t5
200a4f6e:	00803633          	snez	a2,s0
200a4f72:	8e5d                	or	a2,a2,a5
200a4f74:	00767713          	andi	a4,a2,7
200a4f78:	4681                	li	a3,0
200a4f7a:	c31d                	beqz	a4,200a4fa0 <__muldf3+0x4e4>
200a4f7c:	00f67793          	andi	a5,a2,15
200a4f80:	4711                	li	a4,4
200a4f82:	4581                	li	a1,0
200a4f84:	00e78963          	beq	a5,a4,200a4f96 <__muldf3+0x4da>
200a4f88:	00460793          	addi	a5,a2,4
200a4f8c:	00c7b633          	sltu	a2,a5,a2
200a4f90:	00c035b3          	snez	a1,a2
200a4f94:	863e                	mv	a2,a5
200a4f96:	00959693          	slli	a3,a1,0x9
200a4f9a:	01d59713          	slli	a4,a1,0x1d
200a4f9e:	82b1                	srli	a3,a3,0xc
200a4fa0:	820d                	srli	a2,a2,0x3
200a4fa2:	8f51                	or	a4,a4,a2
200a4fa4:	4781                	li	a5,0
200a4fa6:	b6d9                	j	200a4b6c <__muldf3+0xb0>
200a4fa8:	8332                	mv	t1,a2
200a4faa:	b91d                	j	200a4be0 <__muldf3+0x124>
200a4fac:	473d                	li	a4,15
200a4fae:	00e89763          	bne	a7,a4,200a4fbc <__muldf3+0x500>
200a4fb2:	4801                	li	a6,0
200a4fb4:	000806b7          	lui	a3,0x80
200a4fb8:	4701                	li	a4,0
200a4fba:	be4d                	j	200a4b6c <__muldf3+0xb0>
200a4fbc:	861a                	mv	a2,t1
200a4fbe:	47ad                	li	a5,11
200a4fc0:	450d                	li	a0,3
200a4fc2:	b1d5                	j	200a4ca6 <__muldf3+0x1ea>

200a4fc4 <__subdf3>:
200a4fc4:	001007b7          	lui	a5,0x100
200a4fc8:	17fd                	addi	a5,a5,-1 # fffff <_data_lma+0xc5e57>
200a4fca:	00b7fe33          	and	t3,a5,a1
200a4fce:	00d7f833          	and	a6,a5,a3
200a4fd2:	0146d313          	srli	t1,a3,0x14
200a4fd6:	0145d793          	srli	a5,a1,0x14
200a4fda:	0e0e                	slli	t3,t3,0x3
200a4fdc:	01d55713          	srli	a4,a0,0x1d
200a4fe0:	080e                	slli	a6,a6,0x3
200a4fe2:	01d65893          	srli	a7,a2,0x1d
200a4fe6:	7ff37313          	andi	t1,t1,2047
200a4fea:	7ff00e93          	li	t4,2047
200a4fee:	01c76733          	or	a4,a4,t3
200a4ff2:	7ff7f793          	andi	a5,a5,2047
200a4ff6:	81fd                	srli	a1,a1,0x1f
200a4ff8:	00351f13          	slli	t5,a0,0x3
200a4ffc:	82fd                	srli	a3,a3,0x1f
200a4ffe:	0108e8b3          	or	a7,a7,a6
200a5002:	00361e13          	slli	t3,a2,0x3
200a5006:	19d30b63          	beq	t1,t4,200a519c <__subdf3+0x1d8>
200a500a:	0016c813          	xori	a6,a3,1
200a500e:	406786b3          	sub	a3,a5,t1
200a5012:	11058063          	beq	a1,a6,200a5112 <__subdf3+0x14e>
200a5016:	54d05c63          	blez	a3,200a556e <__subdf3+0x5aa>
200a501a:	1c030963          	beqz	t1,200a51ec <__subdf3+0x228>
200a501e:	55d78063          	beq	a5,t4,200a555e <__subdf3+0x59a>
200a5022:	03800513          	li	a0,56
200a5026:	4605                	li	a2,1
200a5028:	29789893          	bseti	a7,a7,0x17
200a502c:	02d54663          	blt	a0,a3,200a5058 <__subdf3+0x94>
200a5030:	467d                	li	a2,31
200a5032:	3cd64b63          	blt	a2,a3,200a5408 <__subdf3+0x444>
200a5036:	02000513          	li	a0,32
200a503a:	8d15                	sub	a0,a0,a3
200a503c:	00a89633          	sll	a2,a7,a0
200a5040:	00de5833          	srl	a6,t3,a3
200a5044:	00ae1533          	sll	a0,t3,a0
200a5048:	01066633          	or	a2,a2,a6
200a504c:	00a03533          	snez	a0,a0
200a5050:	00d8d6b3          	srl	a3,a7,a3
200a5054:	8e49                	or	a2,a2,a0
200a5056:	8f15                	sub	a4,a4,a3
200a5058:	40cf0633          	sub	a2,t5,a2
200a505c:	00cf3f33          	sltu	t5,t5,a2
200a5060:	41e70733          	sub	a4,a4,t5
200a5064:	008006b7          	lui	a3,0x800
200a5068:	00d77533          	and	a0,a4,a3
200a506c:	22050e63          	beqz	a0,200a52a8 <__subdf3+0x2e4>
200a5070:	16fd                	addi	a3,a3,-1 # 7fffff <_data_lma+0x7c5e57>
200a5072:	8f75                	and	a4,a4,a3
200a5074:	28070563          	beqz	a4,200a52fe <__subdf3+0x33a>
200a5078:	60071513          	clz	a0,a4
200a507c:	1561                	addi	a0,a0,-8 # 7ffff8 <_data_lma+0x7c5e50>
200a507e:	02000813          	li	a6,32
200a5082:	40a806b3          	sub	a3,a6,a0
200a5086:	00d656b3          	srl	a3,a2,a3
200a508a:	00a71733          	sll	a4,a4,a0
200a508e:	8ed9                	or	a3,a3,a4
200a5090:	00a61633          	sll	a2,a2,a0
200a5094:	30f54063          	blt	a0,a5,200a5394 <__subdf3+0x3d0>
200a5098:	8d1d                	sub	a0,a0,a5
200a509a:	0505                	addi	a0,a0,1
200a509c:	40a80833          	sub	a6,a6,a0
200a50a0:	010617b3          	sll	a5,a2,a6
200a50a4:	00a65733          	srl	a4,a2,a0
200a50a8:	00f037b3          	snez	a5,a5
200a50ac:	8fd9                	or	a5,a5,a4
200a50ae:	01069833          	sll	a6,a3,a6
200a50b2:	00f86633          	or	a2,a6,a5
200a50b6:	00a6d733          	srl	a4,a3,a0
200a50ba:	4781                	li	a5,0
200a50bc:	00767693          	andi	a3,a2,7
200a50c0:	ce81                	beqz	a3,200a50d8 <__subdf3+0x114>
200a50c2:	00f67693          	andi	a3,a2,15
200a50c6:	4511                	li	a0,4
200a50c8:	00a68863          	beq	a3,a0,200a50d8 <__subdf3+0x114>
200a50cc:	00460693          	addi	a3,a2,4
200a50d0:	00c6b633          	sltu	a2,a3,a2
200a50d4:	9732                	add	a4,a4,a2
200a50d6:	8636                	mv	a2,a3
200a50d8:	008006b7          	lui	a3,0x800
200a50dc:	8ef9                	and	a3,a3,a4
200a50de:	26068763          	beqz	a3,200a534c <__subdf3+0x388>
200a50e2:	0785                	addi	a5,a5,1
200a50e4:	7ff00693          	li	a3,2047
200a50e8:	1ad78263          	beq	a5,a3,200a528c <__subdf3+0x2c8>
200a50ec:	820d                	srli	a2,a2,0x3
200a50ee:	01d71693          	slli	a3,a4,0x1d
200a50f2:	00971893          	slli	a7,a4,0x9
200a50f6:	8ed1                	or	a3,a3,a2
200a50f8:	00c8d893          	srli	a7,a7,0xc
200a50fc:	7ff7f793          	andi	a5,a5,2047
200a5100:	8985                	andi	a1,a1,1
200a5102:	07d2                	slli	a5,a5,0x14
200a5104:	0117e7b3          	or	a5,a5,a7
200a5108:	05fe                	slli	a1,a1,0x1f
200a510a:	8fcd                	or	a5,a5,a1
200a510c:	8536                	mv	a0,a3
200a510e:	85be                	mv	a1,a5
200a5110:	8082                	ret
200a5112:	5ad05963          	blez	a3,200a56c4 <__subdf3+0x700>
200a5116:	16031163          	bnez	t1,200a5278 <__subdf3+0x2b4>
200a511a:	01c8e633          	or	a2,a7,t3
200a511e:	26060763          	beqz	a2,200a538c <__subdf3+0x3c8>
200a5122:	fff68613          	addi	a2,a3,-1 # 7fffff <_data_lma+0x7c5e57>
200a5126:	3e060a63          	beqz	a2,200a551a <__subdf3+0x556>
200a512a:	47d68763          	beq	a3,t4,200a5598 <__subdf3+0x5d4>
200a512e:	03800693          	li	a3,56
200a5132:	4505                	li	a0,1
200a5134:	02c6c963          	blt	a3,a2,200a5166 <__subdf3+0x1a2>
200a5138:	86b2                	mv	a3,a2
200a513a:	467d                	li	a2,31
200a513c:	34d65c63          	bge	a2,a3,200a5494 <__subdf3+0x4d0>
200a5140:	fe068613          	addi	a2,a3,-32
200a5144:	02000513          	li	a0,32
200a5148:	00c8d633          	srl	a2,a7,a2
200a514c:	00a68a63          	beq	a3,a0,200a5160 <__subdf3+0x19c>
200a5150:	04000513          	li	a0,64
200a5154:	40d506b3          	sub	a3,a0,a3
200a5158:	00d896b3          	sll	a3,a7,a3
200a515c:	00de6e33          	or	t3,t3,a3
200a5160:	01c03533          	snez	a0,t3
200a5164:	8d51                	or	a0,a0,a2
200a5166:	01e50633          	add	a2,a0,t5
200a516a:	00a63533          	sltu	a0,a2,a0
200a516e:	972a                	add	a4,a4,a0
200a5170:	008006b7          	lui	a3,0x800
200a5174:	8ef9                	and	a3,a3,a4
200a5176:	12068963          	beqz	a3,200a52a8 <__subdf3+0x2e4>
200a517a:	0785                	addi	a5,a5,1
200a517c:	7ff00693          	li	a3,2047
200a5180:	10d78663          	beq	a5,a3,200a528c <__subdf3+0x2c8>
200a5184:	00165693          	srli	a3,a2,0x1
200a5188:	8a05                	andi	a2,a2,1
200a518a:	01f71513          	slli	a0,a4,0x1f
200a518e:	8ed1                	or	a3,a3,a2
200a5190:	49771713          	bclri	a4,a4,0x17
200a5194:	00d56633          	or	a2,a0,a3
200a5198:	8305                	srli	a4,a4,0x1
200a519a:	b70d                	j	200a50bc <__subdf3+0xf8>
200a519c:	01c8e833          	or	a6,a7,t3
200a51a0:	80178e93          	addi	t4,a5,-2047
200a51a4:	06081563          	bnez	a6,200a520e <__subdf3+0x24a>
200a51a8:	0016c813          	xori	a6,a3,1
200a51ac:	07058463          	beq	a1,a6,200a5214 <__subdf3+0x250>
200a51b0:	100e8163          	beqz	t4,200a52b2 <__subdf3+0x2ee>
200a51b4:	1c078463          	beqz	a5,200a537c <__subdf3+0x3b8>
200a51b8:	060e                	slli	a2,a2,0x3
200a51ba:	01d89793          	slli	a5,a7,0x1d
200a51be:	820d                	srli	a2,a2,0x3
200a51c0:	00f666b3          	or	a3,a2,a5
200a51c4:	0038d893          	srli	a7,a7,0x3
200a51c8:	85c2                	mv	a1,a6
200a51ca:	0116e6b3          	or	a3,a3,a7
200a51ce:	cedd                	beqz	a3,200a528c <__subdf3+0x2c8>
200a51d0:	7ff00793          	li	a5,2047
200a51d4:	000808b7          	lui	a7,0x80
200a51d8:	4581                	li	a1,0
200a51da:	07d2                	slli	a5,a5,0x14
200a51dc:	0117e7b3          	or	a5,a5,a7
200a51e0:	05fe                	slli	a1,a1,0x1f
200a51e2:	4681                	li	a3,0
200a51e4:	8fcd                	or	a5,a5,a1
200a51e6:	8536                	mv	a0,a3
200a51e8:	85be                	mv	a1,a5
200a51ea:	8082                	ret
200a51ec:	01c8e633          	or	a2,a7,t3
200a51f0:	18060e63          	beqz	a2,200a538c <__subdf3+0x3c8>
200a51f4:	fff68813          	addi	a6,a3,-1 # 7fffff <_data_lma+0x7c5e57>
200a51f8:	34080863          	beqz	a6,200a5548 <__subdf3+0x584>
200a51fc:	33d68d63          	beq	a3,t4,200a5536 <__subdf3+0x572>
200a5200:	03800693          	li	a3,56
200a5204:	4605                	li	a2,1
200a5206:	e506c9e3          	blt	a3,a6,200a5058 <__subdf3+0x94>
200a520a:	86c2                	mv	a3,a6
200a520c:	b515                	j	200a5030 <__subdf3+0x6c>
200a520e:	8836                	mv	a6,a3
200a5210:	fad590e3          	bne	a1,a3,200a51b0 <__subdf3+0x1ec>
200a5214:	180e8463          	beqz	t4,200a539c <__subdf3+0x3d8>
200a5218:	26079563          	bnez	a5,200a5482 <__subdf3+0x4be>
200a521c:	7ff00693          	li	a3,2047
200a5220:	01e767b3          	or	a5,a4,t5
200a5224:	3e078663          	beqz	a5,200a5610 <__subdf3+0x64c>
200a5228:	fff68513          	addi	a0,a3,-1
200a522c:	2e050763          	beqz	a0,200a551a <__subdf3+0x556>
200a5230:	7ff00793          	li	a5,2047
200a5234:	24f68763          	beq	a3,a5,200a5482 <__subdf3+0x4be>
200a5238:	03800693          	li	a3,56
200a523c:	4785                	li	a5,1
200a523e:	02a6c563          	blt	a3,a0,200a5268 <__subdf3+0x2a4>
200a5242:	47fd                	li	a5,31
200a5244:	40a7cf63          	blt	a5,a0,200a5662 <__subdf3+0x69e>
200a5248:	02000693          	li	a3,32
200a524c:	8e89                	sub	a3,a3,a0
200a524e:	00d717b3          	sll	a5,a4,a3
200a5252:	00af5633          	srl	a2,t5,a0
200a5256:	00df16b3          	sll	a3,t5,a3
200a525a:	8fd1                	or	a5,a5,a2
200a525c:	00d036b3          	snez	a3,a3
200a5260:	00a75533          	srl	a0,a4,a0
200a5264:	8fd5                	or	a5,a5,a3
200a5266:	98aa                	add	a7,a7,a0
200a5268:	9e3e                	add	t3,t3,a5
200a526a:	00fe37b3          	sltu	a5,t3,a5
200a526e:	01178733          	add	a4,a5,a7
200a5272:	8672                	mv	a2,t3
200a5274:	879a                	mv	a5,t1
200a5276:	bded                	j	200a5170 <__subdf3+0x1ac>
200a5278:	2bd78f63          	beq	a5,t4,200a5536 <__subdf3+0x572>
200a527c:	03800613          	li	a2,56
200a5280:	4505                	li	a0,1
200a5282:	29789893          	bseti	a7,a7,0x17
200a5286:	ead65ae3          	bge	a2,a3,200a513a <__subdf3+0x176>
200a528a:	bdf1                	j	200a5166 <__subdf3+0x1a2>
200a528c:	7ff00793          	li	a5,2047
200a5290:	4881                	li	a7,0
200a5292:	8985                	andi	a1,a1,1
200a5294:	07d2                	slli	a5,a5,0x14
200a5296:	0117e7b3          	or	a5,a5,a7
200a529a:	05fe                	slli	a1,a1,0x1f
200a529c:	4681                	li	a3,0
200a529e:	8fcd                	or	a5,a5,a1
200a52a0:	8536                	mv	a0,a3
200a52a2:	85be                	mv	a1,a5
200a52a4:	8082                	ret
200a52a6:	4785                	li	a5,1
200a52a8:	00767693          	andi	a3,a2,7
200a52ac:	e0069be3          	bnez	a3,200a50c2 <__subdf3+0xfe>
200a52b0:	a225                	j	200a53d8 <__subdf3+0x414>
200a52b2:	00178693          	addi	a3,a5,1
200a52b6:	7fe6f693          	andi	a3,a3,2046
200a52ba:	12069263          	bnez	a3,200a53de <__subdf3+0x41a>
200a52be:	01c8e6b3          	or	a3,a7,t3
200a52c2:	01e76333          	or	t1,a4,t5
200a52c6:	24079063          	bnez	a5,200a5506 <__subdf3+0x542>
200a52ca:	30030e63          	beqz	t1,200a55e6 <__subdf3+0x622>
200a52ce:	32068863          	beqz	a3,200a55fe <__subdf3+0x63a>
200a52d2:	41cf0633          	sub	a2,t5,t3
200a52d6:	00cf36b3          	sltu	a3,t5,a2
200a52da:	41170533          	sub	a0,a4,a7
200a52de:	8d15                	sub	a0,a0,a3
200a52e0:	008006b7          	lui	a3,0x800
200a52e4:	8ee9                	and	a3,a3,a0
200a52e6:	3a068a63          	beqz	a3,200a569a <__subdf3+0x6d6>
200a52ea:	41ee0633          	sub	a2,t3,t5
200a52ee:	40e888b3          	sub	a7,a7,a4
200a52f2:	00ce3e33          	sltu	t3,t3,a2
200a52f6:	41c88733          	sub	a4,a7,t3
200a52fa:	85c2                	mv	a1,a6
200a52fc:	b3c1                	j	200a50bc <__subdf3+0xf8>
200a52fe:	60061693          	clz	a3,a2
200a5302:	487d                	li	a6,31
200a5304:	01868513          	addi	a0,a3,24 # 800018 <_data_lma+0x7c5e70>
200a5308:	d6a85be3          	bge	a6,a0,200a507e <__subdf3+0xba>
200a530c:	16e1                	addi	a3,a3,-8
200a530e:	00d616b3          	sll	a3,a2,a3
200a5312:	1af54363          	blt	a0,a5,200a54b8 <__subdf3+0x4f4>
200a5316:	40f50633          	sub	a2,a0,a5
200a531a:	00160513          	addi	a0,a2,1
200a531e:	38a85d63          	bge	a6,a0,200a56b8 <__subdf3+0x6f4>
200a5322:	1605                	addi	a2,a2,-31
200a5324:	02000793          	li	a5,32
200a5328:	00c6d633          	srl	a2,a3,a2
200a532c:	00f50a63          	beq	a0,a5,200a5340 <__subdf3+0x37c>
200a5330:	04000793          	li	a5,64
200a5334:	8f89                	sub	a5,a5,a0
200a5336:	00f696b3          	sll	a3,a3,a5
200a533a:	00d036b3          	snez	a3,a3
200a533e:	8e55                	or	a2,a2,a3
200a5340:	00767693          	andi	a3,a2,7
200a5344:	4781                	li	a5,0
200a5346:	d6069ee3          	bnez	a3,200a50c2 <__subdf3+0xfe>
200a534a:	a079                	j	200a53d8 <__subdf3+0x414>
200a534c:	820d                	srli	a2,a2,0x3
200a534e:	01d71693          	slli	a3,a4,0x1d
200a5352:	7ff00513          	li	a0,2047
200a5356:	8ed1                	or	a3,a3,a2
200a5358:	00375893          	srli	a7,a4,0x3
200a535c:	e6a787e3          	beq	a5,a0,200a51ca <__subdf3+0x206>
200a5360:	08b2                	slli	a7,a7,0xc
200a5362:	7ff7f793          	andi	a5,a5,2047
200a5366:	00c8d893          	srli	a7,a7,0xc
200a536a:	8985                	andi	a1,a1,1
200a536c:	07d2                	slli	a5,a5,0x14
200a536e:	0117e7b3          	or	a5,a5,a7
200a5372:	05fe                	slli	a1,a1,0x1f
200a5374:	8fcd                	or	a5,a5,a1
200a5376:	8536                	mv	a0,a3
200a5378:	85be                	mv	a1,a5
200a537a:	8082                	ret
200a537c:	7ff00693          	li	a3,2047
200a5380:	01e767b3          	or	a5,a4,t5
200a5384:	e7d5                	bnez	a5,200a5430 <__subdf3+0x46c>
200a5386:	8746                	mv	a4,a7
200a5388:	8f72                	mv	t5,t3
200a538a:	85c2                	mv	a1,a6
200a538c:	003f5613          	srli	a2,t5,0x3
200a5390:	87b6                	mv	a5,a3
200a5392:	bf75                	j	200a534e <__subdf3+0x38a>
200a5394:	8f89                	sub	a5,a5,a0
200a5396:	49769713          	bclri	a4,a3,0x17
200a539a:	b30d                	j	200a50bc <__subdf3+0xf8>
200a539c:	00178813          	addi	a6,a5,1
200a53a0:	7fe87693          	andi	a3,a6,2046
200a53a4:	12069163          	bnez	a3,200a54c6 <__subdf3+0x502>
200a53a8:	01e766b3          	or	a3,a4,t5
200a53ac:	1e079163          	bnez	a5,200a558e <__subdf3+0x5ca>
200a53b0:	26068e63          	beqz	a3,200a562c <__subdf3+0x668>
200a53b4:	01c8e6b3          	or	a3,a7,t3
200a53b8:	28068363          	beqz	a3,200a563e <__subdf3+0x67a>
200a53bc:	9e7a                	add	t3,t3,t5
200a53be:	01ee3633          	sltu	a2,t3,t5
200a53c2:	98ba                	add	a7,a7,a4
200a53c4:	00c88733          	add	a4,a7,a2
200a53c8:	008006b7          	lui	a3,0x800
200a53cc:	8ef9                	and	a3,a3,a4
200a53ce:	8672                	mv	a2,t3
200a53d0:	c681                	beqz	a3,200a53d8 <__subdf3+0x414>
200a53d2:	4785                	li	a5,1
200a53d4:	49771713          	bclri	a4,a4,0x17
200a53d8:	8f32                	mv	t5,a2
200a53da:	86be                	mv	a3,a5
200a53dc:	bf45                	j	200a538c <__subdf3+0x3c8>
200a53de:	41cf0633          	sub	a2,t5,t3
200a53e2:	00cf36b3          	sltu	a3,t5,a2
200a53e6:	41170533          	sub	a0,a4,a7
200a53ea:	8d15                	sub	a0,a0,a3
200a53ec:	008006b7          	lui	a3,0x800
200a53f0:	8ee9                	and	a3,a3,a0
200a53f2:	10069063          	bnez	a3,200a54f2 <__subdf3+0x52e>
200a53f6:	00a666b3          	or	a3,a2,a0
200a53fa:	872a                	mv	a4,a0
200a53fc:	c6069ce3          	bnez	a3,200a5074 <__subdf3+0xb0>
200a5400:	4581                	li	a1,0
200a5402:	4781                	li	a5,0
200a5404:	4881                	li	a7,0
200a5406:	b9f5                	j	200a5102 <__subdf3+0x13e>
200a5408:	fe068513          	addi	a0,a3,-32 # 7fffe0 <_data_lma+0x7c5e38>
200a540c:	02000613          	li	a2,32
200a5410:	00a8d533          	srl	a0,a7,a0
200a5414:	00c68a63          	beq	a3,a2,200a5428 <__subdf3+0x464>
200a5418:	04000613          	li	a2,64
200a541c:	40d606b3          	sub	a3,a2,a3
200a5420:	00d896b3          	sll	a3,a7,a3
200a5424:	00de6e33          	or	t3,t3,a3
200a5428:	01c03633          	snez	a2,t3
200a542c:	8e49                	or	a2,a2,a0
200a542e:	b12d                	j	200a5058 <__subdf3+0x94>
200a5430:	fff68513          	addi	a0,a3,-1
200a5434:	18050e63          	beqz	a0,200a55d0 <__subdf3+0x60c>
200a5438:	7ff00793          	li	a5,2047
200a543c:	20f68963          	beq	a3,a5,200a564e <__subdf3+0x68a>
200a5440:	03800793          	li	a5,56
200a5444:	85c2                	mv	a1,a6
200a5446:	14a7c263          	blt	a5,a0,200a558a <__subdf3+0x5c6>
200a544a:	47fd                	li	a5,31
200a544c:	14a7cf63          	blt	a5,a0,200a55aa <__subdf3+0x5e6>
200a5450:	02000793          	li	a5,32
200a5454:	8f89                	sub	a5,a5,a0
200a5456:	00f71633          	sll	a2,a4,a5
200a545a:	00af56b3          	srl	a3,t5,a0
200a545e:	00ff17b3          	sll	a5,t5,a5
200a5462:	8e55                	or	a2,a2,a3
200a5464:	00f037b3          	snez	a5,a5
200a5468:	00a75533          	srl	a0,a4,a0
200a546c:	8e5d                	or	a2,a2,a5
200a546e:	40a888b3          	sub	a7,a7,a0
200a5472:	40ce0633          	sub	a2,t3,a2
200a5476:	00ce3e33          	sltu	t3,t3,a2
200a547a:	41c88733          	sub	a4,a7,t3
200a547e:	879a                	mv	a5,t1
200a5480:	b6d5                	j	200a5064 <__subdf3+0xa0>
200a5482:	060e                	slli	a2,a2,0x3
200a5484:	01d89793          	slli	a5,a7,0x1d
200a5488:	820d                	srli	a2,a2,0x3
200a548a:	00f666b3          	or	a3,a2,a5
200a548e:	0038d893          	srli	a7,a7,0x3
200a5492:	bb25                	j	200a51ca <__subdf3+0x206>
200a5494:	02000613          	li	a2,32
200a5498:	8e15                	sub	a2,a2,a3
200a549a:	00c89533          	sll	a0,a7,a2
200a549e:	00de5833          	srl	a6,t3,a3
200a54a2:	00ce1633          	sll	a2,t3,a2
200a54a6:	01056533          	or	a0,a0,a6
200a54aa:	00c03633          	snez	a2,a2
200a54ae:	00d8d6b3          	srl	a3,a7,a3
200a54b2:	8d51                	or	a0,a0,a2
200a54b4:	9736                	add	a4,a4,a3
200a54b6:	b945                	j	200a5166 <__subdf3+0x1a2>
200a54b8:	49769893          	bclri	a7,a3,0x17
200a54bc:	8f89                	sub	a5,a5,a0
200a54be:	06f6                	slli	a3,a3,0x1d
200a54c0:	0038d893          	srli	a7,a7,0x3
200a54c4:	bd71                	j	200a5360 <__subdf3+0x39c>
200a54c6:	7ff00793          	li	a5,2047
200a54ca:	dcf801e3          	beq	a6,a5,200a528c <__subdf3+0x2c8>
200a54ce:	01cf06b3          	add	a3,t5,t3
200a54d2:	01e6b633          	sltu	a2,a3,t5
200a54d6:	011707b3          	add	a5,a4,a7
200a54da:	97b2                	add	a5,a5,a2
200a54dc:	8285                	srli	a3,a3,0x1
200a54de:	01f79613          	slli	a2,a5,0x1f
200a54e2:	8e55                	or	a2,a2,a3
200a54e4:	8a9d                	andi	a3,a3,7
200a54e6:	0017d713          	srli	a4,a5,0x1
200a54ea:	87c2                	mv	a5,a6
200a54ec:	bc069be3          	bnez	a3,200a50c2 <__subdf3+0xfe>
200a54f0:	b5e5                	j	200a53d8 <__subdf3+0x414>
200a54f2:	41ee0633          	sub	a2,t3,t5
200a54f6:	40e888b3          	sub	a7,a7,a4
200a54fa:	00ce3e33          	sltu	t3,t3,a2
200a54fe:	41c88733          	sub	a4,a7,t3
200a5502:	85c2                	mv	a1,a6
200a5504:	be85                	j	200a5074 <__subdf3+0xb0>
200a5506:	10031863          	bnez	t1,200a5616 <__subdf3+0x652>
200a550a:	18069e63          	bnez	a3,200a56a6 <__subdf3+0x6e2>
200a550e:	4581                	li	a1,0
200a5510:	7ff00793          	li	a5,2047
200a5514:	000808b7          	lui	a7,0x80
200a5518:	b6ed                	j	200a5102 <__subdf3+0x13e>
200a551a:	9e7a                	add	t3,t3,t5
200a551c:	98ba                	add	a7,a7,a4
200a551e:	01ee3f33          	sltu	t5,t3,t5
200a5522:	01e88733          	add	a4,a7,t5
200a5526:	008007b7          	lui	a5,0x800
200a552a:	8ff9                	and	a5,a5,a4
200a552c:	8672                	mv	a2,t3
200a552e:	d6078ce3          	beqz	a5,200a52a6 <__subdf3+0x2e2>
200a5532:	4789                	li	a5,2
200a5534:	b981                	j	200a5184 <__subdf3+0x1c0>
200a5536:	050e                	slli	a0,a0,0x3
200a5538:	00355693          	srli	a3,a0,0x3
200a553c:	01d71793          	slli	a5,a4,0x1d
200a5540:	8edd                	or	a3,a3,a5
200a5542:	00375893          	srli	a7,a4,0x3
200a5546:	b151                	j	200a51ca <__subdf3+0x206>
200a5548:	41cf0e33          	sub	t3,t5,t3
200a554c:	411708b3          	sub	a7,a4,a7
200a5550:	01cf3f33          	sltu	t5,t5,t3
200a5554:	8672                	mv	a2,t3
200a5556:	41e88733          	sub	a4,a7,t5
200a555a:	4785                	li	a5,1
200a555c:	b621                	j	200a5064 <__subdf3+0xa0>
200a555e:	050e                	slli	a0,a0,0x3
200a5560:	01d71693          	slli	a3,a4,0x1d
200a5564:	810d                	srli	a0,a0,0x3
200a5566:	8ec9                	or	a3,a3,a0
200a5568:	00375893          	srli	a7,a4,0x3
200a556c:	b9b9                	j	200a51ca <__subdf3+0x206>
200a556e:	d40682e3          	beqz	a3,200a52b2 <__subdf3+0x2ee>
200a5572:	40f30533          	sub	a0,t1,a5
200a5576:	86aa                	mv	a3,a0
200a5578:	e00784e3          	beqz	a5,200a5380 <__subdf3+0x3bc>
200a557c:	03800793          	li	a5,56
200a5580:	85c2                	mv	a1,a6
200a5582:	29771713          	bseti	a4,a4,0x17
200a5586:	eca7d2e3          	bge	a5,a0,200a544a <__subdf3+0x486>
200a558a:	4605                	li	a2,1
200a558c:	b5dd                	j	200a5472 <__subdf3+0x4ae>
200a558e:	ceed                	beqz	a3,200a5688 <__subdf3+0x6c4>
200a5590:	01c8ee33          	or	t3,a7,t3
200a5594:	c20e1ee3          	bnez	t3,200a51d0 <__subdf3+0x20c>
200a5598:	050e                	slli	a0,a0,0x3
200a559a:	810d                	srli	a0,a0,0x3
200a559c:	01d71793          	slli	a5,a4,0x1d
200a55a0:	00f566b3          	or	a3,a0,a5
200a55a4:	00375893          	srli	a7,a4,0x3
200a55a8:	b10d                	j	200a51ca <__subdf3+0x206>
200a55aa:	fe050793          	addi	a5,a0,-32
200a55ae:	02000693          	li	a3,32
200a55b2:	00f757b3          	srl	a5,a4,a5
200a55b6:	00d50963          	beq	a0,a3,200a55c8 <__subdf3+0x604>
200a55ba:	04000693          	li	a3,64
200a55be:	8e89                	sub	a3,a3,a0
200a55c0:	00d71733          	sll	a4,a4,a3
200a55c4:	00ef6f33          	or	t5,t5,a4
200a55c8:	01e03633          	snez	a2,t5
200a55cc:	8e5d                	or	a2,a2,a5
200a55ce:	b555                	j	200a5472 <__subdf3+0x4ae>
200a55d0:	41ee0633          	sub	a2,t3,t5
200a55d4:	40e888b3          	sub	a7,a7,a4
200a55d8:	00ce3e33          	sltu	t3,t3,a2
200a55dc:	41c88733          	sub	a4,a7,t3
200a55e0:	85c2                	mv	a1,a6
200a55e2:	4785                	li	a5,1
200a55e4:	b441                	j	200a5064 <__subdf3+0xa0>
200a55e6:	e0068de3          	beqz	a3,200a5400 <__subdf3+0x43c>
200a55ea:	060e                	slli	a2,a2,0x3
200a55ec:	01d89693          	slli	a3,a7,0x1d
200a55f0:	00365713          	srli	a4,a2,0x3
200a55f4:	8ed9                	or	a3,a3,a4
200a55f6:	0038d893          	srli	a7,a7,0x3
200a55fa:	85c2                	mv	a1,a6
200a55fc:	b395                	j	200a5360 <__subdf3+0x39c>
200a55fe:	050e                	slli	a0,a0,0x3
200a5600:	01d71693          	slli	a3,a4,0x1d
200a5604:	00355613          	srli	a2,a0,0x3
200a5608:	8ed1                	or	a3,a3,a2
200a560a:	00375893          	srli	a7,a4,0x3
200a560e:	bb89                	j	200a5360 <__subdf3+0x39c>
200a5610:	8746                	mv	a4,a7
200a5612:	8f72                	mv	t5,t3
200a5614:	bba5                	j	200a538c <__subdf3+0x3c8>
200a5616:	ba069de3          	bnez	a3,200a51d0 <__subdf3+0x20c>
200a561a:	050e                	slli	a0,a0,0x3
200a561c:	01d71693          	slli	a3,a4,0x1d
200a5620:	00355793          	srli	a5,a0,0x3
200a5624:	8edd                	or	a3,a3,a5
200a5626:	00375893          	srli	a7,a4,0x3
200a562a:	b645                	j	200a51ca <__subdf3+0x206>
200a562c:	060e                	slli	a2,a2,0x3
200a562e:	01d89713          	slli	a4,a7,0x1d
200a5632:	820d                	srli	a2,a2,0x3
200a5634:	00e666b3          	or	a3,a2,a4
200a5638:	0038d893          	srli	a7,a7,0x3
200a563c:	b315                	j	200a5360 <__subdf3+0x39c>
200a563e:	050e                	slli	a0,a0,0x3
200a5640:	810d                	srli	a0,a0,0x3
200a5642:	01d71693          	slli	a3,a4,0x1d
200a5646:	8ec9                	or	a3,a3,a0
200a5648:	00375893          	srli	a7,a4,0x3
200a564c:	bb11                	j	200a5360 <__subdf3+0x39c>
200a564e:	060e                	slli	a2,a2,0x3
200a5650:	01d89693          	slli	a3,a7,0x1d
200a5654:	00365793          	srli	a5,a2,0x3
200a5658:	8edd                	or	a3,a3,a5
200a565a:	0038d893          	srli	a7,a7,0x3
200a565e:	85c2                	mv	a1,a6
200a5660:	b6ad                	j	200a51ca <__subdf3+0x206>
200a5662:	fe050693          	addi	a3,a0,-32
200a5666:	02000793          	li	a5,32
200a566a:	00d756b3          	srl	a3,a4,a3
200a566e:	00f50963          	beq	a0,a5,200a5680 <__subdf3+0x6bc>
200a5672:	04000793          	li	a5,64
200a5676:	8f89                	sub	a5,a5,a0
200a5678:	00f717b3          	sll	a5,a4,a5
200a567c:	00ff6f33          	or	t5,t5,a5
200a5680:	01e037b3          	snez	a5,t5
200a5684:	8fd5                	or	a5,a5,a3
200a5686:	b6cd                	j	200a5268 <__subdf3+0x2a4>
200a5688:	060e                	slli	a2,a2,0x3
200a568a:	01d89693          	slli	a3,a7,0x1d
200a568e:	00365793          	srli	a5,a2,0x3
200a5692:	8edd                	or	a3,a3,a5
200a5694:	0038d893          	srli	a7,a7,0x3
200a5698:	be0d                	j	200a51ca <__subdf3+0x206>
200a569a:	00a666b3          	or	a3,a2,a0
200a569e:	872a                	mv	a4,a0
200a56a0:	d2069ce3          	bnez	a3,200a53d8 <__subdf3+0x414>
200a56a4:	bbb1                	j	200a5400 <__subdf3+0x43c>
200a56a6:	060e                	slli	a2,a2,0x3
200a56a8:	01d89693          	slli	a3,a7,0x1d
200a56ac:	820d                	srli	a2,a2,0x3
200a56ae:	8ed1                	or	a3,a3,a2
200a56b0:	0038d893          	srli	a7,a7,0x3
200a56b4:	85c2                	mv	a1,a6
200a56b6:	be11                	j	200a51ca <__subdf3+0x206>
200a56b8:	02000813          	li	a6,32
200a56bc:	40a80833          	sub	a6,a6,a0
200a56c0:	4781                	li	a5,0
200a56c2:	b2ed                	j	200a50ac <__subdf3+0xe8>
200a56c4:	cc068ce3          	beqz	a3,200a539c <__subdf3+0x3d8>
200a56c8:	40f30533          	sub	a0,t1,a5
200a56cc:	e399                	bnez	a5,200a56d2 <__subdf3+0x70e>
200a56ce:	86aa                	mv	a3,a0
200a56d0:	be81                	j	200a5220 <__subdf3+0x25c>
200a56d2:	03800693          	li	a3,56
200a56d6:	4785                	li	a5,1
200a56d8:	29771713          	bseti	a4,a4,0x17
200a56dc:	b6a6d3e3          	bge	a3,a0,200a5242 <__subdf3+0x27e>
200a56e0:	b661                	j	200a5268 <__subdf3+0x2a4>

200a56e2 <__unorddf2>:
200a56e2:	0145d713          	srli	a4,a1,0x14
200a56e6:	001007b7          	lui	a5,0x100
200a56ea:	17fd                	addi	a5,a5,-1 # fffff <_data_lma+0xc5e57>
200a56ec:	0146d813          	srli	a6,a3,0x14
200a56f0:	7ff77713          	andi	a4,a4,2047
200a56f4:	7ff00893          	li	a7,2047
200a56f8:	8dfd                	and	a1,a1,a5
200a56fa:	7ff87813          	andi	a6,a6,2047
200a56fe:	8ff5                	and	a5,a5,a3
200a5700:	01170c63          	beq	a4,a7,200a5718 <__unorddf2+0x36>
200a5704:	7ff00713          	li	a4,2047
200a5708:	4501                	li	a0,0
200a570a:	00e80363          	beq	a6,a4,200a5710 <__unorddf2+0x2e>
200a570e:	8082                	ret
200a5710:	8fd1                	or	a5,a5,a2
200a5712:	00f03533          	snez	a0,a5
200a5716:	8082                	ret
200a5718:	8dc9                	or	a1,a1,a0
200a571a:	4505                	li	a0,1
200a571c:	d5e5                	beqz	a1,200a5704 <__unorddf2+0x22>
200a571e:	8082                	ret

200a5720 <__fixdfsi>:
200a5720:	0145d793          	srli	a5,a1,0x14
200a5724:	00c59713          	slli	a4,a1,0xc
200a5728:	7ff7f793          	andi	a5,a5,2047
200a572c:	3fe00693          	li	a3,1022
200a5730:	8331                	srli	a4,a4,0xc
200a5732:	81fd                	srli	a1,a1,0x1f
200a5734:	00f6db63          	bge	a3,a5,200a574a <__fixdfsi+0x2a>
200a5738:	41d00693          	li	a3,1053
200a573c:	00f6d963          	bge	a3,a5,200a574e <__fixdfsi+0x2e>
200a5740:	80000537          	lui	a0,0x80000
200a5744:	157d                	addi	a0,a0,-1 # 7fffffff <_eusrstack+0x5fefffff>
200a5746:	952e                	add	a0,a0,a1
200a5748:	8082                	ret
200a574a:	4501                	li	a0,0
200a574c:	8082                	ret
200a574e:	43300693          	li	a3,1075
200a5752:	8e9d                	sub	a3,a3,a5
200a5754:	467d                	li	a2,31
200a5756:	29471713          	bseti	a4,a4,0x14
200a575a:	00d65d63          	bge	a2,a3,200a5774 <__fixdfsi+0x54>
200a575e:	41300693          	li	a3,1043
200a5762:	40f687b3          	sub	a5,a3,a5
200a5766:	00f75733          	srl	a4,a4,a5
200a576a:	40e00533          	neg	a0,a4
200a576e:	fdf9                	bnez	a1,200a574c <__fixdfsi+0x2c>
200a5770:	853a                	mv	a0,a4
200a5772:	8082                	ret
200a5774:	bed78793          	addi	a5,a5,-1043
200a5778:	00f71733          	sll	a4,a4,a5
200a577c:	00d55533          	srl	a0,a0,a3
200a5780:	8f49                	or	a4,a4,a0
200a5782:	b7e5                	j	200a576a <__fixdfsi+0x4a>

200a5784 <__floatsidf>:
200a5784:	c121                	beqz	a0,200a57c4 <__floatsidf+0x40>
200a5786:	40a00733          	neg	a4,a0
200a578a:	41e00793          	li	a5,1054
200a578e:	0ae56733          	max	a4,a0,a4
200a5792:	46a9                	li	a3,10
200a5794:	60071613          	clz	a2,a4
200a5798:	8f91                	sub	a5,a5,a2
200a579a:	817d                	srli	a0,a0,0x1f
200a579c:	7ff7f793          	andi	a5,a5,2047
200a57a0:	02c6cd63          	blt	a3,a2,200a57da <__floatsidf+0x56>
200a57a4:	46ad                	li	a3,11
200a57a6:	8e91                	sub	a3,a3,a2
200a57a8:	00d756b3          	srl	a3,a4,a3
200a57ac:	06b2                	slli	a3,a3,0xc
200a57ae:	82b1                	srli	a3,a3,0xc
200a57b0:	07d2                	slli	a5,a5,0x14
200a57b2:	0655                	addi	a2,a2,21
200a57b4:	8fd5                	or	a5,a5,a3
200a57b6:	057e                	slli	a0,a0,0x1f
200a57b8:	8fc9                	or	a5,a5,a0
200a57ba:	00c71733          	sll	a4,a4,a2
200a57be:	853a                	mv	a0,a4
200a57c0:	85be                	mv	a1,a5
200a57c2:	8082                	ret
200a57c4:	4781                	li	a5,0
200a57c6:	4681                	li	a3,0
200a57c8:	4501                	li	a0,0
200a57ca:	07d2                	slli	a5,a5,0x14
200a57cc:	8fd5                	or	a5,a5,a3
200a57ce:	057e                	slli	a0,a0,0x1f
200a57d0:	8fc9                	or	a5,a5,a0
200a57d2:	4701                	li	a4,0
200a57d4:	853a                	mv	a0,a4
200a57d6:	85be                	mv	a1,a5
200a57d8:	8082                	ret
200a57da:	1655                	addi	a2,a2,-11
200a57dc:	00c716b3          	sll	a3,a4,a2
200a57e0:	06b2                	slli	a3,a3,0xc
200a57e2:	82b1                	srli	a3,a3,0xc
200a57e4:	07d2                	slli	a5,a5,0x14
200a57e6:	8fd5                	or	a5,a5,a3
200a57e8:	057e                	slli	a0,a0,0x1f
200a57ea:	8fc9                	or	a5,a5,a0
200a57ec:	4701                	li	a4,0
200a57ee:	853a                	mv	a0,a4
200a57f0:	85be                	mv	a1,a5
200a57f2:	8082                	ret

200a57f4 <__floatunsidf>:
200a57f4:	c90d                	beqz	a0,200a5826 <__floatunsidf+0x32>
200a57f6:	41e00793          	li	a5,1054
200a57fa:	60051713          	clz	a4,a0
200a57fe:	46a9                	li	a3,10
200a5800:	8f99                	sub	a5,a5,a4
200a5802:	7ff7f793          	andi	a5,a5,2047
200a5806:	02e6c663          	blt	a3,a4,200a5832 <__floatunsidf+0x3e>
200a580a:	46ad                	li	a3,11
200a580c:	8e99                	sub	a3,a3,a4
200a580e:	00d556b3          	srl	a3,a0,a3
200a5812:	0755                	addi	a4,a4,21
200a5814:	06b2                	slli	a3,a3,0xc
200a5816:	00e51533          	sll	a0,a0,a4
200a581a:	07d2                	slli	a5,a5,0x14
200a581c:	00c6d713          	srli	a4,a3,0xc
200a5820:	8fd9                	or	a5,a5,a4
200a5822:	85be                	mv	a1,a5
200a5824:	8082                	ret
200a5826:	4781                	li	a5,0
200a5828:	4701                	li	a4,0
200a582a:	07d2                	slli	a5,a5,0x14
200a582c:	8fd9                	or	a5,a5,a4
200a582e:	85be                	mv	a1,a5
200a5830:	8082                	ret
200a5832:	1755                	addi	a4,a4,-11
200a5834:	00e51733          	sll	a4,a0,a4
200a5838:	0732                	slli	a4,a4,0xc
200a583a:	8331                	srli	a4,a4,0xc
200a583c:	07d2                	slli	a5,a5,0x14
200a583e:	8fd9                	or	a5,a5,a4
200a5840:	4501                	li	a0,0
200a5842:	85be                	mv	a1,a5
200a5844:	8082                	ret

200a5846 <__gesf2>:
200a5846:	01755613          	srli	a2,a0,0x17
200a584a:	00800737          	lui	a4,0x800
200a584e:	177d                	addi	a4,a4,-1 # 7fffff <_data_lma+0x7c5e57>
200a5850:	0175d693          	srli	a3,a1,0x17
200a5854:	0ff67613          	zext.b	a2,a2
200a5858:	0ff00813          	li	a6,255
200a585c:	00a778b3          	and	a7,a4,a0
200a5860:	01f55793          	srli	a5,a0,0x1f
200a5864:	8f6d                	and	a4,a4,a1
200a5866:	0ff6f513          	zext.b	a0,a3
200a586a:	81fd                	srli	a1,a1,0x1f
200a586c:	03060563          	beq	a2,a6,200a5896 <__gesf2+0x50>
200a5870:	01050a63          	beq	a0,a6,200a5884 <__gesf2+0x3e>
200a5874:	ea05                	bnez	a2,200a58a4 <__gesf2+0x5e>
200a5876:	e909                	bnez	a0,200a5888 <__gesf2+0x42>
200a5878:	c339                	beqz	a4,200a58be <__gesf2+0x78>
200a587a:	04089e63          	bnez	a7,200a58d6 <__gesf2+0x90>
200a587e:	c9a1                	beqz	a1,200a58ce <__gesf2+0x88>
200a5880:	852e                	mv	a0,a1
200a5882:	8082                	ret
200a5884:	e739                	bnez	a4,200a58d2 <__gesf2+0x8c>
200a5886:	e219                	bnez	a2,200a588c <__gesf2+0x46>
200a5888:	fe088be3          	beqz	a7,200a587e <__gesf2+0x38>
200a588c:	00b79963          	bne	a5,a1,200a589e <__gesf2+0x58>
200a5890:	cf9d                	beqz	a5,200a58ce <__gesf2+0x88>
200a5892:	853e                	mv	a0,a5
200a5894:	8082                	ret
200a5896:	02089e63          	bnez	a7,200a58d2 <__gesf2+0x8c>
200a589a:	02c50563          	beq	a0,a2,200a58c4 <__gesf2+0x7e>
200a589e:	4505                	li	a0,1
200a58a0:	e79d                	bnez	a5,200a58ce <__gesf2+0x88>
200a58a2:	8082                	ret
200a58a4:	dd6d                	beqz	a0,200a589e <__gesf2+0x58>
200a58a6:	feb79ce3          	bne	a5,a1,200a589e <__gesf2+0x58>
200a58aa:	fec54ae3          	blt	a0,a2,200a589e <__gesf2+0x58>
200a58ae:	fea641e3          	blt	a2,a0,200a5890 <__gesf2+0x4a>
200a58b2:	ff1766e3          	bltu	a4,a7,200a589e <__gesf2+0x58>
200a58b6:	4501                	li	a0,0
200a58b8:	fce8ece3          	bltu	a7,a4,200a5890 <__gesf2+0x4a>
200a58bc:	8082                	ret
200a58be:	fe0890e3          	bnez	a7,200a589e <__gesf2+0x58>
200a58c2:	8082                	ret
200a58c4:	e719                	bnez	a4,200a58d2 <__gesf2+0x8c>
200a58c6:	fcb79ce3          	bne	a5,a1,200a589e <__gesf2+0x58>
200a58ca:	4501                	li	a0,0
200a58cc:	8082                	ret
200a58ce:	557d                	li	a0,-1
200a58d0:	8082                	ret
200a58d2:	5579                	li	a0,-2
200a58d4:	8082                	ret
200a58d6:	fcb78ee3          	beq	a5,a1,200a58b2 <__gesf2+0x6c>
200a58da:	b7d1                	j	200a589e <__gesf2+0x58>

200a58dc <__extendsfdf2>:
200a58dc:	01755793          	srli	a5,a0,0x17
200a58e0:	0ff7f793          	zext.b	a5,a5
200a58e4:	00178693          	addi	a3,a5,1
200a58e8:	00951713          	slli	a4,a0,0x9
200a58ec:	0fe6f693          	andi	a3,a3,254
200a58f0:	8325                	srli	a4,a4,0x9
200a58f2:	817d                	srli	a0,a0,0x1f
200a58f4:	ce89                	beqz	a3,200a590e <__extendsfdf2+0x32>
200a58f6:	38078793          	addi	a5,a5,896
200a58fa:	00375693          	srli	a3,a4,0x3
200a58fe:	07d2                	slli	a5,a5,0x14
200a5900:	8fd5                	or	a5,a5,a3
200a5902:	057e                	slli	a0,a0,0x1f
200a5904:	8fc9                	or	a5,a5,a0
200a5906:	0776                	slli	a4,a4,0x1d
200a5908:	853a                	mv	a0,a4
200a590a:	85be                	mv	a1,a5
200a590c:	8082                	ret
200a590e:	ef8d                	bnez	a5,200a5948 <__extendsfdf2+0x6c>
200a5910:	cf29                	beqz	a4,200a596a <__extendsfdf2+0x8e>
200a5912:	47a9                	li	a5,10
200a5914:	60071613          	clz	a2,a4
200a5918:	06c7cc63          	blt	a5,a2,200a5990 <__extendsfdf2+0xb4>
200a591c:	46ad                	li	a3,11
200a591e:	8e91                	sub	a3,a3,a2
200a5920:	01560793          	addi	a5,a2,21
200a5924:	00d756b3          	srl	a3,a4,a3
200a5928:	00f71733          	sll	a4,a4,a5
200a592c:	38900793          	li	a5,905
200a5930:	8f91                	sub	a5,a5,a2
200a5932:	06b2                	slli	a3,a3,0xc
200a5934:	7ff7f793          	andi	a5,a5,2047
200a5938:	82b1                	srli	a3,a3,0xc
200a593a:	07d2                	slli	a5,a5,0x14
200a593c:	8fd5                	or	a5,a5,a3
200a593e:	057e                	slli	a0,a0,0x1f
200a5940:	8fc9                	or	a5,a5,a0
200a5942:	85be                	mv	a1,a5
200a5944:	853a                	mv	a0,a4
200a5946:	8082                	ret
200a5948:	cb15                	beqz	a4,200a597c <__extendsfdf2+0xa0>
200a594a:	00375693          	srli	a3,a4,0x3
200a594e:	7ff00793          	li	a5,2047
200a5952:	29369693          	bseti	a3,a3,0x13
200a5956:	06b2                	slli	a3,a3,0xc
200a5958:	82b1                	srli	a3,a3,0xc
200a595a:	07d2                	slli	a5,a5,0x14
200a595c:	8fd5                	or	a5,a5,a3
200a595e:	057e                	slli	a0,a0,0x1f
200a5960:	8fc9                	or	a5,a5,a0
200a5962:	0776                	slli	a4,a4,0x1d
200a5964:	853a                	mv	a0,a4
200a5966:	85be                	mv	a1,a5
200a5968:	8082                	ret
200a596a:	4781                	li	a5,0
200a596c:	4681                	li	a3,0
200a596e:	07d2                	slli	a5,a5,0x14
200a5970:	8fd5                	or	a5,a5,a3
200a5972:	057e                	slli	a0,a0,0x1f
200a5974:	8fc9                	or	a5,a5,a0
200a5976:	85be                	mv	a1,a5
200a5978:	853a                	mv	a0,a4
200a597a:	8082                	ret
200a597c:	7ff00793          	li	a5,2047
200a5980:	4681                	li	a3,0
200a5982:	07d2                	slli	a5,a5,0x14
200a5984:	8fd5                	or	a5,a5,a3
200a5986:	057e                	slli	a0,a0,0x1f
200a5988:	8fc9                	or	a5,a5,a0
200a598a:	85be                	mv	a1,a5
200a598c:	853a                	mv	a0,a4
200a598e:	8082                	ret
200a5990:	ff560693          	addi	a3,a2,-11
200a5994:	00d716b3          	sll	a3,a4,a3
200a5998:	4701                	li	a4,0
200a599a:	bf49                	j	200a592c <__extendsfdf2+0x50>

200a599c <abort>:
200a599c:	1141                	addi	sp,sp,-16
200a599e:	4519                	li	a0,6
200a59a0:	c606                	sw	ra,12(sp)
200a59a2:	154010ef          	jal	ra,200a6af6 <raise>
200a59a6:	4505                	li	a0,1
200a59a8:	3d4030ef          	jal	ra,200a8d7c <_exit>

200a59ac <__assert_func>:
200a59ac:	1141                	addi	sp,sp,-16
200a59ae:	8281a783          	lw	a5,-2008(gp) # 200c1c20 <_impure_ptr>
200a59b2:	8832                	mv	a6,a2
200a59b4:	c606                	sw	ra,12(sp)
200a59b6:	88aa                	mv	a7,a0
200a59b8:	872e                	mv	a4,a1
200a59ba:	47c8                	lw	a0,12(a5)
200a59bc:	8636                	mv	a2,a3
200a59be:	00004797          	auipc	a5,0x4
200a59c2:	24678793          	addi	a5,a5,582 # 200a9c04 <__clz_tab+0x100>
200a59c6:	00081763          	bnez	a6,200a59d4 <__assert_func+0x28>
200a59ca:	00003797          	auipc	a5,0x3
200a59ce:	3d278793          	addi	a5,a5,978 # 200a8d9c <_exit+0x20>
200a59d2:	883e                	mv	a6,a5
200a59d4:	86c6                	mv	a3,a7
200a59d6:	00004597          	auipc	a1,0x4
200a59da:	23e58593          	addi	a1,a1,574 # 200a9c14 <__clz_tab+0x110>
200a59de:	2011                	jal	200a59e2 <fiprintf>
200a59e0:	3f75                	jal	200a599c <abort>

200a59e2 <fiprintf>:
200a59e2:	7139                	addi	sp,sp,-64
200a59e4:	d432                	sw	a2,40(sp)
200a59e6:	d636                	sw	a3,44(sp)
200a59e8:	862e                	mv	a2,a1
200a59ea:	1034                	addi	a3,sp,40
200a59ec:	85aa                	mv	a1,a0
200a59ee:	8281a503          	lw	a0,-2008(gp) # 200c1c20 <_impure_ptr>
200a59f2:	ce06                	sw	ra,28(sp)
200a59f4:	d83a                	sw	a4,48(sp)
200a59f6:	da3e                	sw	a5,52(sp)
200a59f8:	dc42                	sw	a6,56(sp)
200a59fa:	de46                	sw	a7,60(sp)
200a59fc:	c636                	sw	a3,12(sp)
200a59fe:	45f000ef          	jal	ra,200a665c <_vfiprintf_r>
200a5a02:	40f2                	lw	ra,28(sp)
200a5a04:	6121                	addi	sp,sp,64
200a5a06:	8082                	ret

200a5a08 <malloc>:
200a5a08:	85aa                	mv	a1,a0
200a5a0a:	8281a503          	lw	a0,-2008(gp) # 200c1c20 <_impure_ptr>
200a5a0e:	a219                	j	200a5b14 <_malloc_r>

200a5a10 <_free_r>:
200a5a10:	c1d5                	beqz	a1,200a5ab4 <_free_r+0xa4>
200a5a12:	ffc5a783          	lw	a5,-4(a1)
200a5a16:	1101                	addi	sp,sp,-32
200a5a18:	cc22                	sw	s0,24(sp)
200a5a1a:	ce06                	sw	ra,28(sp)
200a5a1c:	ffc58413          	addi	s0,a1,-4
200a5a20:	0007d363          	bgez	a5,200a5a26 <_free_r+0x16>
200a5a24:	943e                	add	s0,s0,a5
200a5a26:	c62a                	sw	a0,12(sp)
200a5a28:	60c020ef          	jal	ra,200a8034 <__malloc_lock>
200a5a2c:	00030717          	auipc	a4,0x30
200a5a30:	2fc70713          	addi	a4,a4,764 # 200d5d28 <__malloc_free_list>
200a5a34:	431c                	lw	a5,0(a4)
200a5a36:	4532                	lw	a0,12(sp)
200a5a38:	eb89                	bnez	a5,200a5a4a <_free_r+0x3a>
200a5a3a:	00042223          	sw	zero,4(s0)
200a5a3e:	c300                	sw	s0,0(a4)
200a5a40:	4462                	lw	s0,24(sp)
200a5a42:	40f2                	lw	ra,28(sp)
200a5a44:	6105                	addi	sp,sp,32
200a5a46:	5fa0206f          	j	200a8040 <__malloc_unlock>
200a5a4a:	00f47d63          	bgeu	s0,a5,200a5a64 <_free_r+0x54>
200a5a4e:	4010                	lw	a2,0(s0)
200a5a50:	00c406b3          	add	a3,s0,a2
200a5a54:	00d79663          	bne	a5,a3,200a5a60 <_free_r+0x50>
200a5a58:	4394                	lw	a3,0(a5)
200a5a5a:	43dc                	lw	a5,4(a5)
200a5a5c:	96b2                	add	a3,a3,a2
200a5a5e:	c014                	sw	a3,0(s0)
200a5a60:	c05c                	sw	a5,4(s0)
200a5a62:	bff1                	j	200a5a3e <_free_r+0x2e>
200a5a64:	873e                	mv	a4,a5
200a5a66:	43dc                	lw	a5,4(a5)
200a5a68:	c399                	beqz	a5,200a5a6e <_free_r+0x5e>
200a5a6a:	fef47de3          	bgeu	s0,a5,200a5a64 <_free_r+0x54>
200a5a6e:	4314                	lw	a3,0(a4)
200a5a70:	00d70633          	add	a2,a4,a3
200a5a74:	00861f63          	bne	a2,s0,200a5a92 <_free_r+0x82>
200a5a78:	4010                	lw	a2,0(s0)
200a5a7a:	96b2                	add	a3,a3,a2
200a5a7c:	c314                	sw	a3,0(a4)
200a5a7e:	00d70633          	add	a2,a4,a3
200a5a82:	fac79fe3          	bne	a5,a2,200a5a40 <_free_r+0x30>
200a5a86:	4390                	lw	a2,0(a5)
200a5a88:	43dc                	lw	a5,4(a5)
200a5a8a:	96b2                	add	a3,a3,a2
200a5a8c:	c314                	sw	a3,0(a4)
200a5a8e:	c35c                	sw	a5,4(a4)
200a5a90:	bf45                	j	200a5a40 <_free_r+0x30>
200a5a92:	00c47563          	bgeu	s0,a2,200a5a9c <_free_r+0x8c>
200a5a96:	47b1                	li	a5,12
200a5a98:	c11c                	sw	a5,0(a0)
200a5a9a:	b75d                	j	200a5a40 <_free_r+0x30>
200a5a9c:	4010                	lw	a2,0(s0)
200a5a9e:	00c406b3          	add	a3,s0,a2
200a5aa2:	00d79663          	bne	a5,a3,200a5aae <_free_r+0x9e>
200a5aa6:	4394                	lw	a3,0(a5)
200a5aa8:	43dc                	lw	a5,4(a5)
200a5aaa:	96b2                	add	a3,a3,a2
200a5aac:	c014                	sw	a3,0(s0)
200a5aae:	c05c                	sw	a5,4(s0)
200a5ab0:	c340                	sw	s0,4(a4)
200a5ab2:	b779                	j	200a5a40 <_free_r+0x30>
200a5ab4:	8082                	ret

200a5ab6 <sbrk_aligned>:
200a5ab6:	1141                	addi	sp,sp,-16
200a5ab8:	c04a                	sw	s2,0(sp)
200a5aba:	00030917          	auipc	s2,0x30
200a5abe:	26a90913          	addi	s2,s2,618 # 200d5d24 <__malloc_sbrk_start>
200a5ac2:	00092783          	lw	a5,0(s2)
200a5ac6:	c422                	sw	s0,8(sp)
200a5ac8:	c226                	sw	s1,4(sp)
200a5aca:	c606                	sw	ra,12(sp)
200a5acc:	84aa                	mv	s1,a0
200a5ace:	842e                	mv	s0,a1
200a5ad0:	e791                	bnez	a5,200a5adc <sbrk_aligned+0x26>
200a5ad2:	4581                	li	a1,0
200a5ad4:	795000ef          	jal	ra,200a6a68 <_sbrk_r>
200a5ad8:	00a92023          	sw	a0,0(s2)
200a5adc:	85a2                	mv	a1,s0
200a5ade:	8526                	mv	a0,s1
200a5ae0:	789000ef          	jal	ra,200a6a68 <_sbrk_r>
200a5ae4:	597d                	li	s2,-1
200a5ae6:	01251a63          	bne	a0,s2,200a5afa <sbrk_aligned+0x44>
200a5aea:	547d                	li	s0,-1
200a5aec:	40b2                	lw	ra,12(sp)
200a5aee:	8522                	mv	a0,s0
200a5af0:	4422                	lw	s0,8(sp)
200a5af2:	4492                	lw	s1,4(sp)
200a5af4:	4902                	lw	s2,0(sp)
200a5af6:	0141                	addi	sp,sp,16
200a5af8:	8082                	ret
200a5afa:	00350413          	addi	s0,a0,3
200a5afe:	9871                	andi	s0,s0,-4
200a5b00:	fe8506e3          	beq	a0,s0,200a5aec <sbrk_aligned+0x36>
200a5b04:	40a405b3          	sub	a1,s0,a0
200a5b08:	8526                	mv	a0,s1
200a5b0a:	75f000ef          	jal	ra,200a6a68 <_sbrk_r>
200a5b0e:	fd251fe3          	bne	a0,s2,200a5aec <sbrk_aligned+0x36>
200a5b12:	bfe1                	j	200a5aea <sbrk_aligned+0x34>

200a5b14 <_malloc_r>:
200a5b14:	1101                	addi	sp,sp,-32
200a5b16:	ca26                	sw	s1,20(sp)
200a5b18:	00358493          	addi	s1,a1,3
200a5b1c:	98f1                	andi	s1,s1,-4
200a5b1e:	c84a                	sw	s2,16(sp)
200a5b20:	04a1                	addi	s1,s1,8
200a5b22:	47b1                	li	a5,12
200a5b24:	ce06                	sw	ra,28(sp)
200a5b26:	cc22                	sw	s0,24(sp)
200a5b28:	c64e                	sw	s3,12(sp)
200a5b2a:	892a                	mv	s2,a0
200a5b2c:	0af4f4b3          	maxu	s1,s1,a5
200a5b30:	0004c463          	bltz	s1,200a5b38 <_malloc_r+0x24>
200a5b34:	00b4fd63          	bgeu	s1,a1,200a5b4e <_malloc_r+0x3a>
200a5b38:	47b1                	li	a5,12
200a5b3a:	00f92023          	sw	a5,0(s2)
200a5b3e:	4501                	li	a0,0
200a5b40:	40f2                	lw	ra,28(sp)
200a5b42:	4462                	lw	s0,24(sp)
200a5b44:	44d2                	lw	s1,20(sp)
200a5b46:	4942                	lw	s2,16(sp)
200a5b48:	49b2                	lw	s3,12(sp)
200a5b4a:	6105                	addi	sp,sp,32
200a5b4c:	8082                	ret
200a5b4e:	4e6020ef          	jal	ra,200a8034 <__malloc_lock>
200a5b52:	00030997          	auipc	s3,0x30
200a5b56:	1d698993          	addi	s3,s3,470 # 200d5d28 <__malloc_free_list>
200a5b5a:	0009a783          	lw	a5,0(s3)
200a5b5e:	843e                	mv	s0,a5
200a5b60:	e439                	bnez	s0,200a5bae <_malloc_r+0x9a>
200a5b62:	85a6                	mv	a1,s1
200a5b64:	854a                	mv	a0,s2
200a5b66:	3f81                	jal	200a5ab6 <sbrk_aligned>
200a5b68:	57fd                	li	a5,-1
200a5b6a:	842a                	mv	s0,a0
200a5b6c:	0af51963          	bne	a0,a5,200a5c1e <_malloc_r+0x10a>
200a5b70:	0009a403          	lw	s0,0(s3)
200a5b74:	87a2                	mv	a5,s0
200a5b76:	ebd1                	bnez	a5,200a5c0a <_malloc_r+0xf6>
200a5b78:	00042983          	lw	s3,0(s0)
200a5b7c:	4581                	li	a1,0
200a5b7e:	854a                	mv	a0,s2
200a5b80:	99a2                	add	s3,s3,s0
200a5b82:	6e7000ef          	jal	ra,200a6a68 <_sbrk_r>
200a5b86:	08a99563          	bne	s3,a0,200a5c10 <_malloc_r+0xfc>
200a5b8a:	401c                	lw	a5,0(s0)
200a5b8c:	048d                	addi	s1,s1,3
200a5b8e:	854a                	mv	a0,s2
200a5b90:	8c9d                	sub	s1,s1,a5
200a5b92:	98f1                	andi	s1,s1,-4
200a5b94:	47b1                	li	a5,12
200a5b96:	04a1                	addi	s1,s1,8
200a5b98:	0af4f4b3          	maxu	s1,s1,a5
200a5b9c:	85a6                	mv	a1,s1
200a5b9e:	3f21                	jal	200a5ab6 <sbrk_aligned>
200a5ba0:	57fd                	li	a5,-1
200a5ba2:	06f50763          	beq	a0,a5,200a5c10 <_malloc_r+0xfc>
200a5ba6:	401c                	lw	a5,0(s0)
200a5ba8:	97a6                	add	a5,a5,s1
200a5baa:	c01c                	sw	a5,0(s0)
200a5bac:	a015                	j	200a5bd0 <_malloc_r+0xbc>
200a5bae:	4014                	lw	a3,0(s0)
200a5bb0:	8e85                	sub	a3,a3,s1
200a5bb2:	0406c963          	bltz	a3,200a5c04 <_malloc_r+0xf0>
200a5bb6:	472d                	li	a4,11
200a5bb8:	02d77e63          	bgeu	a4,a3,200a5bf4 <_malloc_r+0xe0>
200a5bbc:	c004                	sw	s1,0(s0)
200a5bbe:	00940733          	add	a4,s0,s1
200a5bc2:	02879763          	bne	a5,s0,200a5bf0 <_malloc_r+0xdc>
200a5bc6:	00e9a023          	sw	a4,0(s3)
200a5bca:	405c                	lw	a5,4(s0)
200a5bcc:	c314                	sw	a3,0(a4)
200a5bce:	c35c                	sw	a5,4(a4)
200a5bd0:	854a                	mv	a0,s2
200a5bd2:	46e020ef          	jal	ra,200a8040 <__malloc_unlock>
200a5bd6:	00b40513          	addi	a0,s0,11
200a5bda:	00440793          	addi	a5,s0,4
200a5bde:	9961                	andi	a0,a0,-8
200a5be0:	40f50733          	sub	a4,a0,a5
200a5be4:	f4f50ee3          	beq	a0,a5,200a5b40 <_malloc_r+0x2c>
200a5be8:	943a                	add	s0,s0,a4
200a5bea:	8f89                	sub	a5,a5,a0
200a5bec:	c01c                	sw	a5,0(s0)
200a5bee:	bf89                	j	200a5b40 <_malloc_r+0x2c>
200a5bf0:	c3d8                	sw	a4,4(a5)
200a5bf2:	bfe1                	j	200a5bca <_malloc_r+0xb6>
200a5bf4:	4058                	lw	a4,4(s0)
200a5bf6:	00879563          	bne	a5,s0,200a5c00 <_malloc_r+0xec>
200a5bfa:	00e9a023          	sw	a4,0(s3)
200a5bfe:	bfc9                	j	200a5bd0 <_malloc_r+0xbc>
200a5c00:	c3d8                	sw	a4,4(a5)
200a5c02:	b7f9                	j	200a5bd0 <_malloc_r+0xbc>
200a5c04:	87a2                	mv	a5,s0
200a5c06:	4040                	lw	s0,4(s0)
200a5c08:	bfa1                	j	200a5b60 <_malloc_r+0x4c>
200a5c0a:	843e                	mv	s0,a5
200a5c0c:	43dc                	lw	a5,4(a5)
200a5c0e:	b7a5                	j	200a5b76 <_malloc_r+0x62>
200a5c10:	47b1                	li	a5,12
200a5c12:	00f92023          	sw	a5,0(s2)
200a5c16:	854a                	mv	a0,s2
200a5c18:	428020ef          	jal	ra,200a8040 <__malloc_unlock>
200a5c1c:	b70d                	j	200a5b3e <_malloc_r+0x2a>
200a5c1e:	c104                	sw	s1,0(a0)
200a5c20:	bf45                	j	200a5bd0 <_malloc_r+0xbc>

200a5c22 <__cvt>:
200a5c22:	7139                	addi	sp,sp,-64
200a5c24:	dc22                	sw	s0,56(sp)
200a5c26:	d84a                	sw	s2,48(sp)
200a5c28:	d64e                	sw	s3,44(sp)
200a5c2a:	d452                	sw	s4,40(sp)
200a5c2c:	d256                	sw	s5,36(sp)
200a5c2e:	d05a                	sw	s6,32(sp)
200a5c30:	de06                	sw	ra,60(sp)
200a5c32:	da26                	sw	s1,52(sp)
200a5c34:	ce5e                	sw	s7,28(sp)
200a5c36:	89ba                	mv	s3,a4
200a5c38:	8aae                	mv	s5,a1
200a5c3a:	8932                	mv	s2,a2
200a5c3c:	8436                	mv	s0,a3
200a5c3e:	8b42                	mv	s6,a6
200a5c40:	8a46                	mv	s4,a7
200a5c42:	4701                	li	a4,0
200a5c44:	00065663          	bgez	a2,200a5c50 <__cvt+0x2e>
200a5c48:	02d00713          	li	a4,45
200a5c4c:	69f61913          	binvi	s2,a2,0x1f
200a5c50:	a398                	sb	a4,0(a5)
200a5c52:	fdfa7b93          	andi	s7,s4,-33
200a5c56:	04600793          	li	a5,70
200a5c5a:	468d                	li	a3,3
200a5c5c:	00fb8863          	beq	s7,a5,200a5c6c <__cvt+0x4a>
200a5c60:	04500793          	li	a5,69
200a5c64:	4689                	li	a3,2
200a5c66:	00fb9363          	bne	s7,a5,200a5c6c <__cvt+0x4a>
200a5c6a:	0405                	addi	s0,s0,1
200a5c6c:	87da                	mv	a5,s6
200a5c6e:	00c10893          	addi	a7,sp,12
200a5c72:	00810813          	addi	a6,sp,8
200a5c76:	8722                	mv	a4,s0
200a5c78:	85d6                	mv	a1,s5
200a5c7a:	864a                	mv	a2,s2
200a5c7c:	1aa010ef          	jal	ra,200a6e26 <_dtoa_r>
200a5c80:	06700793          	li	a5,103
200a5c84:	84aa                	mv	s1,a0
200a5c86:	04fa1563          	bne	s4,a5,200a5cd0 <__cvt+0xae>
200a5c8a:	0019f993          	andi	s3,s3,1
200a5c8e:	02098163          	beqz	s3,200a5cb0 <__cvt+0x8e>
200a5c92:	008489b3          	add	s3,s1,s0
200a5c96:	4601                	li	a2,0
200a5c98:	4681                	li	a3,0
200a5c9a:	8556                	mv	a0,s5
200a5c9c:	85ca                	mv	a1,s2
200a5c9e:	c39fe0ef          	jal	ra,200a48d6 <__eqdf2>
200a5ca2:	e111                	bnez	a0,200a5ca6 <__cvt+0x84>
200a5ca4:	c64e                	sw	s3,12(sp)
200a5ca6:	03000713          	li	a4,48
200a5caa:	47b2                	lw	a5,12(sp)
200a5cac:	0737e063          	bltu	a5,s3,200a5d0c <__cvt+0xea>
200a5cb0:	47b2                	lw	a5,12(sp)
200a5cb2:	4706                	lw	a4,64(sp)
200a5cb4:	50f2                	lw	ra,60(sp)
200a5cb6:	5462                	lw	s0,56(sp)
200a5cb8:	8f85                	sub	a5,a5,s1
200a5cba:	c31c                	sw	a5,0(a4)
200a5cbc:	5942                	lw	s2,48(sp)
200a5cbe:	59b2                	lw	s3,44(sp)
200a5cc0:	5a22                	lw	s4,40(sp)
200a5cc2:	5a92                	lw	s5,36(sp)
200a5cc4:	5b02                	lw	s6,32(sp)
200a5cc6:	4bf2                	lw	s7,28(sp)
200a5cc8:	8526                	mv	a0,s1
200a5cca:	54d2                	lw	s1,52(sp)
200a5ccc:	6121                	addi	sp,sp,64
200a5cce:	8082                	ret
200a5cd0:	04700793          	li	a5,71
200a5cd4:	fafa0be3          	beq	s4,a5,200a5c8a <__cvt+0x68>
200a5cd8:	04600793          	li	a5,70
200a5cdc:	008509b3          	add	s3,a0,s0
200a5ce0:	fafb9be3          	bne	s7,a5,200a5c96 <__cvt+0x74>
200a5ce4:	2118                	lbu	a4,0(a0)
200a5ce6:	03000793          	li	a5,48
200a5cea:	00f71d63          	bne	a4,a5,200a5d04 <__cvt+0xe2>
200a5cee:	4601                	li	a2,0
200a5cf0:	4681                	li	a3,0
200a5cf2:	8556                	mv	a0,s5
200a5cf4:	85ca                	mv	a1,s2
200a5cf6:	be1fe0ef          	jal	ra,200a48d6 <__eqdf2>
200a5cfa:	c509                	beqz	a0,200a5d04 <__cvt+0xe2>
200a5cfc:	4785                	li	a5,1
200a5cfe:	8f81                	sub	a5,a5,s0
200a5d00:	00fb2023          	sw	a5,0(s6)
200a5d04:	000b2783          	lw	a5,0(s6)
200a5d08:	99be                	add	s3,s3,a5
200a5d0a:	b771                	j	200a5c96 <__cvt+0x74>
200a5d0c:	00178693          	addi	a3,a5,1
200a5d10:	c636                	sw	a3,12(sp)
200a5d12:	a398                	sb	a4,0(a5)
200a5d14:	bf59                	j	200a5caa <__cvt+0x88>

200a5d16 <__exponent>:
200a5d16:	a110                	sb	a2,0(a0)
200a5d18:	02b00793          	li	a5,43
200a5d1c:	0005d663          	bgez	a1,200a5d28 <__exponent+0x12>
200a5d20:	40b005b3          	neg	a1,a1
200a5d24:	02d00793          	li	a5,45
200a5d28:	b11c                	sb	a5,1(a0)
200a5d2a:	47a5                	li	a5,9
200a5d2c:	06b7d363          	bge	a5,a1,200a5d92 <__exponent+0x7c>
200a5d30:	1141                	addi	sp,sp,-16
200a5d32:	00f10713          	addi	a4,sp,15
200a5d36:	883a                	mv	a6,a4
200a5d38:	4629                	li	a2,10
200a5d3a:	06300893          	li	a7,99
200a5d3e:	02c5e7b3          	rem	a5,a1,a2
200a5d42:	86ba                	mv	a3,a4
200a5d44:	177d                	addi	a4,a4,-1
200a5d46:	03078793          	addi	a5,a5,48
200a5d4a:	fef68fa3          	sb	a5,-1(a3)
200a5d4e:	87ae                	mv	a5,a1
200a5d50:	02c5c5b3          	div	a1,a1,a2
200a5d54:	fef8c5e3          	blt	a7,a5,200a5d3e <__exponent+0x28>
200a5d58:	00250793          	addi	a5,a0,2
200a5d5c:	ffe68893          	addi	a7,a3,-2
200a5d60:	03058593          	addi	a1,a1,48
200a5d64:	feb70fa3          	sb	a1,-1(a4)
200a5d68:	863e                	mv	a2,a5
200a5d6a:	8746                	mv	a4,a7
200a5d6c:	01076d63          	bltu	a4,a6,200a5d86 <__exponent+0x70>
200a5d70:	4701                	li	a4,0
200a5d72:	01186563          	bltu	a6,a7,200a5d7c <__exponent+0x66>
200a5d76:	01110713          	addi	a4,sp,17
200a5d7a:	8f15                	sub	a4,a4,a3
200a5d7c:	97ba                	add	a5,a5,a4
200a5d7e:	40a78533          	sub	a0,a5,a0
200a5d82:	0141                	addi	sp,sp,16
200a5d84:	8082                	ret
200a5d86:	230c                	lbu	a1,0(a4)
200a5d88:	0705                	addi	a4,a4,1
200a5d8a:	0605                	addi	a2,a2,1
200a5d8c:	feb60fa3          	sb	a1,-1(a2)
200a5d90:	bff1                	j	200a5d6c <__exponent+0x56>
200a5d92:	03000793          	li	a5,48
200a5d96:	a13c                	sb	a5,2(a0)
200a5d98:	03058593          	addi	a1,a1,48
200a5d9c:	00450793          	addi	a5,a0,4
200a5da0:	b12c                	sb	a1,3(a0)
200a5da2:	40a78533          	sub	a0,a5,a0
200a5da6:	8082                	ret

200a5da8 <_printf_float>:
200a5da8:	7119                	addi	sp,sp,-128
200a5daa:	de86                	sw	ra,124(sp)
200a5dac:	dca2                	sw	s0,120(sp)
200a5dae:	d8ca                	sw	s2,112(sp)
200a5db0:	842e                	mv	s0,a1
200a5db2:	893a                	mv	s2,a4
200a5db4:	d4d2                	sw	s4,104(sp)
200a5db6:	d2d6                	sw	s5,100(sp)
200a5db8:	d0da                	sw	s6,96(sp)
200a5dba:	cede                	sw	s7,92(sp)
200a5dbc:	cce2                	sw	s8,88(sp)
200a5dbe:	cae6                	sw	s9,84(sp)
200a5dc0:	8a32                	mv	s4,a2
200a5dc2:	8ab6                	mv	s5,a3
200a5dc4:	daa6                	sw	s1,116(sp)
200a5dc6:	d6ce                	sw	s3,108(sp)
200a5dc8:	c8ea                	sw	s10,80(sp)
200a5dca:	c6ee                	sw	s11,76(sp)
200a5dcc:	ce2a                	sw	a0,28(sp)
200a5dce:	11a020ef          	jal	ra,200a7ee8 <_localeconv_r>
200a5dd2:	00052c83          	lw	s9,0(a0)
200a5dd6:	8566                	mv	a0,s9
200a5dd8:	55d000ef          	jal	ra,200a6b34 <strlen>
200a5ddc:	00042b83          	lw	s7,0(s0)
200a5de0:	dc02                	sw	zero,56(sp)
200a5de2:	01844b03          	lbu	s6,24(s0)
200a5de6:	100bf713          	andi	a4,s7,256
200a5dea:	00092783          	lw	a5,0(s2)
200a5dee:	8c2a                	mv	s8,a0
200a5df0:	cb61                	beqz	a4,200a5ec0 <_printf_float+0x118>
200a5df2:	00478713          	addi	a4,a5,4
200a5df6:	00e92023          	sw	a4,0(s2)
200a5dfa:	439c                	lw	a5,0(a5)
200a5dfc:	1008                	addi	a0,sp,32
200a5dfe:	4398                	lw	a4,0(a5)
200a5e00:	d03a                	sw	a4,32(sp)
200a5e02:	43d8                	lw	a4,4(a5)
200a5e04:	d23a                	sw	a4,36(sp)
200a5e06:	4798                	lw	a4,8(a5)
200a5e08:	d43a                	sw	a4,40(sp)
200a5e0a:	47dc                	lw	a5,12(a5)
200a5e0c:	d63e                	sw	a5,44(sp)
200a5e0e:	483020ef          	jal	ra,200a8a90 <__trunctfdf2>
200a5e12:	8daa                	mv	s11,a0
200a5e14:	8d2e                	mv	s10,a1
200a5e16:	0001c797          	auipc	a5,0x1c
200a5e1a:	e1a78793          	addi	a5,a5,-486 # 200c1c30 <_impure_ptr+0x10>
200a5e1e:	0007a903          	lw	s2,0(a5)
200a5e22:	0047a983          	lw	s3,4(a5)
200a5e26:	49fd1493          	bclri	s1,s10,0x1f
200a5e2a:	05b42423          	sw	s11,72(s0)
200a5e2e:	05a42623          	sw	s10,76(s0)
200a5e32:	864a                	mv	a2,s2
200a5e34:	86ce                	mv	a3,s3
200a5e36:	856e                	mv	a0,s11
200a5e38:	85a6                	mv	a1,s1
200a5e3a:	8a9ff0ef          	jal	ra,200a56e2 <__unorddf2>
200a5e3e:	ed41                	bnez	a0,200a5ed6 <_printf_float+0x12e>
200a5e40:	864a                	mv	a2,s2
200a5e42:	86ce                	mv	a3,s3
200a5e44:	856e                	mv	a0,s11
200a5e46:	85a6                	mv	a1,s1
200a5e48:	bb9fe0ef          	jal	ra,200a4a00 <__ledf2>
200a5e4c:	08a05563          	blez	a0,200a5ed6 <_printf_float+0x12e>
200a5e50:	4601                	li	a2,0
200a5e52:	4681                	li	a3,0
200a5e54:	856e                	mv	a0,s11
200a5e56:	85ea                	mv	a1,s10
200a5e58:	ba9fe0ef          	jal	ra,200a4a00 <__ledf2>
200a5e5c:	00055663          	bgez	a0,200a5e68 <_printf_float+0xc0>
200a5e60:	02d00793          	li	a5,45
200a5e64:	04f401a3          	sb	a5,67(s0)
200a5e68:	04700793          	li	a5,71
200a5e6c:	00004917          	auipc	s2,0x4
200a5e70:	dd890913          	addi	s2,s2,-552 # 200a9c44 <__clz_tab+0x140>
200a5e74:	0167f663          	bgeu	a5,s6,200a5e80 <_printf_float+0xd8>
200a5e78:	00004917          	auipc	s2,0x4
200a5e7c:	dd090913          	addi	s2,s2,-560 # 200a9c48 <__clz_tab+0x144>
200a5e80:	478d                	li	a5,3
200a5e82:	ffbbfb93          	andi	s7,s7,-5
200a5e86:	c81c                	sw	a5,16(s0)
200a5e88:	01742023          	sw	s7,0(s0)
200a5e8c:	4981                	li	s3,0
200a5e8e:	4572                	lw	a0,28(sp)
200a5e90:	8756                	mv	a4,s5
200a5e92:	86d2                	mv	a3,s4
200a5e94:	1870                	addi	a2,sp,60
200a5e96:	85a2                	mv	a1,s0
200a5e98:	2ee1                	jal	200a6270 <_printf_common>
200a5e9a:	5bfd                	li	s7,-1
200a5e9c:	19751263          	bne	a0,s7,200a6020 <_printf_float+0x278>
200a5ea0:	557d                	li	a0,-1
200a5ea2:	50f6                	lw	ra,124(sp)
200a5ea4:	5466                	lw	s0,120(sp)
200a5ea6:	54d6                	lw	s1,116(sp)
200a5ea8:	5946                	lw	s2,112(sp)
200a5eaa:	59b6                	lw	s3,108(sp)
200a5eac:	5a26                	lw	s4,104(sp)
200a5eae:	5a96                	lw	s5,100(sp)
200a5eb0:	5b06                	lw	s6,96(sp)
200a5eb2:	4bf6                	lw	s7,92(sp)
200a5eb4:	4c66                	lw	s8,88(sp)
200a5eb6:	4cd6                	lw	s9,84(sp)
200a5eb8:	4d46                	lw	s10,80(sp)
200a5eba:	4db6                	lw	s11,76(sp)
200a5ebc:	6109                	addi	sp,sp,128
200a5ebe:	8082                	ret
200a5ec0:	079d                	addi	a5,a5,7
200a5ec2:	9be1                	andi	a5,a5,-8
200a5ec4:	00878713          	addi	a4,a5,8
200a5ec8:	0007ad83          	lw	s11,0(a5)
200a5ecc:	0047ad03          	lw	s10,4(a5)
200a5ed0:	00e92023          	sw	a4,0(s2)
200a5ed4:	b789                	j	200a5e16 <_printf_float+0x6e>
200a5ed6:	866e                	mv	a2,s11
200a5ed8:	86ea                	mv	a3,s10
200a5eda:	856e                	mv	a0,s11
200a5edc:	85ea                	mv	a1,s10
200a5ede:	805ff0ef          	jal	ra,200a56e2 <__unorddf2>
200a5ee2:	c505                	beqz	a0,200a5f0a <_printf_float+0x162>
200a5ee4:	000d5663          	bgez	s10,200a5ef0 <_printf_float+0x148>
200a5ee8:	02d00793          	li	a5,45
200a5eec:	04f401a3          	sb	a5,67(s0)
200a5ef0:	04700793          	li	a5,71
200a5ef4:	00004917          	auipc	s2,0x4
200a5ef8:	d5890913          	addi	s2,s2,-680 # 200a9c4c <__clz_tab+0x148>
200a5efc:	f967f2e3          	bgeu	a5,s6,200a5e80 <_printf_float+0xd8>
200a5f00:	00004917          	auipc	s2,0x4
200a5f04:	d5090913          	addi	s2,s2,-688 # 200a9c50 <__clz_tab+0x14c>
200a5f08:	bfa5                	j	200a5e80 <_printf_float+0xd8>
200a5f0a:	4058                	lw	a4,4(s0)
200a5f0c:	57fd                	li	a5,-1
200a5f0e:	04f71b63          	bne	a4,a5,200a5f64 <_printf_float+0x1bc>
200a5f12:	4799                	li	a5,6
200a5f14:	c05c                	sw	a5,4(s0)
200a5f16:	400be713          	ori	a4,s7,1024
200a5f1a:	c018                	sw	a4,0(s0)
200a5f1c:	183c                	addi	a5,sp,56
200a5f1e:	c03e                	sw	a5,0(sp)
200a5f20:	c202                	sw	zero,4(sp)
200a5f22:	4054                	lw	a3,4(s0)
200a5f24:	4572                	lw	a0,28(sp)
200a5f26:	03310793          	addi	a5,sp,51
200a5f2a:	85ee                	mv	a1,s11
200a5f2c:	88da                	mv	a7,s6
200a5f2e:	03410813          	addi	a6,sp,52
200a5f32:	866a                	mv	a2,s10
200a5f34:	cefff0ef          	jal	ra,200a5c22 <__cvt>
200a5f38:	06700793          	li	a5,103
200a5f3c:	55d2                	lw	a1,52(sp)
200a5f3e:	892a                	mv	s2,a0
200a5f40:	02fb1b63          	bne	s6,a5,200a5f76 <_printf_float+0x1ce>
200a5f44:	57f5                	li	a5,-3
200a5f46:	08f5c863          	blt	a1,a5,200a5fd6 <_printf_float+0x22e>
200a5f4a:	405c                	lw	a5,4(s0)
200a5f4c:	08b7c563          	blt	a5,a1,200a5fd6 <_printf_float+0x22e>
200a5f50:	57e2                	lw	a5,56(sp)
200a5f52:	0cf5c063          	blt	a1,a5,200a6012 <_printf_float+0x26a>
200a5f56:	401c                	lw	a5,0(s0)
200a5f58:	c80c                	sw	a1,16(s0)
200a5f5a:	8b85                	andi	a5,a5,1
200a5f5c:	cbc5                	beqz	a5,200a600c <_printf_float+0x264>
200a5f5e:	00158793          	addi	a5,a1,1
200a5f62:	a859                	j	200a5ff8 <_printf_float+0x250>
200a5f64:	0dfb7793          	andi	a5,s6,223
200a5f68:	04700693          	li	a3,71
200a5f6c:	fad795e3          	bne	a5,a3,200a5f16 <_printf_float+0x16e>
200a5f70:	f35d                	bnez	a4,200a5f16 <_printf_float+0x16e>
200a5f72:	4785                	li	a5,1
200a5f74:	b745                	j	200a5f14 <_printf_float+0x16c>
200a5f76:	04700793          	li	a5,71
200a5f7a:	00fb1d63          	bne	s6,a5,200a5f94 <_printf_float+0x1ec>
200a5f7e:	57f5                	li	a5,-3
200a5f80:	00f5c763          	blt	a1,a5,200a5f8e <_printf_float+0x1e6>
200a5f84:	405c                	lw	a5,4(s0)
200a5f86:	06700b13          	li	s6,103
200a5f8a:	fcb7d3e3          	bge	a5,a1,200a5f50 <_printf_float+0x1a8>
200a5f8e:	04500b13          	li	s6,69
200a5f92:	a029                	j	200a5f9c <_printf_float+0x1f4>
200a5f94:	06500793          	li	a5,101
200a5f98:	0567e263          	bltu	a5,s6,200a5fdc <_printf_float+0x234>
200a5f9c:	15fd                	addi	a1,a1,-1
200a5f9e:	865a                	mv	a2,s6
200a5fa0:	05040513          	addi	a0,s0,80
200a5fa4:	da2e                	sw	a1,52(sp)
200a5fa6:	d71ff0ef          	jal	ra,200a5d16 <__exponent>
200a5faa:	5762                	lw	a4,56(sp)
200a5fac:	4685                	li	a3,1
200a5fae:	89aa                	mv	s3,a0
200a5fb0:	00a707b3          	add	a5,a4,a0
200a5fb4:	c81c                	sw	a5,16(s0)
200a5fb6:	00e6c563          	blt	a3,a4,200a5fc0 <_printf_float+0x218>
200a5fba:	4018                	lw	a4,0(s0)
200a5fbc:	8b05                	andi	a4,a4,1
200a5fbe:	c319                	beqz	a4,200a5fc4 <_printf_float+0x21c>
200a5fc0:	0785                	addi	a5,a5,1
200a5fc2:	c81c                	sw	a5,16(s0)
200a5fc4:	03314783          	lbu	a5,51(sp)
200a5fc8:	ec0783e3          	beqz	a5,200a5e8e <_printf_float+0xe6>
200a5fcc:	02d00793          	li	a5,45
200a5fd0:	04f401a3          	sb	a5,67(s0)
200a5fd4:	bd6d                	j	200a5e8e <_printf_float+0xe6>
200a5fd6:	06500b13          	li	s6,101
200a5fda:	b7c9                	j	200a5f9c <_printf_float+0x1f4>
200a5fdc:	06600793          	li	a5,102
200a5fe0:	f6fb18e3          	bne	s6,a5,200a5f50 <_printf_float+0x1a8>
200a5fe4:	405c                	lw	a5,4(s0)
200a5fe6:	00b05b63          	blez	a1,200a5ffc <_printf_float+0x254>
200a5fea:	c80c                	sw	a1,16(s0)
200a5fec:	e781                	bnez	a5,200a5ff4 <_printf_float+0x24c>
200a5fee:	4018                	lw	a4,0(s0)
200a5ff0:	8b05                	andi	a4,a4,1
200a5ff2:	cf09                	beqz	a4,200a600c <_printf_float+0x264>
200a5ff4:	0785                	addi	a5,a5,1
200a5ff6:	97ae                	add	a5,a5,a1
200a5ff8:	c81c                	sw	a5,16(s0)
200a5ffa:	a809                	j	200a600c <_printf_float+0x264>
200a5ffc:	e789                	bnez	a5,200a6006 <_printf_float+0x25e>
200a5ffe:	4018                	lw	a4,0(s0)
200a6000:	4685                	li	a3,1
200a6002:	8b05                	andi	a4,a4,1
200a6004:	c319                	beqz	a4,200a600a <_printf_float+0x262>
200a6006:	00278693          	addi	a3,a5,2
200a600a:	c814                	sw	a3,16(s0)
200a600c:	cc2c                	sw	a1,88(s0)
200a600e:	4981                	li	s3,0
200a6010:	bf55                	j	200a5fc4 <_printf_float+0x21c>
200a6012:	4705                	li	a4,1
200a6014:	00b04463          	bgtz	a1,200a601c <_printf_float+0x274>
200a6018:	4709                	li	a4,2
200a601a:	8f0d                	sub	a4,a4,a1
200a601c:	97ba                	add	a5,a5,a4
200a601e:	bfe9                	j	200a5ff8 <_printf_float+0x250>
200a6020:	401c                	lw	a5,0(s0)
200a6022:	4007f713          	andi	a4,a5,1024
200a6026:	e30d                	bnez	a4,200a6048 <_printf_float+0x2a0>
200a6028:	4814                	lw	a3,16(s0)
200a602a:	4572                	lw	a0,28(sp)
200a602c:	864a                	mv	a2,s2
200a602e:	85d2                	mv	a1,s4
200a6030:	9a82                	jalr	s5
200a6032:	e77507e3          	beq	a0,s7,200a5ea0 <_printf_float+0xf8>
200a6036:	401c                	lw	a5,0(s0)
200a6038:	8b89                	andi	a5,a5,2
200a603a:	22079663          	bnez	a5,200a6266 <_printf_float+0x4be>
200a603e:	4448                	lw	a0,12(s0)
200a6040:	57f2                	lw	a5,60(sp)
200a6042:	0af56533          	max	a0,a0,a5
200a6046:	bdb1                	j	200a5ea2 <_printf_float+0xfa>
200a6048:	06500713          	li	a4,101
200a604c:	19677663          	bgeu	a4,s6,200a61d8 <_printf_float+0x430>
200a6050:	4428                	lw	a0,72(s0)
200a6052:	446c                	lw	a1,76(s0)
200a6054:	4601                	li	a2,0
200a6056:	4681                	li	a3,0
200a6058:	87ffe0ef          	jal	ra,200a48d6 <__eqdf2>
200a605c:	e931                	bnez	a0,200a60b0 <_printf_float+0x308>
200a605e:	4572                	lw	a0,28(sp)
200a6060:	4685                	li	a3,1
200a6062:	00004617          	auipc	a2,0x4
200a6066:	bf260613          	addi	a2,a2,-1038 # 200a9c54 <__clz_tab+0x150>
200a606a:	85d2                	mv	a1,s4
200a606c:	9a82                	jalr	s5
200a606e:	e37509e3          	beq	a0,s7,200a5ea0 <_printf_float+0xf8>
200a6072:	5962                	lw	s2,56(sp)
200a6074:	57d2                	lw	a5,52(sp)
200a6076:	0127c563          	blt	a5,s2,200a6080 <_printf_float+0x2d8>
200a607a:	401c                	lw	a5,0(s0)
200a607c:	8b85                	andi	a5,a5,1
200a607e:	dfc5                	beqz	a5,200a6036 <_printf_float+0x28e>
200a6080:	4572                	lw	a0,28(sp)
200a6082:	86e2                	mv	a3,s8
200a6084:	8666                	mv	a2,s9
200a6086:	85d2                	mv	a1,s4
200a6088:	9a82                	jalr	s5
200a608a:	57fd                	li	a5,-1
200a608c:	e0f50ae3          	beq	a0,a5,200a5ea0 <_printf_float+0xf8>
200a6090:	4981                	li	s3,0
200a6092:	197d                	addi	s2,s2,-1
200a6094:	01a40b13          	addi	s6,s0,26
200a6098:	5bfd                	li	s7,-1
200a609a:	f929dee3          	bge	s3,s2,200a6036 <_printf_float+0x28e>
200a609e:	4572                	lw	a0,28(sp)
200a60a0:	4685                	li	a3,1
200a60a2:	865a                	mv	a2,s6
200a60a4:	85d2                	mv	a1,s4
200a60a6:	9a82                	jalr	s5
200a60a8:	df750ce3          	beq	a0,s7,200a5ea0 <_printf_float+0xf8>
200a60ac:	0985                	addi	s3,s3,1
200a60ae:	b7f5                	j	200a609a <_printf_float+0x2f2>
200a60b0:	57d2                	lw	a5,52(sp)
200a60b2:	06f04763          	bgtz	a5,200a6120 <_printf_float+0x378>
200a60b6:	4572                	lw	a0,28(sp)
200a60b8:	4685                	li	a3,1
200a60ba:	00004617          	auipc	a2,0x4
200a60be:	b9a60613          	addi	a2,a2,-1126 # 200a9c54 <__clz_tab+0x150>
200a60c2:	85d2                	mv	a1,s4
200a60c4:	9a82                	jalr	s5
200a60c6:	dd750de3          	beq	a0,s7,200a5ea0 <_printf_float+0xf8>
200a60ca:	5b62                	lw	s6,56(sp)
200a60cc:	57d2                	lw	a5,52(sp)
200a60ce:	00fb67b3          	or	a5,s6,a5
200a60d2:	e781                	bnez	a5,200a60da <_printf_float+0x332>
200a60d4:	401c                	lw	a5,0(s0)
200a60d6:	8b85                	andi	a5,a5,1
200a60d8:	dfb9                	beqz	a5,200a6036 <_printf_float+0x28e>
200a60da:	4572                	lw	a0,28(sp)
200a60dc:	86e2                	mv	a3,s8
200a60de:	8666                	mv	a2,s9
200a60e0:	85d2                	mv	a1,s4
200a60e2:	9a82                	jalr	s5
200a60e4:	57fd                	li	a5,-1
200a60e6:	daf50de3          	beq	a0,a5,200a5ea0 <_printf_float+0xf8>
200a60ea:	4981                	li	s3,0
200a60ec:	01a40b93          	addi	s7,s0,26
200a60f0:	5c7d                	li	s8,-1
200a60f2:	57d2                	lw	a5,52(sp)
200a60f4:	40f007b3          	neg	a5,a5
200a60f8:	00f9cb63          	blt	s3,a5,200a610e <_printf_float+0x366>
200a60fc:	86da                	mv	a3,s6
200a60fe:	864a                	mv	a2,s2
200a6100:	4572                	lw	a0,28(sp)
200a6102:	85d2                	mv	a1,s4
200a6104:	9a82                	jalr	s5
200a6106:	57fd                	li	a5,-1
200a6108:	f2f517e3          	bne	a0,a5,200a6036 <_printf_float+0x28e>
200a610c:	bb51                	j	200a5ea0 <_printf_float+0xf8>
200a610e:	4572                	lw	a0,28(sp)
200a6110:	4685                	li	a3,1
200a6112:	865e                	mv	a2,s7
200a6114:	85d2                	mv	a1,s4
200a6116:	9a82                	jalr	s5
200a6118:	d98504e3          	beq	a0,s8,200a5ea0 <_printf_float+0xf8>
200a611c:	0985                	addi	s3,s3,1
200a611e:	bfd1                	j	200a60f2 <_printf_float+0x34a>
200a6120:	5b62                	lw	s6,56(sp)
200a6122:	05842983          	lw	s3,88(s0)
200a6126:	0b3b49b3          	min	s3,s6,s3
200a612a:	07304363          	bgtz	s3,200a6190 <_printf_float+0x3e8>
200a612e:	4b81                	li	s7,0
200a6130:	01a40d93          	addi	s11,s0,26
200a6134:	54fd                	li	s1,-1
200a6136:	0b79e9b3          	max	s3,s3,s7
200a613a:	05842d03          	lw	s10,88(s0)
200a613e:	413d07b3          	sub	a5,s10,s3
200a6142:	04fbcf63          	blt	s7,a5,200a61a0 <_printf_float+0x3f8>
200a6146:	57d2                	lw	a5,52(sp)
200a6148:	0767c563          	blt	a5,s6,200a61b2 <_printf_float+0x40a>
200a614c:	401c                	lw	a5,0(s0)
200a614e:	8b85                	andi	a5,a5,1
200a6150:	e3ad                	bnez	a5,200a61b2 <_printf_float+0x40a>
200a6152:	59d2                	lw	s3,52(sp)
200a6154:	41ab07b3          	sub	a5,s6,s10
200a6158:	413b09b3          	sub	s3,s6,s3
200a615c:	0af9c9b3          	min	s3,s3,a5
200a6160:	07304263          	bgtz	s3,200a61c4 <_printf_float+0x41c>
200a6164:	4901                	li	s2,0
200a6166:	01a40b93          	addi	s7,s0,26
200a616a:	5c7d                	li	s8,-1
200a616c:	0b29e9b3          	max	s3,s3,s2
200a6170:	57d2                	lw	a5,52(sp)
200a6172:	40fb07b3          	sub	a5,s6,a5
200a6176:	413787b3          	sub	a5,a5,s3
200a617a:	eaf95ee3          	bge	s2,a5,200a6036 <_printf_float+0x28e>
200a617e:	4572                	lw	a0,28(sp)
200a6180:	4685                	li	a3,1
200a6182:	865e                	mv	a2,s7
200a6184:	85d2                	mv	a1,s4
200a6186:	9a82                	jalr	s5
200a6188:	d1850ce3          	beq	a0,s8,200a5ea0 <_printf_float+0xf8>
200a618c:	0905                	addi	s2,s2,1
200a618e:	b7cd                	j	200a6170 <_printf_float+0x3c8>
200a6190:	4572                	lw	a0,28(sp)
200a6192:	86ce                	mv	a3,s3
200a6194:	864a                	mv	a2,s2
200a6196:	85d2                	mv	a1,s4
200a6198:	9a82                	jalr	s5
200a619a:	f9751ae3          	bne	a0,s7,200a612e <_printf_float+0x386>
200a619e:	b309                	j	200a5ea0 <_printf_float+0xf8>
200a61a0:	4572                	lw	a0,28(sp)
200a61a2:	4685                	li	a3,1
200a61a4:	866e                	mv	a2,s11
200a61a6:	85d2                	mv	a1,s4
200a61a8:	9a82                	jalr	s5
200a61aa:	ce950be3          	beq	a0,s1,200a5ea0 <_printf_float+0xf8>
200a61ae:	0b85                	addi	s7,s7,1
200a61b0:	b769                	j	200a613a <_printf_float+0x392>
200a61b2:	4572                	lw	a0,28(sp)
200a61b4:	86e2                	mv	a3,s8
200a61b6:	8666                	mv	a2,s9
200a61b8:	85d2                	mv	a1,s4
200a61ba:	9a82                	jalr	s5
200a61bc:	57fd                	li	a5,-1
200a61be:	f8f51ae3          	bne	a0,a5,200a6152 <_printf_float+0x3aa>
200a61c2:	b9f9                	j	200a5ea0 <_printf_float+0xf8>
200a61c4:	4572                	lw	a0,28(sp)
200a61c6:	86ce                	mv	a3,s3
200a61c8:	01a90633          	add	a2,s2,s10
200a61cc:	85d2                	mv	a1,s4
200a61ce:	9a82                	jalr	s5
200a61d0:	57fd                	li	a5,-1
200a61d2:	f8f519e3          	bne	a0,a5,200a6164 <_printf_float+0x3bc>
200a61d6:	b1e9                	j	200a5ea0 <_printf_float+0xf8>
200a61d8:	5b62                	lw	s6,56(sp)
200a61da:	4705                	li	a4,1
200a61dc:	4685                	li	a3,1
200a61de:	864a                	mv	a2,s2
200a61e0:	01674463          	blt	a4,s6,200a61e8 <_printf_float+0x440>
200a61e4:	8b85                	andi	a5,a5,1
200a61e6:	cb8d                	beqz	a5,200a6218 <_printf_float+0x470>
200a61e8:	4572                	lw	a0,28(sp)
200a61ea:	85d2                	mv	a1,s4
200a61ec:	5bfd                	li	s7,-1
200a61ee:	9a82                	jalr	s5
200a61f0:	cb7508e3          	beq	a0,s7,200a5ea0 <_printf_float+0xf8>
200a61f4:	4572                	lw	a0,28(sp)
200a61f6:	86e2                	mv	a3,s8
200a61f8:	8666                	mv	a2,s9
200a61fa:	85d2                	mv	a1,s4
200a61fc:	9a82                	jalr	s5
200a61fe:	cb7501e3          	beq	a0,s7,200a5ea0 <_printf_float+0xf8>
200a6202:	4428                	lw	a0,72(s0)
200a6204:	446c                	lw	a1,76(s0)
200a6206:	4601                	li	a2,0
200a6208:	4681                	li	a3,0
200a620a:	1b7d                	addi	s6,s6,-1
200a620c:	ecafe0ef          	jal	ra,200a48d6 <__eqdf2>
200a6210:	c905                	beqz	a0,200a6240 <_printf_float+0x498>
200a6212:	86da                	mv	a3,s6
200a6214:	00190613          	addi	a2,s2,1
200a6218:	4572                	lw	a0,28(sp)
200a621a:	85d2                	mv	a1,s4
200a621c:	9a82                	jalr	s5
200a621e:	01751d63          	bne	a0,s7,200a6238 <_printf_float+0x490>
200a6222:	b9bd                	j	200a5ea0 <_printf_float+0xf8>
200a6224:	4572                	lw	a0,28(sp)
200a6226:	4685                	li	a3,1
200a6228:	865e                	mv	a2,s7
200a622a:	85d2                	mv	a1,s4
200a622c:	9a82                	jalr	s5
200a622e:	c78509e3          	beq	a0,s8,200a5ea0 <_printf_float+0xf8>
200a6232:	0905                	addi	s2,s2,1
200a6234:	ff6948e3          	blt	s2,s6,200a6224 <_printf_float+0x47c>
200a6238:	86ce                	mv	a3,s3
200a623a:	05040613          	addi	a2,s0,80
200a623e:	b5c9                	j	200a6100 <_printf_float+0x358>
200a6240:	4901                	li	s2,0
200a6242:	01a40b93          	addi	s7,s0,26
200a6246:	5c7d                	li	s8,-1
200a6248:	b7f5                	j	200a6234 <_printf_float+0x48c>
200a624a:	4572                	lw	a0,28(sp)
200a624c:	4685                	li	a3,1
200a624e:	864e                	mv	a2,s3
200a6250:	85d2                	mv	a1,s4
200a6252:	9a82                	jalr	s5
200a6254:	c56506e3          	beq	a0,s6,200a5ea0 <_printf_float+0xf8>
200a6258:	0905                	addi	s2,s2,1
200a625a:	445c                	lw	a5,12(s0)
200a625c:	5772                	lw	a4,60(sp)
200a625e:	8f99                	sub	a5,a5,a4
200a6260:	fef945e3          	blt	s2,a5,200a624a <_printf_float+0x4a2>
200a6264:	bbe9                	j	200a603e <_printf_float+0x296>
200a6266:	4901                	li	s2,0
200a6268:	01940993          	addi	s3,s0,25
200a626c:	5b7d                	li	s6,-1
200a626e:	b7f5                	j	200a625a <_printf_float+0x4b2>

200a6270 <_printf_common>:
200a6270:	7179                	addi	sp,sp,-48
200a6272:	ca56                	sw	s5,20(sp)
200a6274:	499c                	lw	a5,16(a1)
200a6276:	8aba                	mv	s5,a4
200a6278:	4598                	lw	a4,8(a1)
200a627a:	d422                	sw	s0,40(sp)
200a627c:	d04a                	sw	s2,32(sp)
200a627e:	ce4e                	sw	s3,28(sp)
200a6280:	cc52                	sw	s4,24(sp)
200a6282:	d606                	sw	ra,44(sp)
200a6284:	d226                	sw	s1,36(sp)
200a6286:	c85a                	sw	s6,16(sp)
200a6288:	c65e                	sw	s7,12(sp)
200a628a:	0ae7e7b3          	max	a5,a5,a4
200a628e:	c21c                	sw	a5,0(a2)
200a6290:	0435c703          	lbu	a4,67(a1)
200a6294:	89aa                	mv	s3,a0
200a6296:	842e                	mv	s0,a1
200a6298:	8932                	mv	s2,a2
200a629a:	8a36                	mv	s4,a3
200a629c:	c319                	beqz	a4,200a62a2 <_printf_common+0x32>
200a629e:	0785                	addi	a5,a5,1
200a62a0:	c21c                	sw	a5,0(a2)
200a62a2:	401c                	lw	a5,0(s0)
200a62a4:	0207f793          	andi	a5,a5,32
200a62a8:	c791                	beqz	a5,200a62b4 <_printf_common+0x44>
200a62aa:	00092783          	lw	a5,0(s2)
200a62ae:	0789                	addi	a5,a5,2
200a62b0:	00f92023          	sw	a5,0(s2)
200a62b4:	4004                	lw	s1,0(s0)
200a62b6:	8899                	andi	s1,s1,6
200a62b8:	e891                	bnez	s1,200a62cc <_printf_common+0x5c>
200a62ba:	01940b13          	addi	s6,s0,25
200a62be:	5bfd                	li	s7,-1
200a62c0:	445c                	lw	a5,12(s0)
200a62c2:	00092703          	lw	a4,0(s2)
200a62c6:	8f99                	sub	a5,a5,a4
200a62c8:	04f4cc63          	blt	s1,a5,200a6320 <_printf_common+0xb0>
200a62cc:	04344783          	lbu	a5,67(s0)
200a62d0:	00f036b3          	snez	a3,a5
200a62d4:	401c                	lw	a5,0(s0)
200a62d6:	0207f793          	andi	a5,a5,32
200a62da:	eba5                	bnez	a5,200a634a <_printf_common+0xda>
200a62dc:	04340613          	addi	a2,s0,67
200a62e0:	85d2                	mv	a1,s4
200a62e2:	854e                	mv	a0,s3
200a62e4:	9a82                	jalr	s5
200a62e6:	57fd                	li	a5,-1
200a62e8:	04f50363          	beq	a0,a5,200a632e <_printf_common+0xbe>
200a62ec:	401c                	lw	a5,0(s0)
200a62ee:	4711                	li	a4,4
200a62f0:	4481                	li	s1,0
200a62f2:	8b99                	andi	a5,a5,6
200a62f4:	00e79963          	bne	a5,a4,200a6306 <_printf_common+0x96>
200a62f8:	00092783          	lw	a5,0(s2)
200a62fc:	4444                	lw	s1,12(s0)
200a62fe:	8c9d                	sub	s1,s1,a5
200a6300:	4781                	li	a5,0
200a6302:	0af4e4b3          	max	s1,s1,a5
200a6306:	441c                	lw	a5,8(s0)
200a6308:	4818                	lw	a4,16(s0)
200a630a:	00f75463          	bge	a4,a5,200a6312 <_printf_common+0xa2>
200a630e:	8f99                	sub	a5,a5,a4
200a6310:	94be                	add	s1,s1,a5
200a6312:	4901                	li	s2,0
200a6314:	0469                	addi	s0,s0,26
200a6316:	5b7d                	li	s6,-1
200a6318:	05249863          	bne	s1,s2,200a6368 <_printf_common+0xf8>
200a631c:	4501                	li	a0,0
200a631e:	a809                	j	200a6330 <_printf_common+0xc0>
200a6320:	4685                	li	a3,1
200a6322:	865a                	mv	a2,s6
200a6324:	85d2                	mv	a1,s4
200a6326:	854e                	mv	a0,s3
200a6328:	9a82                	jalr	s5
200a632a:	01751e63          	bne	a0,s7,200a6346 <_printf_common+0xd6>
200a632e:	557d                	li	a0,-1
200a6330:	50b2                	lw	ra,44(sp)
200a6332:	5422                	lw	s0,40(sp)
200a6334:	5492                	lw	s1,36(sp)
200a6336:	5902                	lw	s2,32(sp)
200a6338:	49f2                	lw	s3,28(sp)
200a633a:	4a62                	lw	s4,24(sp)
200a633c:	4ad2                	lw	s5,20(sp)
200a633e:	4b42                	lw	s6,16(sp)
200a6340:	4bb2                	lw	s7,12(sp)
200a6342:	6145                	addi	sp,sp,48
200a6344:	8082                	ret
200a6346:	0485                	addi	s1,s1,1
200a6348:	bfa5                	j	200a62c0 <_printf_common+0x50>
200a634a:	00d40733          	add	a4,s0,a3
200a634e:	03000613          	li	a2,48
200a6352:	04c701a3          	sb	a2,67(a4)
200a6356:	04544703          	lbu	a4,69(s0)
200a635a:	00168793          	addi	a5,a3,1
200a635e:	97a2                	add	a5,a5,s0
200a6360:	0689                	addi	a3,a3,2
200a6362:	04e781a3          	sb	a4,67(a5)
200a6366:	bf9d                	j	200a62dc <_printf_common+0x6c>
200a6368:	4685                	li	a3,1
200a636a:	8622                	mv	a2,s0
200a636c:	85d2                	mv	a1,s4
200a636e:	854e                	mv	a0,s3
200a6370:	9a82                	jalr	s5
200a6372:	fb650ee3          	beq	a0,s6,200a632e <_printf_common+0xbe>
200a6376:	0905                	addi	s2,s2,1
200a6378:	b745                	j	200a6318 <_printf_common+0xa8>

200a637a <_printf_i>:
200a637a:	7179                	addi	sp,sp,-48
200a637c:	d422                	sw	s0,40(sp)
200a637e:	d04a                	sw	s2,32(sp)
200a6380:	ce4e                	sw	s3,28(sp)
200a6382:	cc52                	sw	s4,24(sp)
200a6384:	d606                	sw	ra,44(sp)
200a6386:	d226                	sw	s1,36(sp)
200a6388:	ca56                	sw	s5,20(sp)
200a638a:	c85a                	sw	s6,16(sp)
200a638c:	0185c803          	lbu	a6,24(a1)
200a6390:	07800793          	li	a5,120
200a6394:	892a                	mv	s2,a0
200a6396:	842e                	mv	s0,a1
200a6398:	89b2                	mv	s3,a2
200a639a:	8a36                	mv	s4,a3
200a639c:	0307e263          	bltu	a5,a6,200a63c0 <_printf_i+0x46>
200a63a0:	06200793          	li	a5,98
200a63a4:	04358693          	addi	a3,a1,67
200a63a8:	0307e163          	bltu	a5,a6,200a63ca <_printf_i+0x50>
200a63ac:	1c080c63          	beqz	a6,200a6584 <_printf_i+0x20a>
200a63b0:	05800793          	li	a5,88
200a63b4:	00004617          	auipc	a2,0x4
200a63b8:	8a460613          	addi	a2,a2,-1884 # 200a9c58 <__clz_tab+0x154>
200a63bc:	14f80863          	beq	a6,a5,200a650c <_printf_i+0x192>
200a63c0:	04240493          	addi	s1,s0,66
200a63c4:	05040123          	sb	a6,66(s0)
200a63c8:	a815                	j	200a63fc <_printf_i+0x82>
200a63ca:	f9d80793          	addi	a5,a6,-99
200a63ce:	0ff7f793          	zext.b	a5,a5
200a63d2:	4655                	li	a2,21
200a63d4:	fef666e3          	bltu	a2,a5,200a63c0 <_printf_i+0x46>
200a63d8:	00004617          	auipc	a2,0x4
200a63dc:	8a860613          	addi	a2,a2,-1880 # 200a9c80 <__clz_tab+0x17c>
200a63e0:	20c7c7b3          	sh2add	a5,a5,a2
200a63e4:	439c                	lw	a5,0(a5)
200a63e6:	97b2                	add	a5,a5,a2
200a63e8:	8782                	jr	a5
200a63ea:	431c                	lw	a5,0(a4)
200a63ec:	04258493          	addi	s1,a1,66
200a63f0:	00478693          	addi	a3,a5,4
200a63f4:	439c                	lw	a5,0(a5)
200a63f6:	c314                	sw	a3,0(a4)
200a63f8:	04f58123          	sb	a5,66(a1)
200a63fc:	4785                	li	a5,1
200a63fe:	a275                	j	200a65aa <_printf_i+0x230>
200a6400:	4190                	lw	a2,0(a1)
200a6402:	431c                	lw	a5,0(a4)
200a6404:	08067513          	andi	a0,a2,128
200a6408:	00478593          	addi	a1,a5,4
200a640c:	c129                	beqz	a0,200a644e <_printf_i+0xd4>
200a640e:	439c                	lw	a5,0(a5)
200a6410:	c30c                	sw	a1,0(a4)
200a6412:	4058                	lw	a4,4(s0)
200a6414:	1207df63          	bgez	a5,200a6552 <_printf_i+0x1d8>
200a6418:	02d00593          	li	a1,45
200a641c:	04b401a3          	sb	a1,67(s0)
200a6420:	c418                	sw	a4,8(s0)
200a6422:	02075e63          	bgez	a4,200a645e <_printf_i+0xe4>
200a6426:	40f007b3          	neg	a5,a5
200a642a:	00004617          	auipc	a2,0x4
200a642e:	82e60613          	addi	a2,a2,-2002 # 200a9c58 <__clz_tab+0x154>
200a6432:	4829                	li	a6,10
200a6434:	84b6                	mv	s1,a3
200a6436:	0307f733          	remu	a4,a5,a6
200a643a:	14fd                	addi	s1,s1,-1
200a643c:	9732                	add	a4,a4,a2
200a643e:	2318                	lbu	a4,0(a4)
200a6440:	a098                	sb	a4,0(s1)
200a6442:	873e                	mv	a4,a5
200a6444:	0307d7b3          	divu	a5,a5,a6
200a6448:	ff0777e3          	bgeu	a4,a6,200a6436 <_printf_i+0xbc>
200a644c:	a085                	j	200a64ac <_printf_i+0x132>
200a644e:	439c                	lw	a5,0(a5)
200a6450:	04067513          	andi	a0,a2,64
200a6454:	c30c                	sw	a1,0(a4)
200a6456:	dd55                	beqz	a0,200a6412 <_printf_i+0x98>
200a6458:	60579793          	sext.h	a5,a5
200a645c:	bf5d                	j	200a6412 <_printf_i+0x98>
200a645e:	9a6d                	andi	a2,a2,-5
200a6460:	c010                	sw	a2,0(s0)
200a6462:	b7d1                	j	200a6426 <_printf_i+0xac>
200a6464:	4190                	lw	a2,0(a1)
200a6466:	431c                	lw	a5,0(a4)
200a6468:	08067513          	andi	a0,a2,128
200a646c:	00478593          	addi	a1,a5,4
200a6470:	c501                	beqz	a0,200a6478 <_printf_i+0xfe>
200a6472:	c30c                	sw	a1,0(a4)
200a6474:	439c                	lw	a5,0(a5)
200a6476:	a031                	j	200a6482 <_printf_i+0x108>
200a6478:	04067613          	andi	a2,a2,64
200a647c:	c30c                	sw	a1,0(a4)
200a647e:	da7d                	beqz	a2,200a6474 <_printf_i+0xfa>
200a6480:	239e                	lhu	a5,0(a5)
200a6482:	06f00713          	li	a4,111
200a6486:	00003617          	auipc	a2,0x3
200a648a:	7d260613          	addi	a2,a2,2002 # 200a9c58 <__clz_tab+0x154>
200a648e:	0ce81063          	bne	a6,a4,200a654e <_printf_i+0x1d4>
200a6492:	4821                	li	a6,8
200a6494:	040401a3          	sb	zero,67(s0)
200a6498:	4058                	lw	a4,4(s0)
200a649a:	c418                	sw	a4,8(s0)
200a649c:	f8074ce3          	bltz	a4,200a6434 <_printf_i+0xba>
200a64a0:	400c                	lw	a1,0(s0)
200a64a2:	99ed                	andi	a1,a1,-5
200a64a4:	c00c                	sw	a1,0(s0)
200a64a6:	f7d9                	bnez	a5,200a6434 <_printf_i+0xba>
200a64a8:	84b6                	mv	s1,a3
200a64aa:	f749                	bnez	a4,200a6434 <_printf_i+0xba>
200a64ac:	47a1                	li	a5,8
200a64ae:	00f81e63          	bne	a6,a5,200a64ca <_printf_i+0x150>
200a64b2:	401c                	lw	a5,0(s0)
200a64b4:	8b85                	andi	a5,a5,1
200a64b6:	cb91                	beqz	a5,200a64ca <_printf_i+0x150>
200a64b8:	4058                	lw	a4,4(s0)
200a64ba:	481c                	lw	a5,16(s0)
200a64bc:	00e7c763          	blt	a5,a4,200a64ca <_printf_i+0x150>
200a64c0:	03000793          	li	a5,48
200a64c4:	fef48fa3          	sb	a5,-1(s1)
200a64c8:	14fd                	addi	s1,s1,-1
200a64ca:	8e85                	sub	a3,a3,s1
200a64cc:	c814                	sw	a3,16(s0)
200a64ce:	8752                	mv	a4,s4
200a64d0:	86ce                	mv	a3,s3
200a64d2:	0070                	addi	a2,sp,12
200a64d4:	85a2                	mv	a1,s0
200a64d6:	854a                	mv	a0,s2
200a64d8:	d99ff0ef          	jal	ra,200a6270 <_printf_common>
200a64dc:	5afd                	li	s5,-1
200a64de:	0d551a63          	bne	a0,s5,200a65b2 <_printf_i+0x238>
200a64e2:	557d                	li	a0,-1
200a64e4:	50b2                	lw	ra,44(sp)
200a64e6:	5422                	lw	s0,40(sp)
200a64e8:	5492                	lw	s1,36(sp)
200a64ea:	5902                	lw	s2,32(sp)
200a64ec:	49f2                	lw	s3,28(sp)
200a64ee:	4a62                	lw	s4,24(sp)
200a64f0:	4ad2                	lw	s5,20(sp)
200a64f2:	4b42                	lw	s6,16(sp)
200a64f4:	6145                	addi	sp,sp,48
200a64f6:	8082                	ret
200a64f8:	419c                	lw	a5,0(a1)
200a64fa:	0207e793          	ori	a5,a5,32
200a64fe:	c19c                	sw	a5,0(a1)
200a6500:	07800813          	li	a6,120
200a6504:	00003617          	auipc	a2,0x3
200a6508:	76860613          	addi	a2,a2,1896 # 200a9c6c <__clz_tab+0x168>
200a650c:	050402a3          	sb	a6,69(s0)
200a6510:	400c                	lw	a1,0(s0)
200a6512:	431c                	lw	a5,0(a4)
200a6514:	0805f813          	andi	a6,a1,128
200a6518:	00478513          	addi	a0,a5,4
200a651c:	00080563          	beqz	a6,200a6526 <_printf_i+0x1ac>
200a6520:	c308                	sw	a0,0(a4)
200a6522:	439c                	lw	a5,0(a5)
200a6524:	a039                	j	200a6532 <_printf_i+0x1b8>
200a6526:	0405f813          	andi	a6,a1,64
200a652a:	c308                	sw	a0,0(a4)
200a652c:	fe080be3          	beqz	a6,200a6522 <_printf_i+0x1a8>
200a6530:	239e                	lhu	a5,0(a5)
200a6532:	0015f713          	andi	a4,a1,1
200a6536:	c701                	beqz	a4,200a653e <_printf_i+0x1c4>
200a6538:	0205e593          	ori	a1,a1,32
200a653c:	c00c                	sw	a1,0(s0)
200a653e:	c399                	beqz	a5,200a6544 <_printf_i+0x1ca>
200a6540:	4841                	li	a6,16
200a6542:	bf89                	j	200a6494 <_printf_i+0x11a>
200a6544:	4018                	lw	a4,0(s0)
200a6546:	fdf77713          	andi	a4,a4,-33
200a654a:	c018                	sw	a4,0(s0)
200a654c:	bfd5                	j	200a6540 <_printf_i+0x1c6>
200a654e:	4829                	li	a6,10
200a6550:	b791                	j	200a6494 <_printf_i+0x11a>
200a6552:	00003617          	auipc	a2,0x3
200a6556:	70660613          	addi	a2,a2,1798 # 200a9c58 <__clz_tab+0x154>
200a655a:	4829                	li	a6,10
200a655c:	bf35                	j	200a6498 <_printf_i+0x11e>
200a655e:	4190                	lw	a2,0(a1)
200a6560:	431c                	lw	a5,0(a4)
200a6562:	49cc                	lw	a1,20(a1)
200a6564:	08067813          	andi	a6,a2,128
200a6568:	00478513          	addi	a0,a5,4
200a656c:	00080663          	beqz	a6,200a6578 <_printf_i+0x1fe>
200a6570:	c308                	sw	a0,0(a4)
200a6572:	439c                	lw	a5,0(a5)
200a6574:	c38c                	sw	a1,0(a5)
200a6576:	a039                	j	200a6584 <_printf_i+0x20a>
200a6578:	c308                	sw	a0,0(a4)
200a657a:	04067613          	andi	a2,a2,64
200a657e:	439c                	lw	a5,0(a5)
200a6580:	da75                	beqz	a2,200a6574 <_printf_i+0x1fa>
200a6582:	a38e                	sh	a1,0(a5)
200a6584:	00042823          	sw	zero,16(s0)
200a6588:	84b6                	mv	s1,a3
200a658a:	b791                	j	200a64ce <_printf_i+0x154>
200a658c:	431c                	lw	a5,0(a4)
200a658e:	41d0                	lw	a2,4(a1)
200a6590:	4581                	li	a1,0
200a6592:	00478693          	addi	a3,a5,4
200a6596:	c314                	sw	a3,0(a4)
200a6598:	4384                	lw	s1,0(a5)
200a659a:	8526                	mv	a0,s1
200a659c:	281010ef          	jal	ra,200a801c <memchr>
200a65a0:	c501                	beqz	a0,200a65a8 <_printf_i+0x22e>
200a65a2:	409507b3          	sub	a5,a0,s1
200a65a6:	c05c                	sw	a5,4(s0)
200a65a8:	405c                	lw	a5,4(s0)
200a65aa:	c81c                	sw	a5,16(s0)
200a65ac:	040401a3          	sb	zero,67(s0)
200a65b0:	bf39                	j	200a64ce <_printf_i+0x154>
200a65b2:	4814                	lw	a3,16(s0)
200a65b4:	8626                	mv	a2,s1
200a65b6:	85ce                	mv	a1,s3
200a65b8:	854a                	mv	a0,s2
200a65ba:	9a02                	jalr	s4
200a65bc:	f35503e3          	beq	a0,s5,200a64e2 <_printf_i+0x168>
200a65c0:	401c                	lw	a5,0(s0)
200a65c2:	8b89                	andi	a5,a5,2
200a65c4:	e785                	bnez	a5,200a65ec <_printf_i+0x272>
200a65c6:	4448                	lw	a0,12(s0)
200a65c8:	47b2                	lw	a5,12(sp)
200a65ca:	0af56533          	max	a0,a0,a5
200a65ce:	bf19                	j	200a64e4 <_printf_i+0x16a>
200a65d0:	4685                	li	a3,1
200a65d2:	8656                	mv	a2,s5
200a65d4:	85ce                	mv	a1,s3
200a65d6:	854a                	mv	a0,s2
200a65d8:	9a02                	jalr	s4
200a65da:	f16504e3          	beq	a0,s6,200a64e2 <_printf_i+0x168>
200a65de:	0485                	addi	s1,s1,1
200a65e0:	445c                	lw	a5,12(s0)
200a65e2:	4732                	lw	a4,12(sp)
200a65e4:	8f99                	sub	a5,a5,a4
200a65e6:	fef4c5e3          	blt	s1,a5,200a65d0 <_printf_i+0x256>
200a65ea:	bff1                	j	200a65c6 <_printf_i+0x24c>
200a65ec:	4481                	li	s1,0
200a65ee:	01940a93          	addi	s5,s0,25
200a65f2:	5b7d                	li	s6,-1
200a65f4:	b7f5                	j	200a65e0 <_printf_i+0x266>

200a65f6 <__sfputc_r>:
200a65f6:	461c                	lw	a5,8(a2)
200a65f8:	17fd                	addi	a5,a5,-1
200a65fa:	c61c                	sw	a5,8(a2)
200a65fc:	0007d963          	bgez	a5,200a660e <__sfputc_r+0x18>
200a6600:	4e18                	lw	a4,24(a2)
200a6602:	00e7c563          	blt	a5,a4,200a660c <__sfputc_r+0x16>
200a6606:	47a9                	li	a5,10
200a6608:	00f59363          	bne	a1,a5,200a660e <__sfputc_r+0x18>
200a660c:	ab25                	j	200a6b44 <__swbuf_r>
200a660e:	421c                	lw	a5,0(a2)
200a6610:	852e                	mv	a0,a1
200a6612:	00178713          	addi	a4,a5,1
200a6616:	c218                	sw	a4,0(a2)
200a6618:	a38c                	sb	a1,0(a5)
200a661a:	8082                	ret

200a661c <__sfputs_r>:
200a661c:	1101                	addi	sp,sp,-32
200a661e:	cc22                	sw	s0,24(sp)
200a6620:	ca26                	sw	s1,20(sp)
200a6622:	c84a                	sw	s2,16(sp)
200a6624:	c64e                	sw	s3,12(sp)
200a6626:	c452                	sw	s4,8(sp)
200a6628:	ce06                	sw	ra,28(sp)
200a662a:	892a                	mv	s2,a0
200a662c:	89ae                	mv	s3,a1
200a662e:	8432                	mv	s0,a2
200a6630:	00d604b3          	add	s1,a2,a3
200a6634:	5a7d                	li	s4,-1
200a6636:	00941463          	bne	s0,s1,200a663e <__sfputs_r+0x22>
200a663a:	4501                	li	a0,0
200a663c:	a801                	j	200a664c <__sfputs_r+0x30>
200a663e:	200c                	lbu	a1,0(s0)
200a6640:	864e                	mv	a2,s3
200a6642:	854a                	mv	a0,s2
200a6644:	3f4d                	jal	200a65f6 <__sfputc_r>
200a6646:	0405                	addi	s0,s0,1
200a6648:	ff4517e3          	bne	a0,s4,200a6636 <__sfputs_r+0x1a>
200a664c:	40f2                	lw	ra,28(sp)
200a664e:	4462                	lw	s0,24(sp)
200a6650:	44d2                	lw	s1,20(sp)
200a6652:	4942                	lw	s2,16(sp)
200a6654:	49b2                	lw	s3,12(sp)
200a6656:	4a22                	lw	s4,8(sp)
200a6658:	6105                	addi	sp,sp,32
200a665a:	8082                	ret

200a665c <_vfiprintf_r>:
200a665c:	7135                	addi	sp,sp,-160
200a665e:	cd22                	sw	s0,152(sp)
200a6660:	cb26                	sw	s1,148(sp)
200a6662:	c94a                	sw	s2,144(sp)
200a6664:	c74e                	sw	s3,140(sp)
200a6666:	cf06                	sw	ra,156(sp)
200a6668:	c552                	sw	s4,136(sp)
200a666a:	c356                	sw	s5,132(sp)
200a666c:	c15a                	sw	s6,128(sp)
200a666e:	dede                	sw	s7,124(sp)
200a6670:	dce2                	sw	s8,120(sp)
200a6672:	89aa                	mv	s3,a0
200a6674:	842e                	mv	s0,a1
200a6676:	8932                	mv	s2,a2
200a6678:	84b6                	mv	s1,a3
200a667a:	c509                	beqz	a0,200a6684 <_vfiprintf_r+0x28>
200a667c:	4d1c                	lw	a5,24(a0)
200a667e:	e399                	bnez	a5,200a6684 <_vfiprintf_r+0x28>
200a6680:	6de010ef          	jal	ra,200a7d5e <__sinit>
200a6684:	00004797          	auipc	a5,0x4
200a6688:	84478793          	addi	a5,a5,-1980 # 200a9ec8 <__sf_fake_stdin>
200a668c:	04f41763          	bne	s0,a5,200a66da <_vfiprintf_r+0x7e>
200a6690:	0049a403          	lw	s0,4(s3)
200a6694:	507c                	lw	a5,100(s0)
200a6696:	8b85                	andi	a5,a5,1
200a6698:	eb81                	bnez	a5,200a66a8 <_vfiprintf_r+0x4c>
200a669a:	245e                	lhu	a5,12(s0)
200a669c:	2007f793          	andi	a5,a5,512
200a66a0:	e781                	bnez	a5,200a66a8 <_vfiprintf_r+0x4c>
200a66a2:	4c28                	lw	a0,88(s0)
200a66a4:	051010ef          	jal	ra,200a7ef4 <__retarget_lock_acquire_recursive>
200a66a8:	245e                	lhu	a5,12(s0)
200a66aa:	8ba1                	andi	a5,a5,8
200a66ac:	c399                	beqz	a5,200a66b2 <_vfiprintf_r+0x56>
200a66ae:	481c                	lw	a5,16(s0)
200a66b0:	efb9                	bnez	a5,200a670e <_vfiprintf_r+0xb2>
200a66b2:	85a2                	mv	a1,s0
200a66b4:	854e                	mv	a0,s3
200a66b6:	2b81                	jal	200a6c06 <__swsetup_r>
200a66b8:	c939                	beqz	a0,200a670e <_vfiprintf_r+0xb2>
200a66ba:	507c                	lw	a5,100(s0)
200a66bc:	8b85                	andi	a5,a5,1
200a66be:	c3a1                	beqz	a5,200a66fe <_vfiprintf_r+0xa2>
200a66c0:	557d                	li	a0,-1
200a66c2:	40fa                	lw	ra,156(sp)
200a66c4:	446a                	lw	s0,152(sp)
200a66c6:	44da                	lw	s1,148(sp)
200a66c8:	494a                	lw	s2,144(sp)
200a66ca:	49ba                	lw	s3,140(sp)
200a66cc:	4a2a                	lw	s4,136(sp)
200a66ce:	4a9a                	lw	s5,132(sp)
200a66d0:	4b0a                	lw	s6,128(sp)
200a66d2:	5bf6                	lw	s7,124(sp)
200a66d4:	5c66                	lw	s8,120(sp)
200a66d6:	610d                	addi	sp,sp,160
200a66d8:	8082                	ret
200a66da:	00003797          	auipc	a5,0x3
200a66de:	7ce78793          	addi	a5,a5,1998 # 200a9ea8 <__sf_fake_stdout>
200a66e2:	00f41563          	bne	s0,a5,200a66ec <_vfiprintf_r+0x90>
200a66e6:	0089a403          	lw	s0,8(s3)
200a66ea:	b76d                	j	200a6694 <_vfiprintf_r+0x38>
200a66ec:	00003797          	auipc	a5,0x3
200a66f0:	79c78793          	addi	a5,a5,1948 # 200a9e88 <__sf_fake_stderr>
200a66f4:	faf410e3          	bne	s0,a5,200a6694 <_vfiprintf_r+0x38>
200a66f8:	00c9a403          	lw	s0,12(s3)
200a66fc:	bf61                	j	200a6694 <_vfiprintf_r+0x38>
200a66fe:	245e                	lhu	a5,12(s0)
200a6700:	2007f793          	andi	a5,a5,512
200a6704:	ffd5                	bnez	a5,200a66c0 <_vfiprintf_r+0x64>
200a6706:	4c28                	lw	a0,88(s0)
200a6708:	7ee010ef          	jal	ra,200a7ef6 <__retarget_lock_release_recursive>
200a670c:	bf55                	j	200a66c0 <_vfiprintf_r+0x64>
200a670e:	02000793          	li	a5,32
200a6712:	02f104a3          	sb	a5,41(sp)
200a6716:	03000793          	li	a5,48
200a671a:	d202                	sw	zero,36(sp)
200a671c:	02f10523          	sb	a5,42(sp)
200a6720:	c626                	sw	s1,12(sp)
200a6722:	02500b93          	li	s7,37
200a6726:	00003a97          	auipc	s5,0x3
200a672a:	5b2a8a93          	addi	s5,s5,1458 # 200a9cd8 <__clz_tab+0x1d4>
200a672e:	4b29                	li	s6,10
200a6730:	84ca                	mv	s1,s2
200a6732:	209c                	lbu	a5,0(s1)
200a6734:	c399                	beqz	a5,200a673a <_vfiprintf_r+0xde>
200a6736:	09779a63          	bne	a5,s7,200a67ca <_vfiprintf_r+0x16e>
200a673a:	41248c33          	sub	s8,s1,s2
200a673e:	01248d63          	beq	s1,s2,200a6758 <_vfiprintf_r+0xfc>
200a6742:	86e2                	mv	a3,s8
200a6744:	864a                	mv	a2,s2
200a6746:	85a2                	mv	a1,s0
200a6748:	854e                	mv	a0,s3
200a674a:	3dc9                	jal	200a661c <__sfputs_r>
200a674c:	57fd                	li	a5,-1
200a674e:	18f50963          	beq	a0,a5,200a68e0 <_vfiprintf_r+0x284>
200a6752:	5792                	lw	a5,36(sp)
200a6754:	97e2                	add	a5,a5,s8
200a6756:	d23e                	sw	a5,36(sp)
200a6758:	209c                	lbu	a5,0(s1)
200a675a:	18078363          	beqz	a5,200a68e0 <_vfiprintf_r+0x284>
200a675e:	57fd                	li	a5,-1
200a6760:	00148913          	addi	s2,s1,1
200a6764:	c802                	sw	zero,16(sp)
200a6766:	ce02                	sw	zero,28(sp)
200a6768:	ca3e                	sw	a5,20(sp)
200a676a:	cc02                	sw	zero,24(sp)
200a676c:	040109a3          	sb	zero,83(sp)
200a6770:	d482                	sw	zero,104(sp)
200a6772:	00094583          	lbu	a1,0(s2)
200a6776:	4615                	li	a2,5
200a6778:	8556                	mv	a0,s5
200a677a:	0a3010ef          	jal	ra,200a801c <memchr>
200a677e:	47c2                	lw	a5,16(sp)
200a6780:	00190493          	addi	s1,s2,1
200a6784:	e529                	bnez	a0,200a67ce <_vfiprintf_r+0x172>
200a6786:	0107f713          	andi	a4,a5,16
200a678a:	c709                	beqz	a4,200a6794 <_vfiprintf_r+0x138>
200a678c:	02000713          	li	a4,32
200a6790:	04e109a3          	sb	a4,83(sp)
200a6794:	0087f713          	andi	a4,a5,8
200a6798:	c709                	beqz	a4,200a67a2 <_vfiprintf_r+0x146>
200a679a:	02b00713          	li	a4,43
200a679e:	04e109a3          	sb	a4,83(sp)
200a67a2:	00094683          	lbu	a3,0(s2)
200a67a6:	02a00713          	li	a4,42
200a67aa:	02e68963          	beq	a3,a4,200a67dc <_vfiprintf_r+0x180>
200a67ae:	47f2                	lw	a5,28(sp)
200a67b0:	84ca                	mv	s1,s2
200a67b2:	4681                	li	a3,0
200a67b4:	4625                	li	a2,9
200a67b6:	2098                	lbu	a4,0(s1)
200a67b8:	00148593          	addi	a1,s1,1
200a67bc:	fd070713          	addi	a4,a4,-48
200a67c0:	06e67263          	bgeu	a2,a4,200a6824 <_vfiprintf_r+0x1c8>
200a67c4:	c685                	beqz	a3,200a67ec <_vfiprintf_r+0x190>
200a67c6:	ce3e                	sw	a5,28(sp)
200a67c8:	a015                	j	200a67ec <_vfiprintf_r+0x190>
200a67ca:	0485                	addi	s1,s1,1
200a67cc:	b79d                	j	200a6732 <_vfiprintf_r+0xd6>
200a67ce:	41550533          	sub	a0,a0,s5
200a67d2:	28a797b3          	bset	a5,a5,a0
200a67d6:	8926                	mv	s2,s1
200a67d8:	c83e                	sw	a5,16(sp)
200a67da:	bf61                	j	200a6772 <_vfiprintf_r+0x116>
200a67dc:	4732                	lw	a4,12(sp)
200a67de:	00470693          	addi	a3,a4,4
200a67e2:	4318                	lw	a4,0(a4)
200a67e4:	c636                	sw	a3,12(sp)
200a67e6:	02074863          	bltz	a4,200a6816 <_vfiprintf_r+0x1ba>
200a67ea:	ce3a                	sw	a4,28(sp)
200a67ec:	2098                	lbu	a4,0(s1)
200a67ee:	02e00793          	li	a5,46
200a67f2:	04f71c63          	bne	a4,a5,200a684a <_vfiprintf_r+0x1ee>
200a67f6:	3098                	lbu	a4,1(s1)
200a67f8:	02a00793          	li	a5,42
200a67fc:	02f71a63          	bne	a4,a5,200a6830 <_vfiprintf_r+0x1d4>
200a6800:	47b2                	lw	a5,12(sp)
200a6802:	0489                	addi	s1,s1,2
200a6804:	00478713          	addi	a4,a5,4
200a6808:	439c                	lw	a5,0(a5)
200a680a:	c63a                	sw	a4,12(sp)
200a680c:	577d                	li	a4,-1
200a680e:	0ae7e7b3          	max	a5,a5,a4
200a6812:	ca3e                	sw	a5,20(sp)
200a6814:	a81d                	j	200a684a <_vfiprintf_r+0x1ee>
200a6816:	40e00733          	neg	a4,a4
200a681a:	0027e793          	ori	a5,a5,2
200a681e:	ce3a                	sw	a4,28(sp)
200a6820:	c83e                	sw	a5,16(sp)
200a6822:	b7e9                	j	200a67ec <_vfiprintf_r+0x190>
200a6824:	036787b3          	mul	a5,a5,s6
200a6828:	84ae                	mv	s1,a1
200a682a:	4685                	li	a3,1
200a682c:	97ba                	add	a5,a5,a4
200a682e:	b761                	j	200a67b6 <_vfiprintf_r+0x15a>
200a6830:	0485                	addi	s1,s1,1
200a6832:	ca02                	sw	zero,20(sp)
200a6834:	4681                	li	a3,0
200a6836:	4781                	li	a5,0
200a6838:	4625                	li	a2,9
200a683a:	2098                	lbu	a4,0(s1)
200a683c:	00148593          	addi	a1,s1,1
200a6840:	fd070713          	addi	a4,a4,-48
200a6844:	06e67663          	bgeu	a2,a4,200a68b0 <_vfiprintf_r+0x254>
200a6848:	f6e9                	bnez	a3,200a6812 <_vfiprintf_r+0x1b6>
200a684a:	208c                	lbu	a1,0(s1)
200a684c:	460d                	li	a2,3
200a684e:	00003517          	auipc	a0,0x3
200a6852:	49250513          	addi	a0,a0,1170 # 200a9ce0 <__clz_tab+0x1dc>
200a6856:	7c6010ef          	jal	ra,200a801c <memchr>
200a685a:	cd11                	beqz	a0,200a6876 <_vfiprintf_r+0x21a>
200a685c:	00003797          	auipc	a5,0x3
200a6860:	48478793          	addi	a5,a5,1156 # 200a9ce0 <__clz_tab+0x1dc>
200a6864:	8d1d                	sub	a0,a0,a5
200a6866:	47c2                	lw	a5,16(sp)
200a6868:	04000713          	li	a4,64
200a686c:	00a71733          	sll	a4,a4,a0
200a6870:	8fd9                	or	a5,a5,a4
200a6872:	0485                	addi	s1,s1,1
200a6874:	c83e                	sw	a5,16(sp)
200a6876:	208c                	lbu	a1,0(s1)
200a6878:	4619                	li	a2,6
200a687a:	00003517          	auipc	a0,0x3
200a687e:	46a50513          	addi	a0,a0,1130 # 200a9ce4 <__clz_tab+0x1e0>
200a6882:	00148913          	addi	s2,s1,1
200a6886:	02b10423          	sb	a1,40(sp)
200a688a:	792010ef          	jal	ra,200a801c <memchr>
200a688e:	c935                	beqz	a0,200a6902 <_vfiprintf_r+0x2a6>
200a6890:	fffff797          	auipc	a5,0xfffff
200a6894:	51878793          	addi	a5,a5,1304 # 200a5da8 <_printf_float>
200a6898:	e795                	bnez	a5,200a68c4 <_vfiprintf_r+0x268>
200a689a:	4742                	lw	a4,16(sp)
200a689c:	47b2                	lw	a5,12(sp)
200a689e:	10077713          	andi	a4,a4,256
200a68a2:	cf09                	beqz	a4,200a68bc <_vfiprintf_r+0x260>
200a68a4:	0791                	addi	a5,a5,4
200a68a6:	c63e                	sw	a5,12(sp)
200a68a8:	5792                	lw	a5,36(sp)
200a68aa:	97d2                	add	a5,a5,s4
200a68ac:	d23e                	sw	a5,36(sp)
200a68ae:	b549                	j	200a6730 <_vfiprintf_r+0xd4>
200a68b0:	036787b3          	mul	a5,a5,s6
200a68b4:	84ae                	mv	s1,a1
200a68b6:	4685                	li	a3,1
200a68b8:	97ba                	add	a5,a5,a4
200a68ba:	b741                	j	200a683a <_vfiprintf_r+0x1de>
200a68bc:	079d                	addi	a5,a5,7
200a68be:	9be1                	andi	a5,a5,-8
200a68c0:	07a1                	addi	a5,a5,8
200a68c2:	b7d5                	j	200a68a6 <_vfiprintf_r+0x24a>
200a68c4:	0078                	addi	a4,sp,12
200a68c6:	00000697          	auipc	a3,0x0
200a68ca:	d5668693          	addi	a3,a3,-682 # 200a661c <__sfputs_r>
200a68ce:	8622                	mv	a2,s0
200a68d0:	080c                	addi	a1,sp,16
200a68d2:	854e                	mv	a0,s3
200a68d4:	cd4ff0ef          	jal	ra,200a5da8 <_printf_float>
200a68d8:	57fd                	li	a5,-1
200a68da:	8a2a                	mv	s4,a0
200a68dc:	fcf516e3          	bne	a0,a5,200a68a8 <_vfiprintf_r+0x24c>
200a68e0:	507c                	lw	a5,100(s0)
200a68e2:	8b85                	andi	a5,a5,1
200a68e4:	eb81                	bnez	a5,200a68f4 <_vfiprintf_r+0x298>
200a68e6:	245e                	lhu	a5,12(s0)
200a68e8:	2007f793          	andi	a5,a5,512
200a68ec:	e781                	bnez	a5,200a68f4 <_vfiprintf_r+0x298>
200a68ee:	4c28                	lw	a0,88(s0)
200a68f0:	606010ef          	jal	ra,200a7ef6 <__retarget_lock_release_recursive>
200a68f4:	245e                	lhu	a5,12(s0)
200a68f6:	0407f793          	andi	a5,a5,64
200a68fa:	dc0793e3          	bnez	a5,200a66c0 <_vfiprintf_r+0x64>
200a68fe:	5512                	lw	a0,36(sp)
200a6900:	b3c9                	j	200a66c2 <_vfiprintf_r+0x66>
200a6902:	0078                	addi	a4,sp,12
200a6904:	00000697          	auipc	a3,0x0
200a6908:	d1868693          	addi	a3,a3,-744 # 200a661c <__sfputs_r>
200a690c:	8622                	mv	a2,s0
200a690e:	080c                	addi	a1,sp,16
200a6910:	854e                	mv	a0,s3
200a6912:	a69ff0ef          	jal	ra,200a637a <_printf_i>
200a6916:	b7c9                	j	200a68d8 <_vfiprintf_r+0x27c>

200a6918 <iprintf>:
200a6918:	715d                	addi	sp,sp,-80
200a691a:	d422                	sw	s0,40(sp)
200a691c:	d606                	sw	ra,44(sp)
200a691e:	842a                	mv	s0,a0
200a6920:	da2e                	sw	a1,52(sp)
200a6922:	dc32                	sw	a2,56(sp)
200a6924:	de36                	sw	a3,60(sp)
200a6926:	c0ba                	sw	a4,64(sp)
200a6928:	c2be                	sw	a5,68(sp)
200a692a:	c4c2                	sw	a6,72(sp)
200a692c:	c6c6                	sw	a7,76(sp)
200a692e:	8281a503          	lw	a0,-2008(gp) # 200c1c20 <_impure_ptr>
200a6932:	c519                	beqz	a0,200a6940 <iprintf+0x28>
200a6934:	4d1c                	lw	a5,24(a0)
200a6936:	e789                	bnez	a5,200a6940 <iprintf+0x28>
200a6938:	c62a                	sw	a0,12(sp)
200a693a:	424010ef          	jal	ra,200a7d5e <__sinit>
200a693e:	4532                	lw	a0,12(sp)
200a6940:	450c                	lw	a1,8(a0)
200a6942:	1854                	addi	a3,sp,52
200a6944:	8622                	mv	a2,s0
200a6946:	ce36                	sw	a3,28(sp)
200a6948:	d15ff0ef          	jal	ra,200a665c <_vfiprintf_r>
200a694c:	50b2                	lw	ra,44(sp)
200a694e:	5422                	lw	s0,40(sp)
200a6950:	6161                	addi	sp,sp,80
200a6952:	8082                	ret

200a6954 <_puts_r>:
200a6954:	1101                	addi	sp,sp,-32
200a6956:	ca26                	sw	s1,20(sp)
200a6958:	ce06                	sw	ra,28(sp)
200a695a:	cc22                	sw	s0,24(sp)
200a695c:	c84a                	sw	s2,16(sp)
200a695e:	c64e                	sw	s3,12(sp)
200a6960:	c452                	sw	s4,8(sp)
200a6962:	84aa                	mv	s1,a0
200a6964:	e119                	bnez	a0,200a696a <_puts_r+0x16>
200a6966:	451c                	lw	a5,8(a0)
200a6968:	9002                	ebreak
200a696a:	4d1c                	lw	a5,24(a0)
200a696c:	892e                	mv	s2,a1
200a696e:	e7a5                	bnez	a5,200a69d6 <_puts_r+0x82>
200a6970:	3ee010ef          	jal	ra,200a7d5e <__sinit>
200a6974:	4c9c                	lw	a5,24(s1)
200a6976:	4480                	lw	s0,8(s1)
200a6978:	c3ad                	beqz	a5,200a69da <_puts_r+0x86>
200a697a:	00003797          	auipc	a5,0x3
200a697e:	54e78793          	addi	a5,a5,1358 # 200a9ec8 <__sf_fake_stdin>
200a6982:	06f41063          	bne	s0,a5,200a69e2 <_puts_r+0x8e>
200a6986:	40c0                	lw	s0,4(s1)
200a6988:	507c                	lw	a5,100(s0)
200a698a:	8b85                	andi	a5,a5,1
200a698c:	eb81                	bnez	a5,200a699c <_puts_r+0x48>
200a698e:	245e                	lhu	a5,12(s0)
200a6990:	2007f793          	andi	a5,a5,512
200a6994:	e781                	bnez	a5,200a699c <_puts_r+0x48>
200a6996:	4c28                	lw	a0,88(s0)
200a6998:	55c010ef          	jal	ra,200a7ef4 <__retarget_lock_acquire_recursive>
200a699c:	245e                	lhu	a5,12(s0)
200a699e:	8ba1                	andi	a5,a5,8
200a69a0:	c399                	beqz	a5,200a69a6 <_puts_r+0x52>
200a69a2:	481c                	lw	a5,16(s0)
200a69a4:	e7c5                	bnez	a5,200a6a4c <_puts_r+0xf8>
200a69a6:	85a2                	mv	a1,s0
200a69a8:	8526                	mv	a0,s1
200a69aa:	2cb1                	jal	200a6c06 <__swsetup_r>
200a69ac:	c145                	beqz	a0,200a6a4c <_puts_r+0xf8>
200a69ae:	54fd                	li	s1,-1
200a69b0:	507c                	lw	a5,100(s0)
200a69b2:	8b85                	andi	a5,a5,1
200a69b4:	eb81                	bnez	a5,200a69c4 <_puts_r+0x70>
200a69b6:	245e                	lhu	a5,12(s0)
200a69b8:	2007f793          	andi	a5,a5,512
200a69bc:	e781                	bnez	a5,200a69c4 <_puts_r+0x70>
200a69be:	4c28                	lw	a0,88(s0)
200a69c0:	536010ef          	jal	ra,200a7ef6 <__retarget_lock_release_recursive>
200a69c4:	40f2                	lw	ra,28(sp)
200a69c6:	4462                	lw	s0,24(sp)
200a69c8:	4942                	lw	s2,16(sp)
200a69ca:	49b2                	lw	s3,12(sp)
200a69cc:	4a22                	lw	s4,8(sp)
200a69ce:	8526                	mv	a0,s1
200a69d0:	44d2                	lw	s1,20(sp)
200a69d2:	6105                	addi	sp,sp,32
200a69d4:	8082                	ret
200a69d6:	4500                	lw	s0,8(a0)
200a69d8:	b74d                	j	200a697a <_puts_r+0x26>
200a69da:	8526                	mv	a0,s1
200a69dc:	382010ef          	jal	ra,200a7d5e <__sinit>
200a69e0:	bf69                	j	200a697a <_puts_r+0x26>
200a69e2:	00003797          	auipc	a5,0x3
200a69e6:	4c678793          	addi	a5,a5,1222 # 200a9ea8 <__sf_fake_stdout>
200a69ea:	00f41463          	bne	s0,a5,200a69f2 <_puts_r+0x9e>
200a69ee:	4480                	lw	s0,8(s1)
200a69f0:	bf61                	j	200a6988 <_puts_r+0x34>
200a69f2:	00003797          	auipc	a5,0x3
200a69f6:	49678793          	addi	a5,a5,1174 # 200a9e88 <__sf_fake_stderr>
200a69fa:	f8f417e3          	bne	s0,a5,200a6988 <_puts_r+0x34>
200a69fe:	44c0                	lw	s0,12(s1)
200a6a00:	b761                	j	200a6988 <_puts_r+0x34>
200a6a02:	c41c                	sw	a5,8(s0)
200a6a04:	0905                	addi	s2,s2,1
200a6a06:	0207c863          	bltz	a5,200a6a36 <_puts_r+0xe2>
200a6a0a:	401c                	lw	a5,0(s0)
200a6a0c:	00178713          	addi	a4,a5,1
200a6a10:	c018                	sw	a4,0(s0)
200a6a12:	a38c                	sb	a1,0(a5)
200a6a14:	441c                	lw	a5,8(s0)
200a6a16:	00094583          	lbu	a1,0(s2)
200a6a1a:	17fd                	addi	a5,a5,-1
200a6a1c:	f1fd                	bnez	a1,200a6a02 <_puts_r+0xae>
200a6a1e:	c41c                	sw	a5,8(s0)
200a6a20:	0207d963          	bgez	a5,200a6a52 <_puts_r+0xfe>
200a6a24:	8622                	mv	a2,s0
200a6a26:	45a9                	li	a1,10
200a6a28:	8526                	mv	a0,s1
200a6a2a:	2a29                	jal	200a6b44 <__swbuf_r>
200a6a2c:	57fd                	li	a5,-1
200a6a2e:	f8f500e3          	beq	a0,a5,200a69ae <_puts_r+0x5a>
200a6a32:	44a9                	li	s1,10
200a6a34:	bfb5                	j	200a69b0 <_puts_r+0x5c>
200a6a36:	4c18                	lw	a4,24(s0)
200a6a38:	00e7c463          	blt	a5,a4,200a6a40 <_puts_r+0xec>
200a6a3c:	fd4597e3          	bne	a1,s4,200a6a0a <_puts_r+0xb6>
200a6a40:	8622                	mv	a2,s0
200a6a42:	8526                	mv	a0,s1
200a6a44:	2201                	jal	200a6b44 <__swbuf_r>
200a6a46:	fd3517e3          	bne	a0,s3,200a6a14 <_puts_r+0xc0>
200a6a4a:	b795                	j	200a69ae <_puts_r+0x5a>
200a6a4c:	59fd                	li	s3,-1
200a6a4e:	4a29                	li	s4,10
200a6a50:	b7d1                	j	200a6a14 <_puts_r+0xc0>
200a6a52:	401c                	lw	a5,0(s0)
200a6a54:	00178713          	addi	a4,a5,1
200a6a58:	c018                	sw	a4,0(s0)
200a6a5a:	4729                	li	a4,10
200a6a5c:	a398                	sb	a4,0(a5)
200a6a5e:	bfd1                	j	200a6a32 <_puts_r+0xde>

200a6a60 <puts>:
200a6a60:	85aa                	mv	a1,a0
200a6a62:	8281a503          	lw	a0,-2008(gp) # 200c1c20 <_impure_ptr>
200a6a66:	b5fd                	j	200a6954 <_puts_r>

200a6a68 <_sbrk_r>:
200a6a68:	1141                	addi	sp,sp,-16
200a6a6a:	c422                	sw	s0,8(sp)
200a6a6c:	842a                	mv	s0,a0
200a6a6e:	852e                	mv	a0,a1
200a6a70:	0002f797          	auipc	a5,0x2f
200a6a74:	2c07a423          	sw	zero,712(a5) # 200d5d38 <errno>
200a6a78:	c606                	sw	ra,12(sp)
200a6a7a:	dfcfa0ef          	jal	ra,200a1076 <_sbrk>
200a6a7e:	57fd                	li	a5,-1
200a6a80:	00f51863          	bne	a0,a5,200a6a90 <_sbrk_r+0x28>
200a6a84:	0002f797          	auipc	a5,0x2f
200a6a88:	2b47a783          	lw	a5,692(a5) # 200d5d38 <errno>
200a6a8c:	c391                	beqz	a5,200a6a90 <_sbrk_r+0x28>
200a6a8e:	c01c                	sw	a5,0(s0)
200a6a90:	40b2                	lw	ra,12(sp)
200a6a92:	4422                	lw	s0,8(sp)
200a6a94:	0141                	addi	sp,sp,16
200a6a96:	8082                	ret

200a6a98 <_raise_r>:
200a6a98:	1101                	addi	sp,sp,-32
200a6a9a:	cc22                	sw	s0,24(sp)
200a6a9c:	ce06                	sw	ra,28(sp)
200a6a9e:	47fd                	li	a5,31
200a6aa0:	842a                	mv	s0,a0
200a6aa2:	00b7f963          	bgeu	a5,a1,200a6ab4 <_raise_r+0x1c>
200a6aa6:	47d9                	li	a5,22
200a6aa8:	c11c                	sw	a5,0(a0)
200a6aaa:	557d                	li	a0,-1
200a6aac:	40f2                	lw	ra,28(sp)
200a6aae:	4462                	lw	s0,24(sp)
200a6ab0:	6105                	addi	sp,sp,32
200a6ab2:	8082                	ret
200a6ab4:	417c                	lw	a5,68(a0)
200a6ab6:	862e                	mv	a2,a1
200a6ab8:	c789                	beqz	a5,200a6ac2 <_raise_r+0x2a>
200a6aba:	20f5c7b3          	sh2add	a5,a1,a5
200a6abe:	4398                	lw	a4,0(a5)
200a6ac0:	eb19                	bnez	a4,200a6ad6 <_raise_r+0x3e>
200a6ac2:	8522                	mv	a0,s0
200a6ac4:	c632                	sw	a2,12(sp)
200a6ac6:	20ad                	jal	200a6b30 <_getpid_r>
200a6ac8:	85aa                	mv	a1,a0
200a6aca:	8522                	mv	a0,s0
200a6acc:	4462                	lw	s0,24(sp)
200a6ace:	4632                	lw	a2,12(sp)
200a6ad0:	40f2                	lw	ra,28(sp)
200a6ad2:	6105                	addi	sp,sp,32
200a6ad4:	a02d                	j	200a6afe <_kill_r>
200a6ad6:	4685                	li	a3,1
200a6ad8:	00d70d63          	beq	a4,a3,200a6af2 <_raise_r+0x5a>
200a6adc:	56fd                	li	a3,-1
200a6ade:	00d71663          	bne	a4,a3,200a6aea <_raise_r+0x52>
200a6ae2:	47d9                	li	a5,22
200a6ae4:	c11c                	sw	a5,0(a0)
200a6ae6:	4505                	li	a0,1
200a6ae8:	b7d1                	j	200a6aac <_raise_r+0x14>
200a6aea:	0007a023          	sw	zero,0(a5)
200a6aee:	852e                	mv	a0,a1
200a6af0:	9702                	jalr	a4
200a6af2:	4501                	li	a0,0
200a6af4:	bf65                	j	200a6aac <_raise_r+0x14>

200a6af6 <raise>:
200a6af6:	85aa                	mv	a1,a0
200a6af8:	8281a503          	lw	a0,-2008(gp) # 200c1c20 <_impure_ptr>
200a6afc:	bf71                	j	200a6a98 <_raise_r>

200a6afe <_kill_r>:
200a6afe:	1141                	addi	sp,sp,-16
200a6b00:	c422                	sw	s0,8(sp)
200a6b02:	842a                	mv	s0,a0
200a6b04:	852e                	mv	a0,a1
200a6b06:	85b2                	mv	a1,a2
200a6b08:	0002f797          	auipc	a5,0x2f
200a6b0c:	2207a823          	sw	zero,560(a5) # 200d5d38 <errno>
200a6b10:	c606                	sw	ra,12(sp)
200a6b12:	23a020ef          	jal	ra,200a8d4c <_kill>
200a6b16:	57fd                	li	a5,-1
200a6b18:	00f51863          	bne	a0,a5,200a6b28 <_kill_r+0x2a>
200a6b1c:	0002f797          	auipc	a5,0x2f
200a6b20:	21c7a783          	lw	a5,540(a5) # 200d5d38 <errno>
200a6b24:	c391                	beqz	a5,200a6b28 <_kill_r+0x2a>
200a6b26:	c01c                	sw	a5,0(s0)
200a6b28:	40b2                	lw	ra,12(sp)
200a6b2a:	4422                	lw	s0,8(sp)
200a6b2c:	0141                	addi	sp,sp,16
200a6b2e:	8082                	ret

200a6b30 <_getpid_r>:
200a6b30:	1fc0206f          	j	200a8d2c <_getpid>

200a6b34 <strlen>:
200a6b34:	87aa                	mv	a5,a0
200a6b36:	2398                	lbu	a4,0(a5)
200a6b38:	0785                	addi	a5,a5,1
200a6b3a:	ff75                	bnez	a4,200a6b36 <strlen+0x2>
200a6b3c:	40a78533          	sub	a0,a5,a0
200a6b40:	157d                	addi	a0,a0,-1
200a6b42:	8082                	ret

200a6b44 <__swbuf_r>:
200a6b44:	1101                	addi	sp,sp,-32
200a6b46:	cc22                	sw	s0,24(sp)
200a6b48:	ca26                	sw	s1,20(sp)
200a6b4a:	c84a                	sw	s2,16(sp)
200a6b4c:	ce06                	sw	ra,28(sp)
200a6b4e:	c64e                	sw	s3,12(sp)
200a6b50:	84aa                	mv	s1,a0
200a6b52:	892e                	mv	s2,a1
200a6b54:	8432                	mv	s0,a2
200a6b56:	c509                	beqz	a0,200a6b60 <__swbuf_r+0x1c>
200a6b58:	4d1c                	lw	a5,24(a0)
200a6b5a:	e399                	bnez	a5,200a6b60 <__swbuf_r+0x1c>
200a6b5c:	202010ef          	jal	ra,200a7d5e <__sinit>
200a6b60:	00003797          	auipc	a5,0x3
200a6b64:	36878793          	addi	a5,a5,872 # 200a9ec8 <__sf_fake_stdin>
200a6b68:	02f41763          	bne	s0,a5,200a6b96 <__swbuf_r+0x52>
200a6b6c:	40c0                	lw	s0,4(s1)
200a6b6e:	4c1c                	lw	a5,24(s0)
200a6b70:	c41c                	sw	a5,8(s0)
200a6b72:	245e                	lhu	a5,12(s0)
200a6b74:	8ba1                	andi	a5,a5,8
200a6b76:	c399                	beqz	a5,200a6b7c <__swbuf_r+0x38>
200a6b78:	481c                	lw	a5,16(s0)
200a6b7a:	ef95                	bnez	a5,200a6bb6 <__swbuf_r+0x72>
200a6b7c:	85a2                	mv	a1,s0
200a6b7e:	8526                	mv	a0,s1
200a6b80:	2059                	jal	200a6c06 <__swsetup_r>
200a6b82:	c915                	beqz	a0,200a6bb6 <__swbuf_r+0x72>
200a6b84:	597d                	li	s2,-1
200a6b86:	40f2                	lw	ra,28(sp)
200a6b88:	4462                	lw	s0,24(sp)
200a6b8a:	44d2                	lw	s1,20(sp)
200a6b8c:	49b2                	lw	s3,12(sp)
200a6b8e:	854a                	mv	a0,s2
200a6b90:	4942                	lw	s2,16(sp)
200a6b92:	6105                	addi	sp,sp,32
200a6b94:	8082                	ret
200a6b96:	00003797          	auipc	a5,0x3
200a6b9a:	31278793          	addi	a5,a5,786 # 200a9ea8 <__sf_fake_stdout>
200a6b9e:	00f41463          	bne	s0,a5,200a6ba6 <__swbuf_r+0x62>
200a6ba2:	4480                	lw	s0,8(s1)
200a6ba4:	b7e9                	j	200a6b6e <__swbuf_r+0x2a>
200a6ba6:	00003797          	auipc	a5,0x3
200a6baa:	2e278793          	addi	a5,a5,738 # 200a9e88 <__sf_fake_stderr>
200a6bae:	fcf410e3          	bne	s0,a5,200a6b6e <__swbuf_r+0x2a>
200a6bb2:	44c0                	lw	s0,12(s1)
200a6bb4:	bf6d                	j	200a6b6e <__swbuf_r+0x2a>
200a6bb6:	481c                	lw	a5,16(s0)
200a6bb8:	4008                	lw	a0,0(s0)
200a6bba:	0ff97993          	zext.b	s3,s2
200a6bbe:	0ff97913          	zext.b	s2,s2
200a6bc2:	8d1d                	sub	a0,a0,a5
200a6bc4:	485c                	lw	a5,20(s0)
200a6bc6:	00f54763          	blt	a0,a5,200a6bd4 <__swbuf_r+0x90>
200a6bca:	85a2                	mv	a1,s0
200a6bcc:	8526                	mv	a0,s1
200a6bce:	028010ef          	jal	ra,200a7bf6 <_fflush_r>
200a6bd2:	f94d                	bnez	a0,200a6b84 <__swbuf_r+0x40>
200a6bd4:	441c                	lw	a5,8(s0)
200a6bd6:	0505                	addi	a0,a0,1
200a6bd8:	17fd                	addi	a5,a5,-1
200a6bda:	c41c                	sw	a5,8(s0)
200a6bdc:	401c                	lw	a5,0(s0)
200a6bde:	00178713          	addi	a4,a5,1
200a6be2:	c018                	sw	a4,0(s0)
200a6be4:	01378023          	sb	s3,0(a5)
200a6be8:	485c                	lw	a5,20(s0)
200a6bea:	00a78863          	beq	a5,a0,200a6bfa <__swbuf_r+0xb6>
200a6bee:	245e                	lhu	a5,12(s0)
200a6bf0:	8b85                	andi	a5,a5,1
200a6bf2:	dbd1                	beqz	a5,200a6b86 <__swbuf_r+0x42>
200a6bf4:	47a9                	li	a5,10
200a6bf6:	f8f918e3          	bne	s2,a5,200a6b86 <__swbuf_r+0x42>
200a6bfa:	85a2                	mv	a1,s0
200a6bfc:	8526                	mv	a0,s1
200a6bfe:	7f9000ef          	jal	ra,200a7bf6 <_fflush_r>
200a6c02:	d151                	beqz	a0,200a6b86 <__swbuf_r+0x42>
200a6c04:	b741                	j	200a6b84 <__swbuf_r+0x40>

200a6c06 <__swsetup_r>:
200a6c06:	1141                	addi	sp,sp,-16
200a6c08:	c422                	sw	s0,8(sp)
200a6c0a:	c226                	sw	s1,4(sp)
200a6c0c:	c04a                	sw	s2,0(sp)
200a6c0e:	c606                	sw	ra,12(sp)
200a6c10:	8281a483          	lw	s1,-2008(gp) # 200c1c20 <_impure_ptr>
200a6c14:	892a                	mv	s2,a0
200a6c16:	842e                	mv	s0,a1
200a6c18:	c491                	beqz	s1,200a6c24 <__swsetup_r+0x1e>
200a6c1a:	4c9c                	lw	a5,24(s1)
200a6c1c:	e781                	bnez	a5,200a6c24 <__swsetup_r+0x1e>
200a6c1e:	8526                	mv	a0,s1
200a6c20:	13e010ef          	jal	ra,200a7d5e <__sinit>
200a6c24:	00003797          	auipc	a5,0x3
200a6c28:	2a478793          	addi	a5,a5,676 # 200a9ec8 <__sf_fake_stdin>
200a6c2c:	02f41363          	bne	s0,a5,200a6c52 <__swsetup_r+0x4c>
200a6c30:	40c0                	lw	s0,4(s1)
200a6c32:	00c41783          	lh	a5,12(s0)
200a6c36:	0087f713          	andi	a4,a5,8
200a6c3a:	e72d                	bnez	a4,200a6ca4 <__swsetup_r+0x9e>
200a6c3c:	0107f713          	andi	a4,a5,16
200a6c40:	eb0d                	bnez	a4,200a6c72 <__swsetup_r+0x6c>
200a6c42:	4725                	li	a4,9
200a6c44:	00e92023          	sw	a4,0(s2)
200a6c48:	0407e793          	ori	a5,a5,64
200a6c4c:	a45e                	sh	a5,12(s0)
200a6c4e:	557d                	li	a0,-1
200a6c50:	a841                	j	200a6ce0 <__swsetup_r+0xda>
200a6c52:	00003797          	auipc	a5,0x3
200a6c56:	25678793          	addi	a5,a5,598 # 200a9ea8 <__sf_fake_stdout>
200a6c5a:	00f41463          	bne	s0,a5,200a6c62 <__swsetup_r+0x5c>
200a6c5e:	4480                	lw	s0,8(s1)
200a6c60:	bfc9                	j	200a6c32 <__swsetup_r+0x2c>
200a6c62:	00003797          	auipc	a5,0x3
200a6c66:	22678793          	addi	a5,a5,550 # 200a9e88 <__sf_fake_stderr>
200a6c6a:	fcf414e3          	bne	s0,a5,200a6c32 <__swsetup_r+0x2c>
200a6c6e:	44c0                	lw	s0,12(s1)
200a6c70:	b7c9                	j	200a6c32 <__swsetup_r+0x2c>
200a6c72:	8b91                	andi	a5,a5,4
200a6c74:	c785                	beqz	a5,200a6c9c <__swsetup_r+0x96>
200a6c76:	584c                	lw	a1,52(s0)
200a6c78:	c991                	beqz	a1,200a6c8c <__swsetup_r+0x86>
200a6c7a:	04440793          	addi	a5,s0,68
200a6c7e:	00f58563          	beq	a1,a5,200a6c88 <__swsetup_r+0x82>
200a6c82:	854a                	mv	a0,s2
200a6c84:	d8dfe0ef          	jal	ra,200a5a10 <_free_r>
200a6c88:	02042a23          	sw	zero,52(s0)
200a6c8c:	245e                	lhu	a5,12(s0)
200a6c8e:	00042223          	sw	zero,4(s0)
200a6c92:	fdb7f793          	andi	a5,a5,-37
200a6c96:	a45e                	sh	a5,12(s0)
200a6c98:	481c                	lw	a5,16(s0)
200a6c9a:	c01c                	sw	a5,0(s0)
200a6c9c:	245e                	lhu	a5,12(s0)
200a6c9e:	0087e793          	ori	a5,a5,8
200a6ca2:	a45e                	sh	a5,12(s0)
200a6ca4:	481c                	lw	a5,16(s0)
200a6ca6:	ef81                	bnez	a5,200a6cbe <__swsetup_r+0xb8>
200a6ca8:	245e                	lhu	a5,12(s0)
200a6caa:	20000713          	li	a4,512
200a6cae:	2807f793          	andi	a5,a5,640
200a6cb2:	00e78663          	beq	a5,a4,200a6cbe <__swsetup_r+0xb8>
200a6cb6:	85a2                	mv	a1,s0
200a6cb8:	854a                	mv	a0,s2
200a6cba:	298010ef          	jal	ra,200a7f52 <__smakebuf_r>
200a6cbe:	00c41783          	lh	a5,12(s0)
200a6cc2:	0017f713          	andi	a4,a5,1
200a6cc6:	c31d                	beqz	a4,200a6cec <__swsetup_r+0xe6>
200a6cc8:	4858                	lw	a4,20(s0)
200a6cca:	00042423          	sw	zero,8(s0)
200a6cce:	40e00733          	neg	a4,a4
200a6cd2:	cc18                	sw	a4,24(s0)
200a6cd4:	4818                	lw	a4,16(s0)
200a6cd6:	4501                	li	a0,0
200a6cd8:	e701                	bnez	a4,200a6ce0 <__swsetup_r+0xda>
200a6cda:	0807f713          	andi	a4,a5,128
200a6cde:	f72d                	bnez	a4,200a6c48 <__swsetup_r+0x42>
200a6ce0:	40b2                	lw	ra,12(sp)
200a6ce2:	4422                	lw	s0,8(sp)
200a6ce4:	4492                	lw	s1,4(sp)
200a6ce6:	4902                	lw	s2,0(sp)
200a6ce8:	0141                	addi	sp,sp,16
200a6cea:	8082                	ret
200a6cec:	0027f713          	andi	a4,a5,2
200a6cf0:	4681                	li	a3,0
200a6cf2:	e311                	bnez	a4,200a6cf6 <__swsetup_r+0xf0>
200a6cf4:	4854                	lw	a3,20(s0)
200a6cf6:	c414                	sw	a3,8(s0)
200a6cf8:	bff1                	j	200a6cd4 <__swsetup_r+0xce>

200a6cfa <quorem>:
200a6cfa:	1101                	addi	sp,sp,-32
200a6cfc:	cc22                	sw	s0,24(sp)
200a6cfe:	491c                	lw	a5,16(a0)
200a6d00:	4980                	lw	s0,16(a1)
200a6d02:	ce06                	sw	ra,28(sp)
200a6d04:	ca26                	sw	s1,20(sp)
200a6d06:	c84a                	sw	s2,16(sp)
200a6d08:	c64e                	sw	s3,12(sp)
200a6d0a:	c452                	sw	s4,8(sp)
200a6d0c:	c256                	sw	s5,4(sp)
200a6d0e:	1087ca63          	blt	a5,s0,200a6e22 <quorem+0x128>
200a6d12:	147d                	addi	s0,s0,-1
200a6d14:	01458a93          	addi	s5,a1,20
200a6d18:	01450993          	addi	s3,a0,20
200a6d1c:	21544a33          	sh2add	s4,s0,s5
200a6d20:	000a2783          	lw	a5,0(s4)
200a6d24:	21344833          	sh2add	a6,s0,s3
200a6d28:	00082703          	lw	a4,0(a6)
200a6d2c:	0785                	addi	a5,a5,1
200a6d2e:	892a                	mv	s2,a0
200a6d30:	02f754b3          	divu	s1,a4,a5
200a6d34:	06f76263          	bltu	a4,a5,200a6d98 <quorem+0x9e>
200a6d38:	6541                	lui	a0,0x10
200a6d3a:	834e                	mv	t1,s3
200a6d3c:	88d6                	mv	a7,s5
200a6d3e:	4e01                	li	t3,0
200a6d40:	4e81                	li	t4,0
200a6d42:	157d                	addi	a0,a0,-1 # ffff <__stack_size+0xf7ff>
200a6d44:	0008a703          	lw	a4,0(a7) # 80000 <_data_lma+0x45e58>
200a6d48:	0891                	addi	a7,a7,4
200a6d4a:	0311                	addi	t1,t1,4
200a6d4c:	00a77633          	and	a2,a4,a0
200a6d50:	8341                	srli	a4,a4,0x10
200a6d52:	02960633          	mul	a2,a2,s1
200a6d56:	02970733          	mul	a4,a4,s1
200a6d5a:	9672                	add	a2,a2,t3
200a6d5c:	01065793          	srli	a5,a2,0x10
200a6d60:	8e69                	and	a2,a2,a0
200a6d62:	973e                	add	a4,a4,a5
200a6d64:	ffc32783          	lw	a5,-4(t1)
200a6d68:	01075e13          	srli	t3,a4,0x10
200a6d6c:	8f69                	and	a4,a4,a0
200a6d6e:	00a7f6b3          	and	a3,a5,a0
200a6d72:	8e91                	sub	a3,a3,a2
200a6d74:	96f6                	add	a3,a3,t4
200a6d76:	83c1                	srli	a5,a5,0x10
200a6d78:	8f99                	sub	a5,a5,a4
200a6d7a:	4106d713          	srai	a4,a3,0x10
200a6d7e:	97ba                	add	a5,a5,a4
200a6d80:	4107de93          	srai	t4,a5,0x10
200a6d84:	8ee9                	and	a3,a3,a0
200a6d86:	07c2                	slli	a5,a5,0x10
200a6d88:	8edd                	or	a3,a3,a5
200a6d8a:	fed32e23          	sw	a3,-4(t1)
200a6d8e:	fb1a7be3          	bgeu	s4,a7,200a6d44 <quorem+0x4a>
200a6d92:	00082783          	lw	a5,0(a6)
200a6d96:	c7bd                	beqz	a5,200a6e04 <quorem+0x10a>
200a6d98:	854a                	mv	a0,s2
200a6d9a:	063010ef          	jal	ra,200a85fc <__mcmp>
200a6d9e:	04054563          	bltz	a0,200a6de8 <quorem+0xee>
200a6da2:	6641                	lui	a2,0x10
200a6da4:	85ce                	mv	a1,s3
200a6da6:	86d6                	mv	a3,s5
200a6da8:	4801                	li	a6,0
200a6daa:	167d                	addi	a2,a2,-1 # ffff <__stack_size+0xf7ff>
200a6dac:	4288                	lw	a0,0(a3)
200a6dae:	419c                	lw	a5,0(a1)
200a6db0:	0691                	addi	a3,a3,4
200a6db2:	00c578b3          	and	a7,a0,a2
200a6db6:	00c7f733          	and	a4,a5,a2
200a6dba:	41170733          	sub	a4,a4,a7
200a6dbe:	9742                	add	a4,a4,a6
200a6dc0:	8141                	srli	a0,a0,0x10
200a6dc2:	83c1                	srli	a5,a5,0x10
200a6dc4:	8f89                	sub	a5,a5,a0
200a6dc6:	41075513          	srai	a0,a4,0x10
200a6dca:	97aa                	add	a5,a5,a0
200a6dcc:	4107d813          	srai	a6,a5,0x10
200a6dd0:	8f71                	and	a4,a4,a2
200a6dd2:	07c2                	slli	a5,a5,0x10
200a6dd4:	8f5d                	or	a4,a4,a5
200a6dd6:	c198                	sw	a4,0(a1)
200a6dd8:	0591                	addi	a1,a1,4
200a6dda:	fcda79e3          	bgeu	s4,a3,200a6dac <quorem+0xb2>
200a6dde:	213447b3          	sh2add	a5,s0,s3
200a6de2:	4398                	lw	a4,0(a5)
200a6de4:	cb0d                	beqz	a4,200a6e16 <quorem+0x11c>
200a6de6:	0485                	addi	s1,s1,1
200a6de8:	8526                	mv	a0,s1
200a6dea:	40f2                	lw	ra,28(sp)
200a6dec:	4462                	lw	s0,24(sp)
200a6dee:	44d2                	lw	s1,20(sp)
200a6df0:	4942                	lw	s2,16(sp)
200a6df2:	49b2                	lw	s3,12(sp)
200a6df4:	4a22                	lw	s4,8(sp)
200a6df6:	4a92                	lw	s5,4(sp)
200a6df8:	6105                	addi	sp,sp,32
200a6dfa:	8082                	ret
200a6dfc:	00082783          	lw	a5,0(a6)
200a6e00:	e789                	bnez	a5,200a6e0a <quorem+0x110>
200a6e02:	147d                	addi	s0,s0,-1
200a6e04:	1871                	addi	a6,a6,-4
200a6e06:	ff09ebe3          	bltu	s3,a6,200a6dfc <quorem+0x102>
200a6e0a:	00892823          	sw	s0,16(s2)
200a6e0e:	b769                	j	200a6d98 <quorem+0x9e>
200a6e10:	4398                	lw	a4,0(a5)
200a6e12:	e709                	bnez	a4,200a6e1c <quorem+0x122>
200a6e14:	147d                	addi	s0,s0,-1
200a6e16:	17f1                	addi	a5,a5,-4
200a6e18:	fef9ece3          	bltu	s3,a5,200a6e10 <quorem+0x116>
200a6e1c:	00892823          	sw	s0,16(s2)
200a6e20:	b7d9                	j	200a6de6 <quorem+0xec>
200a6e22:	4501                	li	a0,0
200a6e24:	b7d9                	j	200a6dea <quorem+0xf0>

200a6e26 <_dtoa_r>:
200a6e26:	7175                	addi	sp,sp,-144
200a6e28:	d63e                	sw	a5,44(sp)
200a6e2a:	515c                	lw	a5,36(a0)
200a6e2c:	c522                	sw	s0,136(sp)
200a6e2e:	c326                	sw	s1,132(sp)
200a6e30:	c14a                	sw	s2,128(sp)
200a6e32:	dece                	sw	s3,124(sp)
200a6e34:	dad6                	sw	s5,116(sp)
200a6e36:	d8da                	sw	s6,112(sp)
200a6e38:	c706                	sw	ra,140(sp)
200a6e3a:	dcd2                	sw	s4,120(sp)
200a6e3c:	d6de                	sw	s7,108(sp)
200a6e3e:	d4e2                	sw	s8,104(sp)
200a6e40:	d2e6                	sw	s9,100(sp)
200a6e42:	d0ea                	sw	s10,96(sp)
200a6e44:	ceee                	sw	s11,92(sp)
200a6e46:	c02a                	sw	a0,0(sp)
200a6e48:	ca3a                	sw	a4,20(sp)
200a6e4a:	ce46                	sw	a7,28(sp)
200a6e4c:	84ae                	mv	s1,a1
200a6e4e:	89b2                	mv	s3,a2
200a6e50:	8436                	mv	s0,a3
200a6e52:	8942                	mv	s2,a6
200a6e54:	8b2e                	mv	s6,a1
200a6e56:	8ab2                	mv	s5,a2
200a6e58:	ef91                	bnez	a5,200a6e74 <_dtoa_r+0x4e>
200a6e5a:	4541                	li	a0,16
200a6e5c:	badfe0ef          	jal	ra,200a5a08 <malloc>
200a6e60:	4782                	lw	a5,0(sp)
200a6e62:	00052223          	sw	zero,4(a0)
200a6e66:	00052423          	sw	zero,8(a0)
200a6e6a:	d3c8                	sw	a0,36(a5)
200a6e6c:	00052023          	sw	zero,0(a0)
200a6e70:	00052623          	sw	zero,12(a0)
200a6e74:	4782                	lw	a5,0(sp)
200a6e76:	53dc                	lw	a5,36(a5)
200a6e78:	438c                	lw	a1,0(a5)
200a6e7a:	cd89                	beqz	a1,200a6e94 <_dtoa_r+0x6e>
200a6e7c:	43dc                	lw	a5,4(a5)
200a6e7e:	4502                	lw	a0,0(sp)
200a6e80:	c1dc                	sw	a5,4(a1)
200a6e82:	28f017b3          	bset	a5,zero,a5
200a6e86:	c59c                	sw	a5,8(a1)
200a6e88:	252010ef          	jal	ra,200a80da <_Bfree>
200a6e8c:	4782                	lw	a5,0(sp)
200a6e8e:	53dc                	lw	a5,36(a5)
200a6e90:	0007a023          	sw	zero,0(a5)
200a6e94:	0609d563          	bgez	s3,200a6efe <_dtoa_r+0xd8>
200a6e98:	4785                	li	a5,1
200a6e9a:	00f92023          	sw	a5,0(s2)
200a6e9e:	49f99a93          	bclri	s5,s3,0x1f
200a6ea2:	7ff007b7          	lui	a5,0x7ff00
200a6ea6:	00faf733          	and	a4,s5,a5
200a6eaa:	04f71d63          	bne	a4,a5,200a6f04 <_dtoa_r+0xde>
200a6eae:	5732                	lw	a4,44(sp)
200a6eb0:	6789                	lui	a5,0x2
200a6eb2:	0ab2                	slli	s5,s5,0xc
200a6eb4:	70f78793          	addi	a5,a5,1807 # 270f <__stack_size+0x1f0f>
200a6eb8:	00cada93          	srli	s5,s5,0xc
200a6ebc:	c31c                	sw	a5,0(a4)
200a6ebe:	009aeab3          	or	s5,s5,s1
200a6ec2:	3e0a83e3          	beqz	s5,200a7aa8 <_dtoa_r+0xc82>
200a6ec6:	47f2                	lw	a5,28(sp)
200a6ec8:	00003b97          	auipc	s7,0x3
200a6ecc:	f34b8b93          	addi	s7,s7,-204 # 200a9dfc <_ctype_+0x110>
200a6ed0:	c799                	beqz	a5,200a6ede <_dtoa_r+0xb8>
200a6ed2:	00003797          	auipc	a5,0x3
200a6ed6:	f2d78793          	addi	a5,a5,-211 # 200a9dff <_ctype_+0x113>
200a6eda:	4772                	lw	a4,28(sp)
200a6edc:	c31c                	sw	a5,0(a4)
200a6ede:	40ba                	lw	ra,140(sp)
200a6ee0:	442a                	lw	s0,136(sp)
200a6ee2:	449a                	lw	s1,132(sp)
200a6ee4:	490a                	lw	s2,128(sp)
200a6ee6:	59f6                	lw	s3,124(sp)
200a6ee8:	5a66                	lw	s4,120(sp)
200a6eea:	5ad6                	lw	s5,116(sp)
200a6eec:	5b46                	lw	s6,112(sp)
200a6eee:	5c26                	lw	s8,104(sp)
200a6ef0:	5c96                	lw	s9,100(sp)
200a6ef2:	5d06                	lw	s10,96(sp)
200a6ef4:	4df6                	lw	s11,92(sp)
200a6ef6:	855e                	mv	a0,s7
200a6ef8:	5bb6                	lw	s7,108(sp)
200a6efa:	6149                	addi	sp,sp,144
200a6efc:	8082                	ret
200a6efe:	00092023          	sw	zero,0(s2)
200a6f02:	b745                	j	200a6ea2 <_dtoa_r+0x7c>
200a6f04:	4601                	li	a2,0
200a6f06:	4681                	li	a3,0
200a6f08:	8526                	mv	a0,s1
200a6f0a:	85d6                	mv	a1,s5
200a6f0c:	8ba6                	mv	s7,s1
200a6f0e:	d226                	sw	s1,36(sp)
200a6f10:	d056                	sw	s5,32(sp)
200a6f12:	9c5fd0ef          	jal	ra,200a48d6 <__eqdf2>
200a6f16:	e10d                	bnez	a0,200a6f38 <_dtoa_r+0x112>
200a6f18:	5732                	lw	a4,44(sp)
200a6f1a:	4785                	li	a5,1
200a6f1c:	c31c                	sw	a5,0(a4)
200a6f1e:	47f2                	lw	a5,28(sp)
200a6f20:	c799                	beqz	a5,200a6f2e <_dtoa_r+0x108>
200a6f22:	4772                	lw	a4,28(sp)
200a6f24:	00003797          	auipc	a5,0x3
200a6f28:	d3178793          	addi	a5,a5,-719 # 200a9c55 <__clz_tab+0x151>
200a6f2c:	c31c                	sw	a5,0(a4)
200a6f2e:	00003b97          	auipc	s7,0x3
200a6f32:	d26b8b93          	addi	s7,s7,-730 # 200a9c54 <__clz_tab+0x150>
200a6f36:	b765                	j	200a6ede <_dtoa_r+0xb8>
200a6f38:	4502                	lw	a0,0(sp)
200a6f3a:	00b8                	addi	a4,sp,72
200a6f3c:	00f4                	addi	a3,sp,76
200a6f3e:	8656                	mv	a2,s5
200a6f40:	85a6                	mv	a1,s1
200a6f42:	057010ef          	jal	ra,200a8798 <__d2b>
200a6f46:	014ad913          	srli	s2,s5,0x14
200a6f4a:	c22a                	sw	a0,4(sp)
200a6f4c:	7ff97913          	andi	s2,s2,2047
200a6f50:	49a6                	lw	s3,72(sp)
200a6f52:	10090e63          	beqz	s2,200a706e <_dtoa_r+0x248>
200a6f56:	5782                	lw	a5,32(sp)
200a6f58:	3ff00737          	lui	a4,0x3ff00
200a6f5c:	c0190913          	addi	s2,s2,-1023
200a6f60:	07b2                	slli	a5,a5,0xc
200a6f62:	83b1                	srli	a5,a5,0xc
200a6f64:	8fd9                	or	a5,a5,a4
200a6f66:	da02                	sw	zero,52(sp)
200a6f68:	0001b717          	auipc	a4,0x1b
200a6f6c:	cd070713          	addi	a4,a4,-816 # 200c1c38 <_impure_ptr+0x18>
200a6f70:	4310                	lw	a2,0(a4)
200a6f72:	4354                	lw	a3,4(a4)
200a6f74:	855e                	mv	a0,s7
200a6f76:	85be                	mv	a1,a5
200a6f78:	84cfe0ef          	jal	ra,200a4fc4 <__subdf3>
200a6f7c:	0001b797          	auipc	a5,0x1b
200a6f80:	cc478793          	addi	a5,a5,-828 # 200c1c40 <_impure_ptr+0x20>
200a6f84:	4390                	lw	a2,0(a5)
200a6f86:	43d4                	lw	a3,4(a5)
200a6f88:	b35fd0ef          	jal	ra,200a4abc <__muldf3>
200a6f8c:	0001b797          	auipc	a5,0x1b
200a6f90:	cbc78793          	addi	a5,a5,-836 # 200c1c48 <_impure_ptr+0x28>
200a6f94:	4390                	lw	a2,0(a5)
200a6f96:	43d4                	lw	a3,4(a5)
200a6f98:	ccbfc0ef          	jal	ra,200a3c62 <__adddf3>
200a6f9c:	8baa                	mv	s7,a0
200a6f9e:	854a                	mv	a0,s2
200a6fa0:	84ae                	mv	s1,a1
200a6fa2:	fe2fe0ef          	jal	ra,200a5784 <__floatsidf>
200a6fa6:	0001b797          	auipc	a5,0x1b
200a6faa:	caa78793          	addi	a5,a5,-854 # 200c1c50 <_impure_ptr+0x30>
200a6fae:	4390                	lw	a2,0(a5)
200a6fb0:	43d4                	lw	a3,4(a5)
200a6fb2:	b0bfd0ef          	jal	ra,200a4abc <__muldf3>
200a6fb6:	862a                	mv	a2,a0
200a6fb8:	86ae                	mv	a3,a1
200a6fba:	855e                	mv	a0,s7
200a6fbc:	85a6                	mv	a1,s1
200a6fbe:	ca5fc0ef          	jal	ra,200a3c62 <__adddf3>
200a6fc2:	8c2a                	mv	s8,a0
200a6fc4:	8bae                	mv	s7,a1
200a6fc6:	f5afe0ef          	jal	ra,200a5720 <__fixdfsi>
200a6fca:	84aa                	mv	s1,a0
200a6fcc:	4601                	li	a2,0
200a6fce:	4681                	li	a3,0
200a6fd0:	8562                	mv	a0,s8
200a6fd2:	85de                	mv	a1,s7
200a6fd4:	a2dfd0ef          	jal	ra,200a4a00 <__ledf2>
200a6fd8:	00055b63          	bgez	a0,200a6fee <_dtoa_r+0x1c8>
200a6fdc:	8526                	mv	a0,s1
200a6fde:	fa6fe0ef          	jal	ra,200a5784 <__floatsidf>
200a6fe2:	8662                	mv	a2,s8
200a6fe4:	86de                	mv	a3,s7
200a6fe6:	8f1fd0ef          	jal	ra,200a48d6 <__eqdf2>
200a6fea:	c111                	beqz	a0,200a6fee <_dtoa_r+0x1c8>
200a6fec:	14fd                	addi	s1,s1,-1
200a6fee:	4705                	li	a4,1
200a6ff0:	47d9                	li	a5,22
200a6ff2:	d43a                	sw	a4,40(sp)
200a6ff4:	0297e263          	bltu	a5,s1,200a7018 <_dtoa_r+0x1f2>
200a6ff8:	00003797          	auipc	a5,0x3
200a6ffc:	fa878793          	addi	a5,a5,-88 # 200a9fa0 <__mprec_tens>
200a7000:	20f4e7b3          	sh3add	a5,s1,a5
200a7004:	5512                	lw	a0,36(sp)
200a7006:	4390                	lw	a2,0(a5)
200a7008:	43d4                	lw	a3,4(a5)
200a700a:	5582                	lw	a1,32(sp)
200a700c:	9f5fd0ef          	jal	ra,200a4a00 <__ledf2>
200a7010:	00055363          	bgez	a0,200a7016 <_dtoa_r+0x1f0>
200a7014:	14fd                	addi	s1,s1,-1
200a7016:	d402                	sw	zero,40(sp)
200a7018:	412989b3          	sub	s3,s3,s2
200a701c:	fff98a13          	addi	s4,s3,-1
200a7020:	4c81                	li	s9,0
200a7022:	000a5663          	bgez	s4,200a702e <_dtoa_r+0x208>
200a7026:	4c85                	li	s9,1
200a7028:	413c8cb3          	sub	s9,s9,s3
200a702c:	4a01                	li	s4,0
200a702e:	0804c163          	bltz	s1,200a70b0 <_dtoa_r+0x28a>
200a7032:	9a26                	add	s4,s4,s1
200a7034:	cc26                	sw	s1,24(sp)
200a7036:	c802                	sw	zero,16(sp)
200a7038:	47a5                	li	a5,9
200a703a:	1087e863          	bltu	a5,s0,200a714a <_dtoa_r+0x324>
200a703e:	4795                	li	a5,5
200a7040:	0687df63          	bge	a5,s0,200a70be <_dtoa_r+0x298>
200a7044:	1471                	addi	s0,s0,-4
200a7046:	4711                	li	a4,4
200a7048:	0ae40063          	beq	s0,a4,200a70e8 <_dtoa_r+0x2c2>
200a704c:	0ef40963          	beq	s0,a5,200a713e <_dtoa_r+0x318>
200a7050:	4789                	li	a5,2
200a7052:	4901                	li	s2,0
200a7054:	0ef40363          	beq	s0,a5,200a713a <_dtoa_r+0x314>
200a7058:	440d                	li	s0,3
200a705a:	c602                	sw	zero,12(sp)
200a705c:	47d2                	lw	a5,20(sp)
200a705e:	97a6                	add	a5,a5,s1
200a7060:	00178c13          	addi	s8,a5,1
200a7064:	c43e                	sw	a5,8(sp)
200a7066:	4785                	li	a5,1
200a7068:	0afc67b3          	max	a5,s8,a5
200a706c:	a849                	j	200a70fe <_dtoa_r+0x2d8>
200a706e:	4936                	lw	s2,76(sp)
200a7070:	02000793          	li	a5,32
200a7074:	994e                	add	s2,s2,s3
200a7076:	43290713          	addi	a4,s2,1074
200a707a:	02e7d763          	bge	a5,a4,200a70a8 <_dtoa_r+0x282>
200a707e:	04000793          	li	a5,64
200a7082:	8f99                	sub	a5,a5,a4
200a7084:	41290713          	addi	a4,s2,1042
200a7088:	00fa97b3          	sll	a5,s5,a5
200a708c:	00e4d733          	srl	a4,s1,a4
200a7090:	00e7e533          	or	a0,a5,a4
200a7094:	f60fe0ef          	jal	ra,200a57f4 <__floatunsidf>
200a7098:	fe1007b7          	lui	a5,0xfe100
200a709c:	4705                	li	a4,1
200a709e:	8baa                	mv	s7,a0
200a70a0:	97ae                	add	a5,a5,a1
200a70a2:	197d                	addi	s2,s2,-1
200a70a4:	da3a                	sw	a4,52(sp)
200a70a6:	b5c9                	j	200a6f68 <_dtoa_r+0x142>
200a70a8:	8f99                	sub	a5,a5,a4
200a70aa:	00f49533          	sll	a0,s1,a5
200a70ae:	b7dd                	j	200a7094 <_dtoa_r+0x26e>
200a70b0:	409007b3          	neg	a5,s1
200a70b4:	409c8cb3          	sub	s9,s9,s1
200a70b8:	c83e                	sw	a5,16(sp)
200a70ba:	cc02                	sw	zero,24(sp)
200a70bc:	bfb5                	j	200a7038 <_dtoa_r+0x212>
200a70be:	4711                	li	a4,4
200a70c0:	06e40a63          	beq	s0,a4,200a7134 <_dtoa_r+0x30e>
200a70c4:	08f40163          	beq	s0,a5,200a7146 <_dtoa_r+0x320>
200a70c8:	4789                	li	a5,2
200a70ca:	06f40763          	beq	s0,a5,200a7138 <_dtoa_r+0x312>
200a70ce:	478d                	li	a5,3
200a70d0:	c602                	sw	zero,12(sp)
200a70d2:	4905                	li	s2,1
200a70d4:	f8f404e3          	beq	s0,a5,200a705c <_dtoa_r+0x236>
200a70d8:	4785                	li	a5,1
200a70da:	c63e                	sw	a5,12(sp)
200a70dc:	57fd                	li	a5,-1
200a70de:	c43e                	sw	a5,8(sp)
200a70e0:	5c7d                	li	s8,-1
200a70e2:	47c9                	li	a5,18
200a70e4:	ca02                	sw	zero,20(sp)
200a70e6:	a821                	j	200a70fe <_dtoa_r+0x2d8>
200a70e8:	4901                	li	s2,0
200a70ea:	4785                	li	a5,1
200a70ec:	c63e                	sw	a5,12(sp)
200a70ee:	47d2                	lw	a5,20(sp)
200a70f0:	06f04063          	bgtz	a5,200a7150 <_dtoa_r+0x32a>
200a70f4:	4785                	li	a5,1
200a70f6:	4705                	li	a4,1
200a70f8:	c43e                	sw	a5,8(sp)
200a70fa:	4c05                	li	s8,1
200a70fc:	ca3a                	sw	a4,20(sp)
200a70fe:	4702                	lw	a4,0(sp)
200a7100:	4581                	li	a1,0
200a7102:	5354                	lw	a3,36(a4)
200a7104:	4711                	li	a4,4
200a7106:	01470613          	addi	a2,a4,20
200a710a:	04c7f763          	bgeu	a5,a2,200a7158 <_dtoa_r+0x332>
200a710e:	4502                	lw	a0,0(sp)
200a7110:	c2cc                	sw	a1,4(a3)
200a7112:	73b000ef          	jal	ra,200a804c <_Balloc>
200a7116:	8baa                	mv	s7,a0
200a7118:	e139                	bnez	a0,200a715e <_dtoa_r+0x338>
200a711a:	00003697          	auipc	a3,0x3
200a711e:	ce668693          	addi	a3,a3,-794 # 200a9e00 <_ctype_+0x114>
200a7122:	4601                	li	a2,0
200a7124:	1aa00593          	li	a1,426
200a7128:	00003517          	auipc	a0,0x3
200a712c:	cec50513          	addi	a0,a0,-788 # 200a9e14 <_ctype_+0x128>
200a7130:	87dfe0ef          	jal	ra,200a59ac <__assert_func>
200a7134:	4905                	li	s2,1
200a7136:	bf55                	j	200a70ea <_dtoa_r+0x2c4>
200a7138:	4905                	li	s2,1
200a713a:	c602                	sw	zero,12(sp)
200a713c:	bf4d                	j	200a70ee <_dtoa_r+0x2c8>
200a713e:	4901                	li	s2,0
200a7140:	4785                	li	a5,1
200a7142:	c63e                	sw	a5,12(sp)
200a7144:	bf21                	j	200a705c <_dtoa_r+0x236>
200a7146:	4905                	li	s2,1
200a7148:	bfe5                	j	200a7140 <_dtoa_r+0x31a>
200a714a:	4905                	li	s2,1
200a714c:	4401                	li	s0,0
200a714e:	b769                	j	200a70d8 <_dtoa_r+0x2b2>
200a7150:	47d2                	lw	a5,20(sp)
200a7152:	c43e                	sw	a5,8(sp)
200a7154:	8c3e                	mv	s8,a5
200a7156:	b765                	j	200a70fe <_dtoa_r+0x2d8>
200a7158:	0585                	addi	a1,a1,1
200a715a:	0706                	slli	a4,a4,0x1
200a715c:	b76d                	j	200a7106 <_dtoa_r+0x2e0>
200a715e:	4782                	lw	a5,0(sp)
200a7160:	53dc                	lw	a5,36(a5)
200a7162:	c388                	sw	a0,0(a5)
200a7164:	47b9                	li	a5,14
200a7166:	0f87ec63          	bltu	a5,s8,200a725e <_dtoa_r+0x438>
200a716a:	0e090a63          	beqz	s2,200a725e <_dtoa_r+0x438>
200a716e:	08905463          	blez	s1,200a71f6 <_dtoa_r+0x3d0>
200a7172:	00f4f793          	andi	a5,s1,15
200a7176:	00003717          	auipc	a4,0x3
200a717a:	e2a70713          	addi	a4,a4,-470 # 200a9fa0 <__mprec_tens>
200a717e:	20e7e7b3          	sh3add	a5,a5,a4
200a7182:	4044d993          	srai	s3,s1,0x4
200a7186:	0007ad83          	lw	s11,0(a5) # fe100000 <_eusrstack+0xde000000>
200a718a:	0047ad03          	lw	s10,4(a5)
200a718e:	0109f793          	andi	a5,s3,16
200a7192:	4909                	li	s2,2
200a7194:	c385                	beqz	a5,200a71b4 <_dtoa_r+0x38e>
200a7196:	00003797          	auipc	a5,0x3
200a719a:	de278793          	addi	a5,a5,-542 # 200a9f78 <__mprec_bigtens>
200a719e:	5390                	lw	a2,32(a5)
200a71a0:	53d4                	lw	a3,36(a5)
200a71a2:	5512                	lw	a0,36(sp)
200a71a4:	5582                	lw	a1,32(sp)
200a71a6:	00f9f993          	andi	s3,s3,15
200a71aa:	490d                	li	s2,3
200a71ac:	9bcfd0ef          	jal	ra,200a4368 <__divdf3>
200a71b0:	8b2a                	mv	s6,a0
200a71b2:	8aae                	mv	s5,a1
200a71b4:	00003797          	auipc	a5,0x3
200a71b8:	dc478793          	addi	a5,a5,-572 # 200a9f78 <__mprec_bigtens>
200a71bc:	00099b63          	bnez	s3,200a71d2 <_dtoa_r+0x3ac>
200a71c0:	866e                	mv	a2,s11
200a71c2:	86ea                	mv	a3,s10
200a71c4:	855a                	mv	a0,s6
200a71c6:	85d6                	mv	a1,s5
200a71c8:	9a0fd0ef          	jal	ra,200a4368 <__divdf3>
200a71cc:	8b2a                	mv	s6,a0
200a71ce:	8aae                	mv	s5,a1
200a71d0:	a08d                	j	200a7232 <_dtoa_r+0x40c>
200a71d2:	0019f713          	andi	a4,s3,1
200a71d6:	cf01                	beqz	a4,200a71ee <_dtoa_r+0x3c8>
200a71d8:	4390                	lw	a2,0(a5)
200a71da:	43d4                	lw	a3,4(a5)
200a71dc:	856e                	mv	a0,s11
200a71de:	85ea                	mv	a1,s10
200a71e0:	d83e                	sw	a5,48(sp)
200a71e2:	8dbfd0ef          	jal	ra,200a4abc <__muldf3>
200a71e6:	57c2                	lw	a5,48(sp)
200a71e8:	0905                	addi	s2,s2,1
200a71ea:	8daa                	mv	s11,a0
200a71ec:	8d2e                	mv	s10,a1
200a71ee:	4019d993          	srai	s3,s3,0x1
200a71f2:	07a1                	addi	a5,a5,8
200a71f4:	b7e1                	j	200a71bc <_dtoa_r+0x396>
200a71f6:	4909                	li	s2,2
200a71f8:	cc8d                	beqz	s1,200a7232 <_dtoa_r+0x40c>
200a71fa:	409009b3          	neg	s3,s1
200a71fe:	00f9f793          	andi	a5,s3,15
200a7202:	00003717          	auipc	a4,0x3
200a7206:	d9e70713          	addi	a4,a4,-610 # 200a9fa0 <__mprec_tens>
200a720a:	20e7e7b3          	sh3add	a5,a5,a4
200a720e:	5512                	lw	a0,36(sp)
200a7210:	4390                	lw	a2,0(a5)
200a7212:	43d4                	lw	a3,4(a5)
200a7214:	5582                	lw	a1,32(sp)
200a7216:	4049d993          	srai	s3,s3,0x4
200a721a:	00003d17          	auipc	s10,0x3
200a721e:	d5ed0d13          	addi	s10,s10,-674 # 200a9f78 <__mprec_bigtens>
200a7222:	89bfd0ef          	jal	ra,200a4abc <__muldf3>
200a7226:	8b2a                	mv	s6,a0
200a7228:	8aae                	mv	s5,a1
200a722a:	4781                	li	a5,0
200a722c:	1a099263          	bnez	s3,200a73d0 <_dtoa_r+0x5aa>
200a7230:	ffd1                	bnez	a5,200a71cc <_dtoa_r+0x3a6>
200a7232:	57a2                	lw	a5,40(sp)
200a7234:	28078163          	beqz	a5,200a74b6 <_dtoa_r+0x690>
200a7238:	0001b797          	auipc	a5,0x1b
200a723c:	a2078793          	addi	a5,a5,-1504 # 200c1c58 <_impure_ptr+0x38>
200a7240:	4390                	lw	a2,0(a5)
200a7242:	43d4                	lw	a3,4(a5)
200a7244:	855a                	mv	a0,s6
200a7246:	85d6                	mv	a1,s5
200a7248:	fb8fd0ef          	jal	ra,200a4a00 <__ledf2>
200a724c:	26055563          	bgez	a0,200a74b6 <_dtoa_r+0x690>
200a7250:	260c0663          	beqz	s8,200a74bc <_dtoa_r+0x696>
200a7254:	47a2                	lw	a5,8(sp)
200a7256:	18f04c63          	bgtz	a5,200a73ee <_dtoa_r+0x5c8>
200a725a:	5b12                	lw	s6,36(sp)
200a725c:	5a82                	lw	s5,32(sp)
200a725e:	47b6                	lw	a5,76(sp)
200a7260:	0007c563          	bltz	a5,200a726a <_dtoa_r+0x444>
200a7264:	4739                	li	a4,14
200a7266:	4a975b63          	bge	a4,s1,200a771c <_dtoa_r+0x8f6>
200a726a:	4732                	lw	a4,12(sp)
200a726c:	50071563          	bnez	a4,200a7776 <_dtoa_r+0x950>
200a7270:	49c2                	lw	s3,16(sp)
200a7272:	8de6                	mv	s11,s9
200a7274:	4901                	li	s2,0
200a7276:	000d8c63          	beqz	s11,200a728e <_dtoa_r+0x468>
200a727a:	01405a63          	blez	s4,200a728e <_dtoa_r+0x468>
200a727e:	0b4dc7b3          	min	a5,s11,s4
200a7282:	40fc8cb3          	sub	s9,s9,a5
200a7286:	40fd8db3          	sub	s11,s11,a5
200a728a:	40fa0a33          	sub	s4,s4,a5
200a728e:	47c2                	lw	a5,16(sp)
200a7290:	c3b9                	beqz	a5,200a72d6 <_dtoa_r+0x4b0>
200a7292:	47b2                	lw	a5,12(sp)
200a7294:	58078663          	beqz	a5,200a7820 <_dtoa_r+0x9fa>
200a7298:	4d12                	lw	s10,4(sp)
200a729a:	02098863          	beqz	s3,200a72ca <_dtoa_r+0x4a4>
200a729e:	4502                	lw	a0,0(sp)
200a72a0:	85ca                	mv	a1,s2
200a72a2:	864e                	mv	a2,s3
200a72a4:	198010ef          	jal	ra,200a843c <__pow5mult>
200a72a8:	85aa                	mv	a1,a0
200a72aa:	4612                	lw	a2,4(sp)
200a72ac:	892a                	mv	s2,a0
200a72ae:	4502                	lw	a0,0(sp)
200a72b0:	016010ef          	jal	ra,200a82c6 <__multiply>
200a72b4:	8d2a                	mv	s10,a0
200a72b6:	4592                	lw	a1,4(sp)
200a72b8:	4502                	lw	a0,0(sp)
200a72ba:	621000ef          	jal	ra,200a80da <_Bfree>
200a72be:	47c2                	lw	a5,16(sp)
200a72c0:	c26a                	sw	s10,4(sp)
200a72c2:	413787b3          	sub	a5,a5,s3
200a72c6:	c83e                	sw	a5,16(sp)
200a72c8:	c799                	beqz	a5,200a72d6 <_dtoa_r+0x4b0>
200a72ca:	4642                	lw	a2,16(sp)
200a72cc:	85ea                	mv	a1,s10
200a72ce:	4502                	lw	a0,0(sp)
200a72d0:	16c010ef          	jal	ra,200a843c <__pow5mult>
200a72d4:	c22a                	sw	a0,4(sp)
200a72d6:	4502                	lw	a0,0(sp)
200a72d8:	4585                	li	a1,1
200a72da:	7b5000ef          	jal	ra,200a828e <__i2b>
200a72de:	47e2                	lw	a5,24(sp)
200a72e0:	89aa                	mv	s3,a0
200a72e2:	54078263          	beqz	a5,200a7826 <_dtoa_r+0xa00>
200a72e6:	85aa                	mv	a1,a0
200a72e8:	4502                	lw	a0,0(sp)
200a72ea:	863e                	mv	a2,a5
200a72ec:	4d01                	li	s10,0
200a72ee:	14e010ef          	jal	ra,200a843c <__pow5mult>
200a72f2:	4785                	li	a5,1
200a72f4:	89aa                	mv	s3,a0
200a72f6:	0087c463          	blt	a5,s0,200a72fe <_dtoa_r+0x4d8>
200a72fa:	520b0b63          	beqz	s6,200a7830 <_dtoa_r+0xa0a>
200a72fe:	0109a783          	lw	a5,16(s3)
200a7302:	2137c7b3          	sh2add	a5,a5,s3
200a7306:	4b88                	lw	a0,16(a5)
200a7308:	6d1000ef          	jal	ra,200a81d8 <__hi0bits>
200a730c:	02000793          	li	a5,32
200a7310:	40a78533          	sub	a0,a5,a0
200a7314:	cc6a                	sw	s10,24(sp)
200a7316:	9552                	add	a0,a0,s4
200a7318:	897d                	andi	a0,a0,31
200a731a:	54050263          	beqz	a0,200a785e <_dtoa_r+0xa38>
200a731e:	02000793          	li	a5,32
200a7322:	8f89                	sub	a5,a5,a0
200a7324:	4711                	li	a4,4
200a7326:	52f75863          	bge	a4,a5,200a7856 <_dtoa_r+0xa30>
200a732a:	47f1                	li	a5,28
200a732c:	8f89                	sub	a5,a5,a0
200a732e:	9cbe                	add	s9,s9,a5
200a7330:	9dbe                	add	s11,s11,a5
200a7332:	9a3e                	add	s4,s4,a5
200a7334:	01905863          	blez	s9,200a7344 <_dtoa_r+0x51e>
200a7338:	4592                	lw	a1,4(sp)
200a733a:	4502                	lw	a0,0(sp)
200a733c:	8666                	mv	a2,s9
200a733e:	1bc010ef          	jal	ra,200a84fa <__lshift>
200a7342:	c22a                	sw	a0,4(sp)
200a7344:	01405863          	blez	s4,200a7354 <_dtoa_r+0x52e>
200a7348:	4502                	lw	a0,0(sp)
200a734a:	85ce                	mv	a1,s3
200a734c:	8652                	mv	a2,s4
200a734e:	1ac010ef          	jal	ra,200a84fa <__lshift>
200a7352:	89aa                	mv	s3,a0
200a7354:	57a2                	lw	a5,40(sp)
200a7356:	50078d63          	beqz	a5,200a7870 <_dtoa_r+0xa4a>
200a735a:	4512                	lw	a0,4(sp)
200a735c:	85ce                	mv	a1,s3
200a735e:	29e010ef          	jal	ra,200a85fc <__mcmp>
200a7362:	50055763          	bgez	a0,200a7870 <_dtoa_r+0xa4a>
200a7366:	4592                	lw	a1,4(sp)
200a7368:	4502                	lw	a0,0(sp)
200a736a:	4681                	li	a3,0
200a736c:	4629                	li	a2,10
200a736e:	5b1000ef          	jal	ra,200a811e <__multadd>
200a7372:	47b2                	lw	a5,12(sp)
200a7374:	c22a                	sw	a0,4(sp)
200a7376:	fff48d13          	addi	s10,s1,-1
200a737a:	4e078463          	beqz	a5,200a7862 <_dtoa_r+0xa3c>
200a737e:	4502                	lw	a0,0(sp)
200a7380:	85ca                	mv	a1,s2
200a7382:	4681                	li	a3,0
200a7384:	4629                	li	a2,10
200a7386:	599000ef          	jal	ra,200a811e <__multadd>
200a738a:	47a2                	lw	a5,8(sp)
200a738c:	892a                	mv	s2,a0
200a738e:	00f04563          	bgtz	a5,200a7398 <_dtoa_r+0x572>
200a7392:	4789                	li	a5,2
200a7394:	4e87c563          	blt	a5,s0,200a787e <_dtoa_r+0xa58>
200a7398:	01b05863          	blez	s11,200a73a8 <_dtoa_r+0x582>
200a739c:	4502                	lw	a0,0(sp)
200a739e:	85ca                	mv	a1,s2
200a73a0:	866e                	mv	a2,s11
200a73a2:	158010ef          	jal	ra,200a84fa <__lshift>
200a73a6:	892a                	mv	s2,a0
200a73a8:	47e2                	lw	a5,24(sp)
200a73aa:	854a                	mv	a0,s2
200a73ac:	54078b63          	beqz	a5,200a7902 <_dtoa_r+0xadc>
200a73b0:	00492583          	lw	a1,4(s2)
200a73b4:	4502                	lw	a0,0(sp)
200a73b6:	497000ef          	jal	ra,200a804c <_Balloc>
200a73ba:	84aa                	mv	s1,a0
200a73bc:	52051563          	bnez	a0,200a78e6 <_dtoa_r+0xac0>
200a73c0:	00003697          	auipc	a3,0x3
200a73c4:	a4068693          	addi	a3,a3,-1472 # 200a9e00 <_ctype_+0x114>
200a73c8:	4601                	li	a2,0
200a73ca:	2ea00593          	li	a1,746
200a73ce:	bba9                	j	200a7128 <_dtoa_r+0x302>
200a73d0:	0019f713          	andi	a4,s3,1
200a73d4:	cb09                	beqz	a4,200a73e6 <_dtoa_r+0x5c0>
200a73d6:	000d2603          	lw	a2,0(s10)
200a73da:	004d2683          	lw	a3,4(s10)
200a73de:	0905                	addi	s2,s2,1
200a73e0:	edcfd0ef          	jal	ra,200a4abc <__muldf3>
200a73e4:	4785                	li	a5,1
200a73e6:	4019d993          	srai	s3,s3,0x1
200a73ea:	0d21                	addi	s10,s10,8
200a73ec:	b581                	j	200a722c <_dtoa_r+0x406>
200a73ee:	0001b797          	auipc	a5,0x1b
200a73f2:	87278793          	addi	a5,a5,-1934 # 200c1c60 <_impure_ptr+0x40>
200a73f6:	4390                	lw	a2,0(a5)
200a73f8:	43d4                	lw	a3,4(a5)
200a73fa:	855a                	mv	a0,s6
200a73fc:	85d6                	mv	a1,s5
200a73fe:	ebefd0ef          	jal	ra,200a4abc <__muldf3>
200a7402:	4722                	lw	a4,8(sp)
200a7404:	fff48d13          	addi	s10,s1,-1
200a7408:	8b2a                	mv	s6,a0
200a740a:	8aae                	mv	s5,a1
200a740c:	0905                	addi	s2,s2,1
200a740e:	854a                	mv	a0,s2
200a7410:	de3a                	sw	a4,60(sp)
200a7412:	8dd6                	mv	s11,s5
200a7414:	d85a                	sw	s6,48(sp)
200a7416:	b6efe0ef          	jal	ra,200a5784 <__floatsidf>
200a741a:	865a                	mv	a2,s6
200a741c:	86ee                	mv	a3,s11
200a741e:	dc5a                	sw	s6,56(sp)
200a7420:	e9cfd0ef          	jal	ra,200a4abc <__muldf3>
200a7424:	0001b697          	auipc	a3,0x1b
200a7428:	84468693          	addi	a3,a3,-1980 # 200c1c68 <_impure_ptr+0x48>
200a742c:	4290                	lw	a2,0(a3)
200a742e:	42d4                	lw	a3,4(a3)
200a7430:	8ada                	mv	s5,s6
200a7432:	89ee                	mv	s3,s11
200a7434:	82ffc0ef          	jal	ra,200a3c62 <__adddf3>
200a7438:	5772                	lw	a4,60(sp)
200a743a:	fcc00837          	lui	a6,0xfcc00
200a743e:	88aa                	mv	a7,a0
200a7440:	00b80b33          	add	s6,a6,a1
200a7444:	ef3d                	bnez	a4,200a74c2 <_dtoa_r+0x69c>
200a7446:	0001b717          	auipc	a4,0x1b
200a744a:	82a70713          	addi	a4,a4,-2006 # 200c1c70 <_impure_ptr+0x50>
200a744e:	4310                	lw	a2,0(a4)
200a7450:	4354                	lw	a3,4(a4)
200a7452:	d82a                	sw	a0,48(sp)
200a7454:	85ee                	mv	a1,s11
200a7456:	8556                	mv	a0,s5
200a7458:	b6dfd0ef          	jal	ra,200a4fc4 <__subdf3>
200a745c:	58c2                	lw	a7,48(sp)
200a745e:	86da                	mv	a3,s6
200a7460:	89aa                	mv	s3,a0
200a7462:	8646                	mv	a2,a7
200a7464:	892e                	mv	s2,a1
200a7466:	cdcfd0ef          	jal	ra,200a4942 <__gedf2>
200a746a:	2ea04b63          	bgtz	a0,200a7760 <_dtoa_r+0x93a>
200a746e:	58c2                	lw	a7,48(sp)
200a7470:	69fb1813          	binvi	a6,s6,0x1f
200a7474:	854e                	mv	a0,s3
200a7476:	8646                	mv	a2,a7
200a7478:	86c2                	mv	a3,a6
200a747a:	85ca                	mv	a1,s2
200a747c:	d84fd0ef          	jal	ra,200a4a00 <__ledf2>
200a7480:	dc055de3          	bgez	a0,200a725a <_dtoa_r+0x434>
200a7484:	4981                	li	s3,0
200a7486:	4901                	li	s2,0
200a7488:	47d2                	lw	a5,20(sp)
200a748a:	8dde                	mv	s11,s7
200a748c:	fff7cd13          	not	s10,a5
200a7490:	4481                	li	s1,0
200a7492:	4502                	lw	a0,0(sp)
200a7494:	85ce                	mv	a1,s3
200a7496:	445000ef          	jal	ra,200a80da <_Bfree>
200a749a:	18090f63          	beqz	s2,200a7638 <_dtoa_r+0x812>
200a749e:	c499                	beqz	s1,200a74ac <_dtoa_r+0x686>
200a74a0:	01248663          	beq	s1,s2,200a74ac <_dtoa_r+0x686>
200a74a4:	4502                	lw	a0,0(sp)
200a74a6:	85a6                	mv	a1,s1
200a74a8:	433000ef          	jal	ra,200a80da <_Bfree>
200a74ac:	4502                	lw	a0,0(sp)
200a74ae:	85ca                	mv	a1,s2
200a74b0:	42b000ef          	jal	ra,200a80da <_Bfree>
200a74b4:	a251                	j	200a7638 <_dtoa_r+0x812>
200a74b6:	8d26                	mv	s10,s1
200a74b8:	8762                	mv	a4,s8
200a74ba:	bf91                	j	200a740e <_dtoa_r+0x5e8>
200a74bc:	8d26                	mv	s10,s1
200a74be:	4701                	li	a4,0
200a74c0:	b7b9                	j	200a740e <_dtoa_r+0x5e8>
200a74c2:	00003797          	auipc	a5,0x3
200a74c6:	ade78793          	addi	a5,a5,-1314 # 200a9fa0 <__mprec_tens>
200a74ca:	20f767b3          	sh3add	a5,a4,a5
200a74ce:	8daa                	mv	s11,a0
200a74d0:	ffc7a583          	lw	a1,-4(a5)
200a74d4:	ff87a503          	lw	a0,-8(a5)
200a74d8:	00eb87b3          	add	a5,s7,a4
200a74dc:	d83e                	sw	a5,48(sp)
200a74de:	47b2                	lw	a5,12(sp)
200a74e0:	cfcd                	beqz	a5,200a759a <_dtoa_r+0x774>
200a74e2:	0001a797          	auipc	a5,0x1a
200a74e6:	79678793          	addi	a5,a5,1942 # 200c1c78 <_impure_ptr+0x58>
200a74ea:	862a                	mv	a2,a0
200a74ec:	86ae                	mv	a3,a1
200a74ee:	4388                	lw	a0,0(a5)
200a74f0:	43cc                	lw	a1,4(a5)
200a74f2:	e77fc0ef          	jal	ra,200a4368 <__divdf3>
200a74f6:	866e                	mv	a2,s11
200a74f8:	86da                	mv	a3,s6
200a74fa:	acbfd0ef          	jal	ra,200a4fc4 <__subdf3>
200a74fe:	8b2a                	mv	s6,a0
200a7500:	892e                	mv	s2,a1
200a7502:	8dde                	mv	s11,s7
200a7504:	85ce                	mv	a1,s3
200a7506:	8556                	mv	a0,s5
200a7508:	a18fe0ef          	jal	ra,200a5720 <__fixdfsi>
200a750c:	dc2a                	sw	a0,56(sp)
200a750e:	a76fe0ef          	jal	ra,200a5784 <__floatsidf>
200a7512:	862a                	mv	a2,a0
200a7514:	86ae                	mv	a3,a1
200a7516:	8556                	mv	a0,s5
200a7518:	85ce                	mv	a1,s3
200a751a:	aabfd0ef          	jal	ra,200a4fc4 <__subdf3>
200a751e:	5762                	lw	a4,56(sp)
200a7520:	0d85                	addi	s11,s11,1
200a7522:	8aaa                	mv	s5,a0
200a7524:	03070713          	addi	a4,a4,48
200a7528:	89ae                	mv	s3,a1
200a752a:	862a                	mv	a2,a0
200a752c:	86ae                	mv	a3,a1
200a752e:	feed8fa3          	sb	a4,-1(s11)
200a7532:	855a                	mv	a0,s6
200a7534:	85ca                	mv	a1,s2
200a7536:	c0cfd0ef          	jal	ra,200a4942 <__gedf2>
200a753a:	0ea04f63          	bgtz	a0,200a7638 <_dtoa_r+0x812>
200a753e:	0001a797          	auipc	a5,0x1a
200a7542:	71a78793          	addi	a5,a5,1818 # 200c1c58 <_impure_ptr+0x38>
200a7546:	4388                	lw	a0,0(a5)
200a7548:	43cc                	lw	a1,4(a5)
200a754a:	8656                	mv	a2,s5
200a754c:	86ce                	mv	a3,s3
200a754e:	a77fd0ef          	jal	ra,200a4fc4 <__subdf3>
200a7552:	862a                	mv	a2,a0
200a7554:	86ae                	mv	a3,a1
200a7556:	855a                	mv	a0,s6
200a7558:	85ca                	mv	a1,s2
200a755a:	be8fd0ef          	jal	ra,200a4942 <__gedf2>
200a755e:	24a04263          	bgtz	a0,200a77a2 <_dtoa_r+0x97c>
200a7562:	57c2                	lw	a5,48(sp)
200a7564:	20fd8163          	beq	s11,a5,200a7766 <_dtoa_r+0x940>
200a7568:	0001a797          	auipc	a5,0x1a
200a756c:	6f878793          	addi	a5,a5,1784 # 200c1c60 <_impure_ptr+0x40>
200a7570:	4390                	lw	a2,0(a5)
200a7572:	43d4                	lw	a3,4(a5)
200a7574:	855a                	mv	a0,s6
200a7576:	85ca                	mv	a1,s2
200a7578:	d44fd0ef          	jal	ra,200a4abc <__muldf3>
200a757c:	0001a797          	auipc	a5,0x1a
200a7580:	6e478793          	addi	a5,a5,1764 # 200c1c60 <_impure_ptr+0x40>
200a7584:	4390                	lw	a2,0(a5)
200a7586:	43d4                	lw	a3,4(a5)
200a7588:	8b2a                	mv	s6,a0
200a758a:	892e                	mv	s2,a1
200a758c:	8556                	mv	a0,s5
200a758e:	85ce                	mv	a1,s3
200a7590:	d2cfd0ef          	jal	ra,200a4abc <__muldf3>
200a7594:	8aaa                	mv	s5,a0
200a7596:	89ae                	mv	s3,a1
200a7598:	b7b5                	j	200a7504 <_dtoa_r+0x6de>
200a759a:	86da                	mv	a3,s6
200a759c:	8646                	mv	a2,a7
200a759e:	d1efd0ef          	jal	ra,200a4abc <__muldf3>
200a75a2:	57c2                	lw	a5,48(sp)
200a75a4:	dc2a                	sw	a0,56(sp)
200a75a6:	8b2e                	mv	s6,a1
200a75a8:	da3e                	sw	a5,52(sp)
200a75aa:	8dde                	mv	s11,s7
200a75ac:	85ce                	mv	a1,s3
200a75ae:	8556                	mv	a0,s5
200a75b0:	970fe0ef          	jal	ra,200a5720 <__fixdfsi>
200a75b4:	de2a                	sw	a0,60(sp)
200a75b6:	9cefe0ef          	jal	ra,200a5784 <__floatsidf>
200a75ba:	862a                	mv	a2,a0
200a75bc:	86ae                	mv	a3,a1
200a75be:	8556                	mv	a0,s5
200a75c0:	85ce                	mv	a1,s3
200a75c2:	a03fd0ef          	jal	ra,200a4fc4 <__subdf3>
200a75c6:	5772                	lw	a4,60(sp)
200a75c8:	57c2                	lw	a5,48(sp)
200a75ca:	0d85                	addi	s11,s11,1
200a75cc:	03070713          	addi	a4,a4,48
200a75d0:	feed8fa3          	sb	a4,-1(s11)
200a75d4:	89aa                	mv	s3,a0
200a75d6:	892e                	mv	s2,a1
200a75d8:	06fd9263          	bne	s11,a5,200a763c <_dtoa_r+0x816>
200a75dc:	0001aa97          	auipc	s5,0x1a
200a75e0:	69ca8a93          	addi	s5,s5,1692 # 200c1c78 <_impure_ptr+0x58>
200a75e4:	000aa603          	lw	a2,0(s5)
200a75e8:	004aa683          	lw	a3,4(s5)
200a75ec:	5562                	lw	a0,56(sp)
200a75ee:	85da                	mv	a1,s6
200a75f0:	e72fc0ef          	jal	ra,200a3c62 <__adddf3>
200a75f4:	862a                	mv	a2,a0
200a75f6:	86ae                	mv	a3,a1
200a75f8:	854e                	mv	a0,s3
200a75fa:	85ca                	mv	a1,s2
200a75fc:	b46fd0ef          	jal	ra,200a4942 <__gedf2>
200a7600:	1aa04163          	bgtz	a0,200a77a2 <_dtoa_r+0x97c>
200a7604:	5662                	lw	a2,56(sp)
200a7606:	000aa503          	lw	a0,0(s5)
200a760a:	004aa583          	lw	a1,4(s5)
200a760e:	86da                	mv	a3,s6
200a7610:	9b5fd0ef          	jal	ra,200a4fc4 <__subdf3>
200a7614:	862a                	mv	a2,a0
200a7616:	86ae                	mv	a3,a1
200a7618:	854e                	mv	a0,s3
200a761a:	85ca                	mv	a1,s2
200a761c:	be4fd0ef          	jal	ra,200a4a00 <__ledf2>
200a7620:	02055963          	bgez	a0,200a7652 <_dtoa_r+0x82c>
200a7624:	03000713          	li	a4,48
200a7628:	5dd2                	lw	s11,52(sp)
200a762a:	fffdc683          	lbu	a3,-1(s11)
200a762e:	fffd8793          	addi	a5,s11,-1
200a7632:	da3e                	sw	a5,52(sp)
200a7634:	fee68ae3          	beq	a3,a4,200a7628 <_dtoa_r+0x802>
200a7638:	84ea                	mv	s1,s10
200a763a:	a0c9                	j	200a76fc <_dtoa_r+0x8d6>
200a763c:	0001a797          	auipc	a5,0x1a
200a7640:	62478793          	addi	a5,a5,1572 # 200c1c60 <_impure_ptr+0x40>
200a7644:	4390                	lw	a2,0(a5)
200a7646:	43d4                	lw	a3,4(a5)
200a7648:	c74fd0ef          	jal	ra,200a4abc <__muldf3>
200a764c:	8aaa                	mv	s5,a0
200a764e:	89ae                	mv	s3,a1
200a7650:	bfb1                	j	200a75ac <_dtoa_r+0x786>
200a7652:	47b6                	lw	a5,76(sp)
200a7654:	5b12                	lw	s6,36(sp)
200a7656:	5a82                	lw	s5,32(sp)
200a7658:	c007cce3          	bltz	a5,200a7270 <_dtoa_r+0x44a>
200a765c:	47b9                	li	a5,14
200a765e:	c097c9e3          	blt	a5,s1,200a7270 <_dtoa_r+0x44a>
200a7662:	00003797          	auipc	a5,0x3
200a7666:	93e78793          	addi	a5,a5,-1730 # 200a9fa0 <__mprec_tens>
200a766a:	20f4e7b3          	sh3add	a5,s1,a5
200a766e:	0007a903          	lw	s2,0(a5)
200a7672:	0047a983          	lw	s3,4(a5)
200a7676:	47d2                	lw	a5,20(sp)
200a7678:	0007d463          	bgez	a5,200a7680 <_dtoa_r+0x85a>
200a767c:	0c0c0163          	beqz	s8,200a773e <_dtoa_r+0x918>
200a7680:	845a                	mv	s0,s6
200a7682:	8d56                	mv	s10,s5
200a7684:	001b8b13          	addi	s6,s7,1
200a7688:	9c5e                	add	s8,s8,s7
200a768a:	0001ac97          	auipc	s9,0x1a
200a768e:	5d6c8c93          	addi	s9,s9,1494 # 200c1c60 <_impure_ptr+0x40>
200a7692:	864a                	mv	a2,s2
200a7694:	86ce                	mv	a3,s3
200a7696:	8522                	mv	a0,s0
200a7698:	85ea                	mv	a1,s10
200a769a:	ccffc0ef          	jal	ra,200a4368 <__divdf3>
200a769e:	882fe0ef          	jal	ra,200a5720 <__fixdfsi>
200a76a2:	8aaa                	mv	s5,a0
200a76a4:	8e0fe0ef          	jal	ra,200a5784 <__floatsidf>
200a76a8:	864a                	mv	a2,s2
200a76aa:	86ce                	mv	a3,s3
200a76ac:	c10fd0ef          	jal	ra,200a4abc <__muldf3>
200a76b0:	86ae                	mv	a3,a1
200a76b2:	862a                	mv	a2,a0
200a76b4:	85ea                	mv	a1,s10
200a76b6:	8522                	mv	a0,s0
200a76b8:	90dfd0ef          	jal	ra,200a4fc4 <__subdf3>
200a76bc:	030a8693          	addi	a3,s5,48
200a76c0:	fedb0fa3          	sb	a3,-1(s6)
200a76c4:	8dda                	mv	s11,s6
200a76c6:	116c1263          	bne	s8,s6,200a77ca <_dtoa_r+0x9a4>
200a76ca:	862a                	mv	a2,a0
200a76cc:	86ae                	mv	a3,a1
200a76ce:	d94fc0ef          	jal	ra,200a3c62 <__adddf3>
200a76d2:	8c2a                	mv	s8,a0
200a76d4:	8b2e                	mv	s6,a1
200a76d6:	862a                	mv	a2,a0
200a76d8:	86ae                	mv	a3,a1
200a76da:	854a                	mv	a0,s2
200a76dc:	85ce                	mv	a1,s3
200a76de:	b22fd0ef          	jal	ra,200a4a00 <__ledf2>
200a76e2:	0a054f63          	bltz	a0,200a77a0 <_dtoa_r+0x97a>
200a76e6:	8662                	mv	a2,s8
200a76e8:	86da                	mv	a3,s6
200a76ea:	854a                	mv	a0,s2
200a76ec:	85ce                	mv	a1,s3
200a76ee:	9e8fd0ef          	jal	ra,200a48d6 <__eqdf2>
200a76f2:	e509                	bnez	a0,200a76fc <_dtoa_r+0x8d6>
200a76f4:	001afa93          	andi	s5,s5,1
200a76f8:	0a0a9463          	bnez	s5,200a77a0 <_dtoa_r+0x97a>
200a76fc:	4592                	lw	a1,4(sp)
200a76fe:	4502                	lw	a0,0(sp)
200a7700:	0485                	addi	s1,s1,1
200a7702:	1d9000ef          	jal	ra,200a80da <_Bfree>
200a7706:	57b2                	lw	a5,44(sp)
200a7708:	000d8023          	sb	zero,0(s11)
200a770c:	c384                	sw	s1,0(a5)
200a770e:	47f2                	lw	a5,28(sp)
200a7710:	fc078763          	beqz	a5,200a6ede <_dtoa_r+0xb8>
200a7714:	01b7a023          	sw	s11,0(a5)
200a7718:	fc6ff06f          	j	200a6ede <_dtoa_r+0xb8>
200a771c:	00003797          	auipc	a5,0x3
200a7720:	88478793          	addi	a5,a5,-1916 # 200a9fa0 <__mprec_tens>
200a7724:	20f4e7b3          	sh3add	a5,s1,a5
200a7728:	0007a903          	lw	s2,0(a5)
200a772c:	0047a983          	lw	s3,4(a5)
200a7730:	47d2                	lw	a5,20(sp)
200a7732:	f407d7e3          	bgez	a5,200a7680 <_dtoa_r+0x85a>
200a7736:	f58045e3          	bgtz	s8,200a7680 <_dtoa_r+0x85a>
200a773a:	d40c15e3          	bnez	s8,200a7484 <_dtoa_r+0x65e>
200a773e:	0001a797          	auipc	a5,0x1a
200a7742:	53278793          	addi	a5,a5,1330 # 200c1c70 <_impure_ptr+0x50>
200a7746:	4390                	lw	a2,0(a5)
200a7748:	43d4                	lw	a3,4(a5)
200a774a:	854a                	mv	a0,s2
200a774c:	85ce                	mv	a1,s3
200a774e:	b6efd0ef          	jal	ra,200a4abc <__muldf3>
200a7752:	865a                	mv	a2,s6
200a7754:	86d6                	mv	a3,s5
200a7756:	9ecfd0ef          	jal	ra,200a4942 <__gedf2>
200a775a:	d20555e3          	bgez	a0,200a7484 <_dtoa_r+0x65e>
200a775e:	8d26                	mv	s10,s1
200a7760:	4981                	li	s3,0
200a7762:	4901                	li	s2,0
200a7764:	aa2d                	j	200a789e <_dtoa_r+0xa78>
200a7766:	47b6                	lw	a5,76(sp)
200a7768:	5b12                	lw	s6,36(sp)
200a776a:	5a82                	lw	s5,32(sp)
200a776c:	0007c563          	bltz	a5,200a7776 <_dtoa_r+0x950>
200a7770:	4739                	li	a4,14
200a7772:	fa9755e3          	bge	a4,s1,200a771c <_dtoa_r+0x8f6>
200a7776:	4705                	li	a4,1
200a7778:	06874963          	blt	a4,s0,200a77ea <_dtoa_r+0x9c4>
200a777c:	5752                	lw	a4,52(sp)
200a777e:	43378793          	addi	a5,a5,1075
200a7782:	e709                	bnez	a4,200a778c <_dtoa_r+0x966>
200a7784:	4726                	lw	a4,72(sp)
200a7786:	03600793          	li	a5,54
200a778a:	8f99                	sub	a5,a5,a4
200a778c:	49c2                	lw	s3,16(sp)
200a778e:	8de6                	mv	s11,s9
200a7790:	4502                	lw	a0,0(sp)
200a7792:	4585                	li	a1,1
200a7794:	9cbe                	add	s9,s9,a5
200a7796:	9a3e                	add	s4,s4,a5
200a7798:	2f7000ef          	jal	ra,200a828e <__i2b>
200a779c:	892a                	mv	s2,a0
200a779e:	bce1                	j	200a7276 <_dtoa_r+0x450>
200a77a0:	8d26                	mv	s10,s1
200a77a2:	876e                	mv	a4,s11
200a77a4:	03900693          	li	a3,57
200a77a8:	8dba                	mv	s11,a4
200a77aa:	fff74603          	lbu	a2,-1(a4)
200a77ae:	177d                	addi	a4,a4,-1
200a77b0:	00d61963          	bne	a2,a3,200a77c2 <_dtoa_r+0x99c>
200a77b4:	feeb9ae3          	bne	s7,a4,200a77a8 <_dtoa_r+0x982>
200a77b8:	03000693          	li	a3,48
200a77bc:	0d05                	addi	s10,s10,1
200a77be:	00db8023          	sb	a3,0(s7)
200a77c2:	2314                	lbu	a3,0(a4)
200a77c4:	0685                	addi	a3,a3,1
200a77c6:	a314                	sb	a3,0(a4)
200a77c8:	bd85                	j	200a7638 <_dtoa_r+0x812>
200a77ca:	000ca603          	lw	a2,0(s9)
200a77ce:	004ca683          	lw	a3,4(s9)
200a77d2:	0b05                	addi	s6,s6,1
200a77d4:	ae8fd0ef          	jal	ra,200a4abc <__muldf3>
200a77d8:	4601                	li	a2,0
200a77da:	4681                	li	a3,0
200a77dc:	842a                	mv	s0,a0
200a77de:	8d2e                	mv	s10,a1
200a77e0:	8f6fd0ef          	jal	ra,200a48d6 <__eqdf2>
200a77e4:	ea0517e3          	bnez	a0,200a7692 <_dtoa_r+0x86c>
200a77e8:	bf11                	j	200a76fc <_dtoa_r+0x8d6>
200a77ea:	47c2                	lw	a5,16(sp)
200a77ec:	fffc0993          	addi	s3,s8,-1
200a77f0:	0137c963          	blt	a5,s3,200a7802 <_dtoa_r+0x9dc>
200a77f4:	413789b3          	sub	s3,a5,s3
200a77f8:	020c4063          	bltz	s8,200a7818 <_dtoa_r+0x9f2>
200a77fc:	8de6                	mv	s11,s9
200a77fe:	87e2                	mv	a5,s8
200a7800:	bf41                	j	200a7790 <_dtoa_r+0x96a>
200a7802:	47c2                	lw	a5,16(sp)
200a7804:	4762                	lw	a4,24(sp)
200a7806:	c84e                	sw	s3,16(sp)
200a7808:	40f987b3          	sub	a5,s3,a5
200a780c:	97ba                	add	a5,a5,a4
200a780e:	cc3e                	sw	a5,24(sp)
200a7810:	8de6                	mv	s11,s9
200a7812:	87e2                	mv	a5,s8
200a7814:	4981                	li	s3,0
200a7816:	bfad                	j	200a7790 <_dtoa_r+0x96a>
200a7818:	418c8db3          	sub	s11,s9,s8
200a781c:	4781                	li	a5,0
200a781e:	bf8d                	j	200a7790 <_dtoa_r+0x96a>
200a7820:	4642                	lw	a2,16(sp)
200a7822:	4592                	lw	a1,4(sp)
200a7824:	b46d                	j	200a72ce <_dtoa_r+0x4a8>
200a7826:	4505                	li	a0,1
200a7828:	ae8547e3          	blt	a0,s0,200a7316 <_dtoa_r+0x4f0>
200a782c:	ae0b15e3          	bnez	s6,200a7316 <_dtoa_r+0x4f0>
200a7830:	00ca9793          	slli	a5,s5,0xc
200a7834:	4d01                	li	s10,0
200a7836:	eb91                	bnez	a5,200a784a <_dtoa_r+0xa24>
200a7838:	7ff007b7          	lui	a5,0x7ff00
200a783c:	00fafab3          	and	s5,s5,a5
200a7840:	000a8563          	beqz	s5,200a784a <_dtoa_r+0xa24>
200a7844:	0c85                	addi	s9,s9,1
200a7846:	0a05                	addi	s4,s4,1
200a7848:	4d05                	li	s10,1
200a784a:	47e2                	lw	a5,24(sp)
200a784c:	aa0799e3          	bnez	a5,200a72fe <_dtoa_r+0x4d8>
200a7850:	cc6a                	sw	s10,24(sp)
200a7852:	4505                	li	a0,1
200a7854:	b4c9                	j	200a7316 <_dtoa_r+0x4f0>
200a7856:	ace78fe3          	beq	a5,a4,200a7334 <_dtoa_r+0x50e>
200a785a:	07f1                	addi	a5,a5,28 # 7ff0001c <_eusrstack+0x5fe0001c>
200a785c:	bcc9                	j	200a732e <_dtoa_r+0x508>
200a785e:	4781                	li	a5,0
200a7860:	bfed                	j	200a785a <_dtoa_r+0xa34>
200a7862:	47a2                	lw	a5,8(sp)
200a7864:	04f04a63          	bgtz	a5,200a78b8 <_dtoa_r+0xa92>
200a7868:	4789                	li	a5,2
200a786a:	0087ca63          	blt	a5,s0,200a787e <_dtoa_r+0xa58>
200a786e:	a0a9                	j	200a78b8 <_dtoa_r+0xa92>
200a7870:	03804f63          	bgtz	s8,200a78ae <_dtoa_r+0xa88>
200a7874:	4789                	li	a5,2
200a7876:	0287dc63          	bge	a5,s0,200a78ae <_dtoa_r+0xa88>
200a787a:	c462                	sw	s8,8(sp)
200a787c:	8d26                	mv	s10,s1
200a787e:	47a2                	lw	a5,8(sp)
200a7880:	c00794e3          	bnez	a5,200a7488 <_dtoa_r+0x662>
200a7884:	4502                	lw	a0,0(sp)
200a7886:	85ce                	mv	a1,s3
200a7888:	4681                	li	a3,0
200a788a:	4615                	li	a2,5
200a788c:	093000ef          	jal	ra,200a811e <__multadd>
200a7890:	89aa                	mv	s3,a0
200a7892:	85aa                	mv	a1,a0
200a7894:	4512                	lw	a0,4(sp)
200a7896:	567000ef          	jal	ra,200a85fc <__mcmp>
200a789a:	bea057e3          	blez	a0,200a7488 <_dtoa_r+0x662>
200a789e:	03100713          	li	a4,49
200a78a2:	001b8d93          	addi	s11,s7,1
200a78a6:	00eb8023          	sb	a4,0(s7)
200a78aa:	0d05                	addi	s10,s10,1
200a78ac:	b6d5                	j	200a7490 <_dtoa_r+0x66a>
200a78ae:	47b2                	lw	a5,12(sp)
200a78b0:	c462                	sw	s8,8(sp)
200a78b2:	8d26                	mv	s10,s1
200a78b4:	ae0792e3          	bnez	a5,200a7398 <_dtoa_r+0x572>
200a78b8:	4481                	li	s1,0
200a78ba:	4512                	lw	a0,4(sp)
200a78bc:	85ce                	mv	a1,s3
200a78be:	c3cff0ef          	jal	ra,200a6cfa <quorem>
200a78c2:	009b87b3          	add	a5,s7,s1
200a78c6:	03050c93          	addi	s9,a0,48
200a78ca:	01978023          	sb	s9,0(a5)
200a78ce:	47a2                	lw	a5,8(sp)
200a78d0:	0485                	addi	s1,s1,1
200a78d2:	18f4d463          	bge	s1,a5,200a7a5a <_dtoa_r+0xc34>
200a78d6:	4592                	lw	a1,4(sp)
200a78d8:	4502                	lw	a0,0(sp)
200a78da:	4681                	li	a3,0
200a78dc:	4629                	li	a2,10
200a78de:	041000ef          	jal	ra,200a811e <__multadd>
200a78e2:	c22a                	sw	a0,4(sp)
200a78e4:	bfd9                	j	200a78ba <_dtoa_r+0xa94>
200a78e6:	01092603          	lw	a2,16(s2)
200a78ea:	00c90593          	addi	a1,s2,12
200a78ee:	0531                	addi	a0,a0,12
200a78f0:	0609                	addi	a2,a2,2
200a78f2:	060a                	slli	a2,a2,0x2
200a78f4:	9c1f80ef          	jal	ra,200a02b4 <memcpy>
200a78f8:	4502                	lw	a0,0(sp)
200a78fa:	4605                	li	a2,1
200a78fc:	85a6                	mv	a1,s1
200a78fe:	3fd000ef          	jal	ra,200a84fa <__lshift>
200a7902:	47a2                	lw	a5,8(sp)
200a7904:	84ca                	mv	s1,s2
200a7906:	001b8a93          	addi	s5,s7,1
200a790a:	97de                	add	a5,a5,s7
200a790c:	c43e                	sw	a5,8(sp)
200a790e:	001b7793          	andi	a5,s6,1
200a7912:	892a                	mv	s2,a0
200a7914:	c63e                	sw	a5,12(sp)
200a7916:	4512                	lw	a0,4(sp)
200a7918:	85ce                	mv	a1,s3
200a791a:	fffa8a13          	addi	s4,s5,-1
200a791e:	bdcff0ef          	jal	ra,200a6cfa <quorem>
200a7922:	8c2a                	mv	s8,a0
200a7924:	03050c93          	addi	s9,a0,48
200a7928:	4512                	lw	a0,4(sp)
200a792a:	85a6                	mv	a1,s1
200a792c:	4d1000ef          	jal	ra,200a85fc <__mcmp>
200a7930:	8daa                	mv	s11,a0
200a7932:	4502                	lw	a0,0(sp)
200a7934:	864a                	mv	a2,s2
200a7936:	85ce                	mv	a1,s3
200a7938:	4fb000ef          	jal	ra,200a8632 <__mdiff>
200a793c:	4550                	lw	a2,12(a0)
200a793e:	85aa                	mv	a1,a0
200a7940:	ca15                	beqz	a2,200a7974 <_dtoa_r+0xb4e>
200a7942:	4502                	lw	a0,0(sp)
200a7944:	796000ef          	jal	ra,200a80da <_Bfree>
200a7948:	060dd463          	bgez	s11,200a79b0 <_dtoa_r+0xb8a>
200a794c:	4592                	lw	a1,4(sp)
200a794e:	4502                	lw	a0,0(sp)
200a7950:	4605                	li	a2,1
200a7952:	3a9000ef          	jal	ra,200a84fa <__lshift>
200a7956:	85ce                	mv	a1,s3
200a7958:	c22a                	sw	a0,4(sp)
200a795a:	4a3000ef          	jal	ra,200a85fc <__mcmp>
200a795e:	00a04663          	bgtz	a0,200a796a <_dtoa_r+0xb44>
200a7962:	e131                	bnez	a0,200a79a6 <_dtoa_r+0xb80>
200a7964:	001cf793          	andi	a5,s9,1
200a7968:	cf9d                	beqz	a5,200a79a6 <_dtoa_r+0xb80>
200a796a:	03900793          	li	a5,57
200a796e:	02fc9763          	bne	s9,a5,200a799c <_dtoa_r+0xb76>
200a7972:	a891                	j	200a79c6 <_dtoa_r+0xba0>
200a7974:	ca2a                	sw	a0,20(sp)
200a7976:	4512                	lw	a0,4(sp)
200a7978:	485000ef          	jal	ra,200a85fc <__mcmp>
200a797c:	c82a                	sw	a0,16(sp)
200a797e:	45d2                	lw	a1,20(sp)
200a7980:	4502                	lw	a0,0(sp)
200a7982:	758000ef          	jal	ra,200a80da <_Bfree>
200a7986:	4642                	lw	a2,16(sp)
200a7988:	e22d                	bnez	a2,200a79ea <_dtoa_r+0xbc4>
200a798a:	ec01                	bnez	s0,200a79a2 <_dtoa_r+0xb7c>
200a798c:	47b2                	lw	a5,12(sp)
200a798e:	eb91                	bnez	a5,200a79a2 <_dtoa_r+0xb7c>
200a7990:	03900613          	li	a2,57
200a7994:	02cc8963          	beq	s9,a2,200a79c6 <_dtoa_r+0xba0>
200a7998:	01b05763          	blez	s11,200a79a6 <_dtoa_r+0xb80>
200a799c:	031c0c93          	addi	s9,s8,49
200a79a0:	a019                	j	200a79a6 <_dtoa_r+0xb80>
200a79a2:	060dd163          	bgez	s11,200a7a04 <_dtoa_r+0xbde>
200a79a6:	001a0d93          	addi	s11,s4,1
200a79aa:	019a0023          	sb	s9,0(s4)
200a79ae:	b4d5                	j	200a7492 <_dtoa_r+0x66c>
200a79b0:	01b467b3          	or	a5,s0,s11
200a79b4:	e789                	bnez	a5,200a79be <_dtoa_r+0xb98>
200a79b6:	001b7b13          	andi	s6,s6,1
200a79ba:	f80b09e3          	beqz	s6,200a794c <_dtoa_r+0xb26>
200a79be:	03900793          	li	a5,57
200a79c2:	06fc9a63          	bne	s9,a5,200a7a36 <_dtoa_r+0xc10>
200a79c6:	03900793          	li	a5,57
200a79ca:	001a0c13          	addi	s8,s4,1
200a79ce:	00fa0023          	sb	a5,0(s4)
200a79d2:	03900693          	li	a3,57
200a79d6:	8de2                	mv	s11,s8
200a79d8:	fffdc703          	lbu	a4,-1(s11)
200a79dc:	1c7d                	addi	s8,s8,-1
200a79de:	0ad70d63          	beq	a4,a3,200a7a98 <_dtoa_r+0xc72>
200a79e2:	0705                	addi	a4,a4,1
200a79e4:	00ec0023          	sb	a4,0(s8)
200a79e8:	b46d                	j	200a7492 <_dtoa_r+0x66c>
200a79ea:	000dc863          	bltz	s11,200a79fa <_dtoa_r+0xbd4>
200a79ee:	01b467b3          	or	a5,s0,s11
200a79f2:	e799                	bnez	a5,200a7a00 <_dtoa_r+0xbda>
200a79f4:	001b7793          	andi	a5,s6,1
200a79f8:	e781                	bnez	a5,200a7a00 <_dtoa_r+0xbda>
200a79fa:	f4c049e3          	bgtz	a2,200a794c <_dtoa_r+0xb26>
200a79fe:	b765                	j	200a79a6 <_dtoa_r+0xb80>
200a7a00:	fac04fe3          	bgtz	a2,200a79be <_dtoa_r+0xb98>
200a7a04:	47a2                	lw	a5,8(sp)
200a7a06:	ff9a8fa3          	sb	s9,-1(s5)
200a7a0a:	8c56                	mv	s8,s5
200a7a0c:	05578e63          	beq	a5,s5,200a7a68 <_dtoa_r+0xc42>
200a7a10:	4592                	lw	a1,4(sp)
200a7a12:	4502                	lw	a0,0(sp)
200a7a14:	4681                	li	a3,0
200a7a16:	4629                	li	a2,10
200a7a18:	706000ef          	jal	ra,200a811e <__multadd>
200a7a1c:	c22a                	sw	a0,4(sp)
200a7a1e:	4681                	li	a3,0
200a7a20:	4502                	lw	a0,0(sp)
200a7a22:	4629                	li	a2,10
200a7a24:	85a6                	mv	a1,s1
200a7a26:	01249f63          	bne	s1,s2,200a7a44 <_dtoa_r+0xc1e>
200a7a2a:	6f4000ef          	jal	ra,200a811e <__multadd>
200a7a2e:	84aa                	mv	s1,a0
200a7a30:	892a                	mv	s2,a0
200a7a32:	0a85                	addi	s5,s5,1
200a7a34:	b5cd                	j	200a7916 <_dtoa_r+0xaf0>
200a7a36:	001c8713          	addi	a4,s9,1
200a7a3a:	001a0d93          	addi	s11,s4,1
200a7a3e:	00ea0023          	sb	a4,0(s4)
200a7a42:	bc81                	j	200a7492 <_dtoa_r+0x66c>
200a7a44:	6da000ef          	jal	ra,200a811e <__multadd>
200a7a48:	84aa                	mv	s1,a0
200a7a4a:	4502                	lw	a0,0(sp)
200a7a4c:	85ca                	mv	a1,s2
200a7a4e:	4681                	li	a3,0
200a7a50:	4629                	li	a2,10
200a7a52:	6cc000ef          	jal	ra,200a811e <__multadd>
200a7a56:	892a                	mv	s2,a0
200a7a58:	bfe9                	j	200a7a32 <_dtoa_r+0xc0c>
200a7a5a:	47a2                	lw	a5,8(sp)
200a7a5c:	4c05                	li	s8,1
200a7a5e:	00f05363          	blez	a5,200a7a64 <_dtoa_r+0xc3e>
200a7a62:	8c3e                	mv	s8,a5
200a7a64:	9c5e                	add	s8,s8,s7
200a7a66:	4481                	li	s1,0
200a7a68:	4592                	lw	a1,4(sp)
200a7a6a:	4502                	lw	a0,0(sp)
200a7a6c:	4605                	li	a2,1
200a7a6e:	28d000ef          	jal	ra,200a84fa <__lshift>
200a7a72:	85ce                	mv	a1,s3
200a7a74:	c22a                	sw	a0,4(sp)
200a7a76:	387000ef          	jal	ra,200a85fc <__mcmp>
200a7a7a:	f4a04ce3          	bgtz	a0,200a79d2 <_dtoa_r+0xbac>
200a7a7e:	e501                	bnez	a0,200a7a86 <_dtoa_r+0xc60>
200a7a80:	001cf713          	andi	a4,s9,1
200a7a84:	f739                	bnez	a4,200a79d2 <_dtoa_r+0xbac>
200a7a86:	03000713          	li	a4,48
200a7a8a:	8de2                	mv	s11,s8
200a7a8c:	fffc4683          	lbu	a3,-1(s8)
200a7a90:	1c7d                	addi	s8,s8,-1
200a7a92:	fee68ce3          	beq	a3,a4,200a7a8a <_dtoa_r+0xc64>
200a7a96:	baf5                	j	200a7492 <_dtoa_r+0x66c>
200a7a98:	f38b9fe3          	bne	s7,s8,200a79d6 <_dtoa_r+0xbb0>
200a7a9c:	03100713          	li	a4,49
200a7aa0:	0d05                	addi	s10,s10,1
200a7aa2:	00eb8023          	sb	a4,0(s7)
200a7aa6:	b2f5                	j	200a7492 <_dtoa_r+0x66c>
200a7aa8:	4772                	lw	a4,28(sp)
200a7aaa:	00002b97          	auipc	s7,0x2
200a7aae:	346b8b93          	addi	s7,s7,838 # 200a9df0 <_ctype_+0x104>
200a7ab2:	00002797          	auipc	a5,0x2
200a7ab6:	34678793          	addi	a5,a5,838 # 200a9df8 <_ctype_+0x10c>
200a7aba:	c2071063          	bnez	a4,200a6eda <_dtoa_r+0xb4>
200a7abe:	c20ff06f          	j	200a6ede <_dtoa_r+0xb8>

200a7ac2 <__sflush_r>:
200a7ac2:	00c59783          	lh	a5,12(a1)
200a7ac6:	1101                	addi	sp,sp,-32
200a7ac8:	cc22                	sw	s0,24(sp)
200a7aca:	ca26                	sw	s1,20(sp)
200a7acc:	ce06                	sw	ra,28(sp)
200a7ace:	c84a                	sw	s2,16(sp)
200a7ad0:	c64e                	sw	s3,12(sp)
200a7ad2:	0087f713          	andi	a4,a5,8
200a7ad6:	84aa                	mv	s1,a0
200a7ad8:	842e                	mv	s0,a1
200a7ada:	e761                	bnez	a4,200a7ba2 <__sflush_r+0xe0>
200a7adc:	41d8                	lw	a4,4(a1)
200a7ade:	00e04563          	bgtz	a4,200a7ae8 <__sflush_r+0x26>
200a7ae2:	41b8                	lw	a4,64(a1)
200a7ae4:	08e05763          	blez	a4,200a7b72 <__sflush_r+0xb0>
200a7ae8:	5458                	lw	a4,44(s0)
200a7aea:	c741                	beqz	a4,200a7b72 <__sflush_r+0xb0>
200a7aec:	0004a903          	lw	s2,0(s1)
200a7af0:	0004a023          	sw	zero,0(s1)
200a7af4:	500c                	lw	a1,32(s0)
200a7af6:	48c7d793          	bexti	a5,a5,0xc
200a7afa:	cbb1                	beqz	a5,200a7b4e <__sflush_r+0x8c>
200a7afc:	4870                	lw	a2,84(s0)
200a7afe:	245e                	lhu	a5,12(s0)
200a7b00:	8b91                	andi	a5,a5,4
200a7b02:	c799                	beqz	a5,200a7b10 <__sflush_r+0x4e>
200a7b04:	405c                	lw	a5,4(s0)
200a7b06:	8e1d                	sub	a2,a2,a5
200a7b08:	585c                	lw	a5,52(s0)
200a7b0a:	c399                	beqz	a5,200a7b10 <__sflush_r+0x4e>
200a7b0c:	403c                	lw	a5,64(s0)
200a7b0e:	8e1d                	sub	a2,a2,a5
200a7b10:	545c                	lw	a5,44(s0)
200a7b12:	500c                	lw	a1,32(s0)
200a7b14:	4681                	li	a3,0
200a7b16:	8526                	mv	a0,s1
200a7b18:	9782                	jalr	a5
200a7b1a:	57fd                	li	a5,-1
200a7b1c:	04f50d63          	beq	a0,a5,200a7b76 <__sflush_r+0xb4>
200a7b20:	481c                	lw	a5,16(s0)
200a7b22:	6705                	lui	a4,0x1
200a7b24:	00042223          	sw	zero,4(s0)
200a7b28:	c01c                	sw	a5,0(s0)
200a7b2a:	245e                	lhu	a5,12(s0)
200a7b2c:	8ff9                	and	a5,a5,a4
200a7b2e:	c391                	beqz	a5,200a7b32 <__sflush_r+0x70>
200a7b30:	c868                	sw	a0,84(s0)
200a7b32:	584c                	lw	a1,52(s0)
200a7b34:	0124a023          	sw	s2,0(s1)
200a7b38:	cd8d                	beqz	a1,200a7b72 <__sflush_r+0xb0>
200a7b3a:	04440793          	addi	a5,s0,68
200a7b3e:	00f58563          	beq	a1,a5,200a7b48 <__sflush_r+0x86>
200a7b42:	8526                	mv	a0,s1
200a7b44:	ecdfd0ef          	jal	ra,200a5a10 <_free_r>
200a7b48:	02042a23          	sw	zero,52(s0)
200a7b4c:	a01d                	j	200a7b72 <__sflush_r+0xb0>
200a7b4e:	4601                	li	a2,0
200a7b50:	4685                	li	a3,1
200a7b52:	8526                	mv	a0,s1
200a7b54:	9702                	jalr	a4
200a7b56:	57fd                	li	a5,-1
200a7b58:	862a                	mv	a2,a0
200a7b5a:	faf512e3          	bne	a0,a5,200a7afe <__sflush_r+0x3c>
200a7b5e:	409c                	lw	a5,0(s1)
200a7b60:	dfd9                	beqz	a5,200a7afe <__sflush_r+0x3c>
200a7b62:	4775                	li	a4,29
200a7b64:	00e78563          	beq	a5,a4,200a7b6e <__sflush_r+0xac>
200a7b68:	4759                	li	a4,22
200a7b6a:	06e79563          	bne	a5,a4,200a7bd4 <__sflush_r+0x112>
200a7b6e:	0124a023          	sw	s2,0(s1)
200a7b72:	4501                	li	a0,0
200a7b74:	a0b5                	j	200a7be0 <__sflush_r+0x11e>
200a7b76:	4098                	lw	a4,0(s1)
200a7b78:	00c41783          	lh	a5,12(s0)
200a7b7c:	cf01                	beqz	a4,200a7b94 <__sflush_r+0xd2>
200a7b7e:	46f5                	li	a3,29
200a7b80:	00d70563          	beq	a4,a3,200a7b8a <__sflush_r+0xc8>
200a7b84:	46d9                	li	a3,22
200a7b86:	04d71963          	bne	a4,a3,200a7bd8 <__sflush_r+0x116>
200a7b8a:	481c                	lw	a5,16(s0)
200a7b8c:	00042223          	sw	zero,4(s0)
200a7b90:	c01c                	sw	a5,0(s0)
200a7b92:	b745                	j	200a7b32 <__sflush_r+0x70>
200a7b94:	4818                	lw	a4,16(s0)
200a7b96:	00042223          	sw	zero,4(s0)
200a7b9a:	48c7d793          	bexti	a5,a5,0xc
200a7b9e:	c018                	sw	a4,0(s0)
200a7ba0:	b779                	j	200a7b2e <__sflush_r+0x6c>
200a7ba2:	0105a983          	lw	s3,16(a1)
200a7ba6:	fc0986e3          	beqz	s3,200a7b72 <__sflush_r+0xb0>
200a7baa:	0005a903          	lw	s2,0(a1)
200a7bae:	8b8d                	andi	a5,a5,3
200a7bb0:	0135a023          	sw	s3,0(a1)
200a7bb4:	41390933          	sub	s2,s2,s3
200a7bb8:	4701                	li	a4,0
200a7bba:	e391                	bnez	a5,200a7bbe <__sflush_r+0xfc>
200a7bbc:	49d8                	lw	a4,20(a1)
200a7bbe:	c418                	sw	a4,8(s0)
200a7bc0:	fb2059e3          	blez	s2,200a7b72 <__sflush_r+0xb0>
200a7bc4:	541c                	lw	a5,40(s0)
200a7bc6:	500c                	lw	a1,32(s0)
200a7bc8:	86ca                	mv	a3,s2
200a7bca:	864e                	mv	a2,s3
200a7bcc:	8526                	mv	a0,s1
200a7bce:	9782                	jalr	a5
200a7bd0:	00a04f63          	bgtz	a0,200a7bee <__sflush_r+0x12c>
200a7bd4:	00c41783          	lh	a5,12(s0)
200a7bd8:	0407e793          	ori	a5,a5,64
200a7bdc:	a45e                	sh	a5,12(s0)
200a7bde:	557d                	li	a0,-1
200a7be0:	40f2                	lw	ra,28(sp)
200a7be2:	4462                	lw	s0,24(sp)
200a7be4:	44d2                	lw	s1,20(sp)
200a7be6:	4942                	lw	s2,16(sp)
200a7be8:	49b2                	lw	s3,12(sp)
200a7bea:	6105                	addi	sp,sp,32
200a7bec:	8082                	ret
200a7bee:	99aa                	add	s3,s3,a0
200a7bf0:	40a90933          	sub	s2,s2,a0
200a7bf4:	b7f1                	j	200a7bc0 <__sflush_r+0xfe>

200a7bf6 <_fflush_r>:
200a7bf6:	499c                	lw	a5,16(a1)
200a7bf8:	1141                	addi	sp,sp,-16
200a7bfa:	c606                	sw	ra,12(sp)
200a7bfc:	c422                	sw	s0,8(sp)
200a7bfe:	c226                	sw	s1,4(sp)
200a7c00:	eb81                	bnez	a5,200a7c10 <_fflush_r+0x1a>
200a7c02:	4481                	li	s1,0
200a7c04:	40b2                	lw	ra,12(sp)
200a7c06:	4422                	lw	s0,8(sp)
200a7c08:	8526                	mv	a0,s1
200a7c0a:	4492                	lw	s1,4(sp)
200a7c0c:	0141                	addi	sp,sp,16
200a7c0e:	8082                	ret
200a7c10:	84aa                	mv	s1,a0
200a7c12:	842e                	mv	s0,a1
200a7c14:	c501                	beqz	a0,200a7c1c <_fflush_r+0x26>
200a7c16:	4d1c                	lw	a5,24(a0)
200a7c18:	e391                	bnez	a5,200a7c1c <_fflush_r+0x26>
200a7c1a:	2291                	jal	200a7d5e <__sinit>
200a7c1c:	00002797          	auipc	a5,0x2
200a7c20:	2ac78793          	addi	a5,a5,684 # 200a9ec8 <__sf_fake_stdin>
200a7c24:	02f41d63          	bne	s0,a5,200a7c5e <_fflush_r+0x68>
200a7c28:	40c0                	lw	s0,4(s1)
200a7c2a:	00c41783          	lh	a5,12(s0)
200a7c2e:	dbf1                	beqz	a5,200a7c02 <_fflush_r+0xc>
200a7c30:	5078                	lw	a4,100(s0)
200a7c32:	8b05                	andi	a4,a4,1
200a7c34:	e711                	bnez	a4,200a7c40 <_fflush_r+0x4a>
200a7c36:	2007f793          	andi	a5,a5,512
200a7c3a:	e399                	bnez	a5,200a7c40 <_fflush_r+0x4a>
200a7c3c:	4c28                	lw	a0,88(s0)
200a7c3e:	2c5d                	jal	200a7ef4 <__retarget_lock_acquire_recursive>
200a7c40:	8526                	mv	a0,s1
200a7c42:	85a2                	mv	a1,s0
200a7c44:	e7fff0ef          	jal	ra,200a7ac2 <__sflush_r>
200a7c48:	507c                	lw	a5,100(s0)
200a7c4a:	84aa                	mv	s1,a0
200a7c4c:	8b85                	andi	a5,a5,1
200a7c4e:	fbdd                	bnez	a5,200a7c04 <_fflush_r+0xe>
200a7c50:	245e                	lhu	a5,12(s0)
200a7c52:	2007f793          	andi	a5,a5,512
200a7c56:	f7dd                	bnez	a5,200a7c04 <_fflush_r+0xe>
200a7c58:	4c28                	lw	a0,88(s0)
200a7c5a:	2c71                	jal	200a7ef6 <__retarget_lock_release_recursive>
200a7c5c:	b765                	j	200a7c04 <_fflush_r+0xe>
200a7c5e:	00002797          	auipc	a5,0x2
200a7c62:	24a78793          	addi	a5,a5,586 # 200a9ea8 <__sf_fake_stdout>
200a7c66:	00f41463          	bne	s0,a5,200a7c6e <_fflush_r+0x78>
200a7c6a:	4480                	lw	s0,8(s1)
200a7c6c:	bf7d                	j	200a7c2a <_fflush_r+0x34>
200a7c6e:	00002797          	auipc	a5,0x2
200a7c72:	21a78793          	addi	a5,a5,538 # 200a9e88 <__sf_fake_stderr>
200a7c76:	faf41ae3          	bne	s0,a5,200a7c2a <_fflush_r+0x34>
200a7c7a:	44c0                	lw	s0,12(s1)
200a7c7c:	b77d                	j	200a7c2a <_fflush_r+0x34>

200a7c7e <std>:
200a7c7e:	1141                	addi	sp,sp,-16
200a7c80:	c422                	sw	s0,8(sp)
200a7c82:	c606                	sw	ra,12(sp)
200a7c84:	842a                	mv	s0,a0
200a7c86:	a54e                	sh	a1,12(a0)
200a7c88:	a572                	sh	a2,14(a0)
200a7c8a:	00052023          	sw	zero,0(a0)
200a7c8e:	00052223          	sw	zero,4(a0)
200a7c92:	00052423          	sw	zero,8(a0)
200a7c96:	06052223          	sw	zero,100(a0)
200a7c9a:	00052823          	sw	zero,16(a0)
200a7c9e:	00052a23          	sw	zero,20(a0)
200a7ca2:	00052c23          	sw	zero,24(a0)
200a7ca6:	4621                	li	a2,8
200a7ca8:	4581                	li	a1,0
200a7caa:	05c50513          	addi	a0,a0,92
200a7cae:	e1cf80ef          	jal	ra,200a02ca <memset>
200a7cb2:	00001797          	auipc	a5,0x1
200a7cb6:	bf878793          	addi	a5,a5,-1032 # 200a88aa <__sread>
200a7cba:	d05c                	sw	a5,36(s0)
200a7cbc:	00001797          	auipc	a5,0x1
200a7cc0:	c1878793          	addi	a5,a5,-1000 # 200a88d4 <__swrite>
200a7cc4:	d41c                	sw	a5,40(s0)
200a7cc6:	00001797          	auipc	a5,0x1
200a7cca:	c5478793          	addi	a5,a5,-940 # 200a891a <__sseek>
200a7cce:	d45c                	sw	a5,44(s0)
200a7cd0:	00001797          	auipc	a5,0x1
200a7cd4:	c7878793          	addi	a5,a5,-904 # 200a8948 <__sclose>
200a7cd8:	40b2                	lw	ra,12(sp)
200a7cda:	d000                	sw	s0,32(s0)
200a7cdc:	d81c                	sw	a5,48(s0)
200a7cde:	4422                	lw	s0,8(sp)
200a7ce0:	0141                	addi	sp,sp,16
200a7ce2:	8082                	ret

200a7ce4 <_cleanup_r>:
200a7ce4:	00000597          	auipc	a1,0x0
200a7ce8:	f1258593          	addi	a1,a1,-238 # 200a7bf6 <_fflush_r>
200a7cec:	aa51                	j	200a7e80 <_fwalk_reent>

200a7cee <__sfmoreglue>:
200a7cee:	1141                	addi	sp,sp,-16
200a7cf0:	c226                	sw	s1,4(sp)
200a7cf2:	06800793          	li	a5,104
200a7cf6:	fff58493          	addi	s1,a1,-1
200a7cfa:	02f484b3          	mul	s1,s1,a5
200a7cfe:	c04a                	sw	s2,0(sp)
200a7d00:	892e                	mv	s2,a1
200a7d02:	c422                	sw	s0,8(sp)
200a7d04:	c606                	sw	ra,12(sp)
200a7d06:	07448593          	addi	a1,s1,116
200a7d0a:	e0bfd0ef          	jal	ra,200a5b14 <_malloc_r>
200a7d0e:	842a                	mv	s0,a0
200a7d10:	cd01                	beqz	a0,200a7d28 <__sfmoreglue+0x3a>
200a7d12:	00052023          	sw	zero,0(a0)
200a7d16:	01252223          	sw	s2,4(a0)
200a7d1a:	0531                	addi	a0,a0,12
200a7d1c:	c408                	sw	a0,8(s0)
200a7d1e:	06848613          	addi	a2,s1,104
200a7d22:	4581                	li	a1,0
200a7d24:	da6f80ef          	jal	ra,200a02ca <memset>
200a7d28:	40b2                	lw	ra,12(sp)
200a7d2a:	8522                	mv	a0,s0
200a7d2c:	4422                	lw	s0,8(sp)
200a7d2e:	4492                	lw	s1,4(sp)
200a7d30:	4902                	lw	s2,0(sp)
200a7d32:	0141                	addi	sp,sp,16
200a7d34:	8082                	ret

200a7d36 <__sfp_lock_acquire>:
200a7d36:	0002e517          	auipc	a0,0x2e
200a7d3a:	ffa50513          	addi	a0,a0,-6 # 200d5d30 <__lock___sfp_recursive_mutex>
200a7d3e:	aa5d                	j	200a7ef4 <__retarget_lock_acquire_recursive>

200a7d40 <__sfp_lock_release>:
200a7d40:	0002e517          	auipc	a0,0x2e
200a7d44:	ff050513          	addi	a0,a0,-16 # 200d5d30 <__lock___sfp_recursive_mutex>
200a7d48:	a27d                	j	200a7ef6 <__retarget_lock_release_recursive>

200a7d4a <__sinit_lock_acquire>:
200a7d4a:	0002e517          	auipc	a0,0x2e
200a7d4e:	fea50513          	addi	a0,a0,-22 # 200d5d34 <__lock___sinit_recursive_mutex>
200a7d52:	a24d                	j	200a7ef4 <__retarget_lock_acquire_recursive>

200a7d54 <__sinit_lock_release>:
200a7d54:	0002e517          	auipc	a0,0x2e
200a7d58:	fe050513          	addi	a0,a0,-32 # 200d5d34 <__lock___sinit_recursive_mutex>
200a7d5c:	aa69                	j	200a7ef6 <__retarget_lock_release_recursive>

200a7d5e <__sinit>:
200a7d5e:	1141                	addi	sp,sp,-16
200a7d60:	c422                	sw	s0,8(sp)
200a7d62:	c606                	sw	ra,12(sp)
200a7d64:	842a                	mv	s0,a0
200a7d66:	fe5ff0ef          	jal	ra,200a7d4a <__sinit_lock_acquire>
200a7d6a:	4c1c                	lw	a5,24(s0)
200a7d6c:	c791                	beqz	a5,200a7d78 <__sinit+0x1a>
200a7d6e:	4422                	lw	s0,8(sp)
200a7d70:	40b2                	lw	ra,12(sp)
200a7d72:	0141                	addi	sp,sp,16
200a7d74:	fe1ff06f          	j	200a7d54 <__sinit_lock_release>
200a7d78:	00000797          	auipc	a5,0x0
200a7d7c:	f6c78793          	addi	a5,a5,-148 # 200a7ce4 <_cleanup_r>
200a7d80:	d41c                	sw	a5,40(s0)
200a7d82:	04042423          	sw	zero,72(s0)
200a7d86:	04042623          	sw	zero,76(s0)
200a7d8a:	04042823          	sw	zero,80(s0)
200a7d8e:	8941a783          	lw	a5,-1900(gp) # 200c1c8c <_global_impure_ptr>
200a7d92:	00879463          	bne	a5,s0,200a7d9a <__sinit+0x3c>
200a7d96:	4785                	li	a5,1
200a7d98:	cc1c                	sw	a5,24(s0)
200a7d9a:	8522                	mv	a0,s0
200a7d9c:	2815                	jal	200a7dd0 <__sfp>
200a7d9e:	c048                	sw	a0,4(s0)
200a7da0:	8522                	mv	a0,s0
200a7da2:	203d                	jal	200a7dd0 <__sfp>
200a7da4:	c408                	sw	a0,8(s0)
200a7da6:	8522                	mv	a0,s0
200a7da8:	2025                	jal	200a7dd0 <__sfp>
200a7daa:	c448                	sw	a0,12(s0)
200a7dac:	4048                	lw	a0,4(s0)
200a7dae:	4601                	li	a2,0
200a7db0:	4591                	li	a1,4
200a7db2:	ecdff0ef          	jal	ra,200a7c7e <std>
200a7db6:	4408                	lw	a0,8(s0)
200a7db8:	4605                	li	a2,1
200a7dba:	45a5                	li	a1,9
200a7dbc:	ec3ff0ef          	jal	ra,200a7c7e <std>
200a7dc0:	4448                	lw	a0,12(s0)
200a7dc2:	4609                	li	a2,2
200a7dc4:	45c9                	li	a1,18
200a7dc6:	eb9ff0ef          	jal	ra,200a7c7e <std>
200a7dca:	4785                	li	a5,1
200a7dcc:	cc1c                	sw	a5,24(s0)
200a7dce:	b745                	j	200a7d6e <__sinit+0x10>

200a7dd0 <__sfp>:
200a7dd0:	1141                	addi	sp,sp,-16
200a7dd2:	c226                	sw	s1,4(sp)
200a7dd4:	c04a                	sw	s2,0(sp)
200a7dd6:	c606                	sw	ra,12(sp)
200a7dd8:	c422                	sw	s0,8(sp)
200a7dda:	892a                	mv	s2,a0
200a7ddc:	f5bff0ef          	jal	ra,200a7d36 <__sfp_lock_acquire>
200a7de0:	8941a483          	lw	s1,-1900(gp) # 200c1c8c <_global_impure_ptr>
200a7de4:	4c9c                	lw	a5,24(s1)
200a7de6:	e781                	bnez	a5,200a7dee <__sfp+0x1e>
200a7de8:	8526                	mv	a0,s1
200a7dea:	f75ff0ef          	jal	ra,200a7d5e <__sinit>
200a7dee:	04848493          	addi	s1,s1,72
200a7df2:	4480                	lw	s0,8(s1)
200a7df4:	40dc                	lw	a5,4(s1)
200a7df6:	17fd                	addi	a5,a5,-1
200a7df8:	0007d663          	bgez	a5,200a7e04 <__sfp+0x34>
200a7dfc:	409c                	lw	a5,0(s1)
200a7dfe:	c7a5                	beqz	a5,200a7e66 <__sfp+0x96>
200a7e00:	4084                	lw	s1,0(s1)
200a7e02:	bfc5                	j	200a7df2 <__sfp+0x22>
200a7e04:	00c41703          	lh	a4,12(s0)
200a7e08:	ef21                	bnez	a4,200a7e60 <__sfp+0x90>
200a7e0a:	77c1                	lui	a5,0xffff0
200a7e0c:	0785                	addi	a5,a5,1 # ffff0001 <_eusrstack+0xdfef0001>
200a7e0e:	c45c                	sw	a5,12(s0)
200a7e10:	05840513          	addi	a0,s0,88
200a7e14:	06042223          	sw	zero,100(s0)
200a7e18:	28e9                	jal	200a7ef2 <__retarget_lock_init_recursive>
200a7e1a:	f27ff0ef          	jal	ra,200a7d40 <__sfp_lock_release>
200a7e1e:	4621                	li	a2,8
200a7e20:	00042023          	sw	zero,0(s0)
200a7e24:	00042423          	sw	zero,8(s0)
200a7e28:	00042223          	sw	zero,4(s0)
200a7e2c:	00042823          	sw	zero,16(s0)
200a7e30:	00042a23          	sw	zero,20(s0)
200a7e34:	00042c23          	sw	zero,24(s0)
200a7e38:	4581                	li	a1,0
200a7e3a:	05c40513          	addi	a0,s0,92
200a7e3e:	c8cf80ef          	jal	ra,200a02ca <memset>
200a7e42:	02042a23          	sw	zero,52(s0)
200a7e46:	02042c23          	sw	zero,56(s0)
200a7e4a:	04042423          	sw	zero,72(s0)
200a7e4e:	04042623          	sw	zero,76(s0)
200a7e52:	40b2                	lw	ra,12(sp)
200a7e54:	8522                	mv	a0,s0
200a7e56:	4422                	lw	s0,8(sp)
200a7e58:	4492                	lw	s1,4(sp)
200a7e5a:	4902                	lw	s2,0(sp)
200a7e5c:	0141                	addi	sp,sp,16
200a7e5e:	8082                	ret
200a7e60:	06840413          	addi	s0,s0,104
200a7e64:	bf49                	j	200a7df6 <__sfp+0x26>
200a7e66:	4591                	li	a1,4
200a7e68:	854a                	mv	a0,s2
200a7e6a:	e85ff0ef          	jal	ra,200a7cee <__sfmoreglue>
200a7e6e:	c088                	sw	a0,0(s1)
200a7e70:	842a                	mv	s0,a0
200a7e72:	f559                	bnez	a0,200a7e00 <__sfp+0x30>
200a7e74:	ecdff0ef          	jal	ra,200a7d40 <__sfp_lock_release>
200a7e78:	47b1                	li	a5,12
200a7e7a:	00f92023          	sw	a5,0(s2)
200a7e7e:	bfd1                	j	200a7e52 <__sfp+0x82>

200a7e80 <_fwalk_reent>:
200a7e80:	7179                	addi	sp,sp,-48
200a7e82:	d422                	sw	s0,40(sp)
200a7e84:	d04a                	sw	s2,32(sp)
200a7e86:	ce4e                	sw	s3,28(sp)
200a7e88:	cc52                	sw	s4,24(sp)
200a7e8a:	c85a                	sw	s6,16(sp)
200a7e8c:	c65e                	sw	s7,12(sp)
200a7e8e:	d606                	sw	ra,44(sp)
200a7e90:	d226                	sw	s1,36(sp)
200a7e92:	ca56                	sw	s5,20(sp)
200a7e94:	892a                	mv	s2,a0
200a7e96:	8a2e                	mv	s4,a1
200a7e98:	04850413          	addi	s0,a0,72
200a7e9c:	4981                	li	s3,0
200a7e9e:	4b05                	li	s6,1
200a7ea0:	5bfd                	li	s7,-1
200a7ea2:	4404                	lw	s1,8(s0)
200a7ea4:	00442a83          	lw	s5,4(s0)
200a7ea8:	1afd                	addi	s5,s5,-1
200a7eaa:	020ad063          	bgez	s5,200a7eca <_fwalk_reent+0x4a>
200a7eae:	4000                	lw	s0,0(s0)
200a7eb0:	f86d                	bnez	s0,200a7ea2 <_fwalk_reent+0x22>
200a7eb2:	50b2                	lw	ra,44(sp)
200a7eb4:	5422                	lw	s0,40(sp)
200a7eb6:	5492                	lw	s1,36(sp)
200a7eb8:	5902                	lw	s2,32(sp)
200a7eba:	4a62                	lw	s4,24(sp)
200a7ebc:	4ad2                	lw	s5,20(sp)
200a7ebe:	4b42                	lw	s6,16(sp)
200a7ec0:	4bb2                	lw	s7,12(sp)
200a7ec2:	854e                	mv	a0,s3
200a7ec4:	49f2                	lw	s3,28(sp)
200a7ec6:	6145                	addi	sp,sp,48
200a7ec8:	8082                	ret
200a7eca:	24de                	lhu	a5,12(s1)
200a7ecc:	00fb7b63          	bgeu	s6,a5,200a7ee2 <_fwalk_reent+0x62>
200a7ed0:	00e49783          	lh	a5,14(s1)
200a7ed4:	01778763          	beq	a5,s7,200a7ee2 <_fwalk_reent+0x62>
200a7ed8:	85a6                	mv	a1,s1
200a7eda:	854a                	mv	a0,s2
200a7edc:	9a02                	jalr	s4
200a7ede:	00a9e9b3          	or	s3,s3,a0
200a7ee2:	06848493          	addi	s1,s1,104
200a7ee6:	b7c9                	j	200a7ea8 <_fwalk_reent+0x28>

200a7ee8 <_localeconv_r>:
200a7ee8:	0001a517          	auipc	a0,0x1a
200a7eec:	c9450513          	addi	a0,a0,-876 # 200c1b7c <__global_locale+0xf0>
200a7ef0:	8082                	ret

200a7ef2 <__retarget_lock_init_recursive>:
200a7ef2:	8082                	ret

200a7ef4 <__retarget_lock_acquire_recursive>:
200a7ef4:	8082                	ret

200a7ef6 <__retarget_lock_release_recursive>:
200a7ef6:	8082                	ret

200a7ef8 <__swhatbuf_r>:
200a7ef8:	7159                	addi	sp,sp,-112
200a7efa:	d4a2                	sw	s0,104(sp)
200a7efc:	842e                	mv	s0,a1
200a7efe:	00e59583          	lh	a1,14(a1)
200a7f02:	d2a6                	sw	s1,100(sp)
200a7f04:	d0ca                	sw	s2,96(sp)
200a7f06:	d686                	sw	ra,108(sp)
200a7f08:	84b2                	mv	s1,a2
200a7f0a:	8936                	mv	s2,a3
200a7f0c:	0205d263          	bgez	a1,200a7f30 <__swhatbuf_r+0x38>
200a7f10:	245e                	lhu	a5,12(s0)
200a7f12:	0807f793          	andi	a5,a5,128
200a7f16:	eb95                	bnez	a5,200a7f4a <__swhatbuf_r+0x52>
200a7f18:	40000713          	li	a4,1024
200a7f1c:	50b6                	lw	ra,108(sp)
200a7f1e:	5426                	lw	s0,104(sp)
200a7f20:	00f92023          	sw	a5,0(s2)
200a7f24:	c098                	sw	a4,0(s1)
200a7f26:	5906                	lw	s2,96(sp)
200a7f28:	5496                	lw	s1,100(sp)
200a7f2a:	4501                	li	a0,0
200a7f2c:	6165                	addi	sp,sp,112
200a7f2e:	8082                	ret
200a7f30:	0030                	addi	a2,sp,8
200a7f32:	29d000ef          	jal	ra,200a89ce <_fstat_r>
200a7f36:	fc054de3          	bltz	a0,200a7f10 <__swhatbuf_r+0x18>
200a7f3a:	4732                	lw	a4,12(sp)
200a7f3c:	67bd                	lui	a5,0xf
200a7f3e:	8ff9                	and	a5,a5,a4
200a7f40:	7779                	lui	a4,0xffffe
200a7f42:	97ba                	add	a5,a5,a4
200a7f44:	0017b793          	seqz	a5,a5
200a7f48:	bfc1                	j	200a7f18 <__swhatbuf_r+0x20>
200a7f4a:	4781                	li	a5,0
200a7f4c:	04000713          	li	a4,64
200a7f50:	b7f1                	j	200a7f1c <__swhatbuf_r+0x24>

200a7f52 <__smakebuf_r>:
200a7f52:	25de                	lhu	a5,12(a1)
200a7f54:	7179                	addi	sp,sp,-48
200a7f56:	d422                	sw	s0,40(sp)
200a7f58:	d606                	sw	ra,44(sp)
200a7f5a:	d226                	sw	s1,36(sp)
200a7f5c:	d04a                	sw	s2,32(sp)
200a7f5e:	ce4e                	sw	s3,28(sp)
200a7f60:	8b89                	andi	a5,a5,2
200a7f62:	842e                	mv	s0,a1
200a7f64:	cf91                	beqz	a5,200a7f80 <__smakebuf_r+0x2e>
200a7f66:	04740793          	addi	a5,s0,71
200a7f6a:	c01c                	sw	a5,0(s0)
200a7f6c:	c81c                	sw	a5,16(s0)
200a7f6e:	4785                	li	a5,1
200a7f70:	c85c                	sw	a5,20(s0)
200a7f72:	50b2                	lw	ra,44(sp)
200a7f74:	5422                	lw	s0,40(sp)
200a7f76:	5492                	lw	s1,36(sp)
200a7f78:	5902                	lw	s2,32(sp)
200a7f7a:	49f2                	lw	s3,28(sp)
200a7f7c:	6145                	addi	sp,sp,48
200a7f7e:	8082                	ret
200a7f80:	0074                	addi	a3,sp,12
200a7f82:	0030                	addi	a2,sp,8
200a7f84:	84aa                	mv	s1,a0
200a7f86:	f73ff0ef          	jal	ra,200a7ef8 <__swhatbuf_r>
200a7f8a:	49a2                	lw	s3,8(sp)
200a7f8c:	892a                	mv	s2,a0
200a7f8e:	8526                	mv	a0,s1
200a7f90:	85ce                	mv	a1,s3
200a7f92:	b83fd0ef          	jal	ra,200a5b14 <_malloc_r>
200a7f96:	e919                	bnez	a0,200a7fac <__smakebuf_r+0x5a>
200a7f98:	00c41783          	lh	a5,12(s0)
200a7f9c:	2007f713          	andi	a4,a5,512
200a7fa0:	fb69                	bnez	a4,200a7f72 <__smakebuf_r+0x20>
200a7fa2:	9bf1                	andi	a5,a5,-4
200a7fa4:	0027e793          	ori	a5,a5,2
200a7fa8:	a45e                	sh	a5,12(s0)
200a7faa:	bf75                	j	200a7f66 <__smakebuf_r+0x14>
200a7fac:	00000797          	auipc	a5,0x0
200a7fb0:	d3878793          	addi	a5,a5,-712 # 200a7ce4 <_cleanup_r>
200a7fb4:	d49c                	sw	a5,40(s1)
200a7fb6:	245e                	lhu	a5,12(s0)
200a7fb8:	c008                	sw	a0,0(s0)
200a7fba:	c808                	sw	a0,16(s0)
200a7fbc:	0807e793          	ori	a5,a5,128
200a7fc0:	a45e                	sh	a5,12(s0)
200a7fc2:	47b2                	lw	a5,12(sp)
200a7fc4:	01342a23          	sw	s3,20(s0)
200a7fc8:	cf81                	beqz	a5,200a7fe0 <__smakebuf_r+0x8e>
200a7fca:	00e41583          	lh	a1,14(s0)
200a7fce:	8526                	mv	a0,s1
200a7fd0:	22f000ef          	jal	ra,200a89fe <_isatty_r>
200a7fd4:	c511                	beqz	a0,200a7fe0 <__smakebuf_r+0x8e>
200a7fd6:	245e                	lhu	a5,12(s0)
200a7fd8:	9bf1                	andi	a5,a5,-4
200a7fda:	0017e793          	ori	a5,a5,1
200a7fde:	a45e                	sh	a5,12(s0)
200a7fe0:	245e                	lhu	a5,12(s0)
200a7fe2:	0127e533          	or	a0,a5,s2
200a7fe6:	a44a                	sh	a0,12(s0)
200a7fe8:	b769                	j	200a7f72 <__smakebuf_r+0x20>

200a7fea <__ascii_mbtowc>:
200a7fea:	ed91                	bnez	a1,200a8006 <__ascii_mbtowc+0x1c>
200a7fec:	1141                	addi	sp,sp,-16
200a7fee:	006c                	addi	a1,sp,12
200a7ff0:	4501                	li	a0,0
200a7ff2:	ca01                	beqz	a2,200a8002 <__ascii_mbtowc+0x18>
200a7ff4:	5579                	li	a0,-2
200a7ff6:	c691                	beqz	a3,200a8002 <__ascii_mbtowc+0x18>
200a7ff8:	221c                	lbu	a5,0(a2)
200a7ffa:	c19c                	sw	a5,0(a1)
200a7ffc:	2208                	lbu	a0,0(a2)
200a7ffe:	00a03533          	snez	a0,a0
200a8002:	0141                	addi	sp,sp,16
200a8004:	8082                	ret
200a8006:	4501                	li	a0,0
200a8008:	ca09                	beqz	a2,200a801a <__ascii_mbtowc+0x30>
200a800a:	5579                	li	a0,-2
200a800c:	c699                	beqz	a3,200a801a <__ascii_mbtowc+0x30>
200a800e:	221c                	lbu	a5,0(a2)
200a8010:	c19c                	sw	a5,0(a1)
200a8012:	2208                	lbu	a0,0(a2)
200a8014:	00a03533          	snez	a0,a0
200a8018:	8082                	ret
200a801a:	8082                	ret

200a801c <memchr>:
200a801c:	0ff5f593          	zext.b	a1,a1
200a8020:	962a                	add	a2,a2,a0
200a8022:	00c51463          	bne	a0,a2,200a802a <memchr+0xe>
200a8026:	4501                	li	a0,0
200a8028:	8082                	ret
200a802a:	211c                	lbu	a5,0(a0)
200a802c:	feb78ee3          	beq	a5,a1,200a8028 <memchr+0xc>
200a8030:	0505                	addi	a0,a0,1
200a8032:	bfc5                	j	200a8022 <memchr+0x6>

200a8034 <__malloc_lock>:
200a8034:	0002e517          	auipc	a0,0x2e
200a8038:	cf850513          	addi	a0,a0,-776 # 200d5d2c <__lock___malloc_recursive_mutex>
200a803c:	eb9ff06f          	j	200a7ef4 <__retarget_lock_acquire_recursive>

200a8040 <__malloc_unlock>:
200a8040:	0002e517          	auipc	a0,0x2e
200a8044:	cec50513          	addi	a0,a0,-788 # 200d5d2c <__lock___malloc_recursive_mutex>
200a8048:	eafff06f          	j	200a7ef6 <__retarget_lock_release_recursive>

200a804c <_Balloc>:
200a804c:	515c                	lw	a5,36(a0)
200a804e:	1141                	addi	sp,sp,-16
200a8050:	c422                	sw	s0,8(sp)
200a8052:	c226                	sw	s1,4(sp)
200a8054:	c606                	sw	ra,12(sp)
200a8056:	c04a                	sw	s2,0(sp)
200a8058:	842a                	mv	s0,a0
200a805a:	84ae                	mv	s1,a1
200a805c:	ef89                	bnez	a5,200a8076 <_Balloc+0x2a>
200a805e:	4541                	li	a0,16
200a8060:	9a9fd0ef          	jal	ra,200a5a08 <malloc>
200a8064:	d048                	sw	a0,36(s0)
200a8066:	00052223          	sw	zero,4(a0)
200a806a:	00052423          	sw	zero,8(a0)
200a806e:	00052023          	sw	zero,0(a0)
200a8072:	00052623          	sw	zero,12(a0)
200a8076:	02442903          	lw	s2,36(s0)
200a807a:	00c92783          	lw	a5,12(s2)
200a807e:	c78d                	beqz	a5,200a80a8 <_Balloc+0x5c>
200a8080:	505c                	lw	a5,36(s0)
200a8082:	47dc                	lw	a5,12(a5)
200a8084:	20f4c7b3          	sh2add	a5,s1,a5
200a8088:	4388                	lw	a0,0(a5)
200a808a:	e129                	bnez	a0,200a80cc <_Balloc+0x80>
200a808c:	28901933          	bset	s2,zero,s1
200a8090:	00590613          	addi	a2,s2,5
200a8094:	060a                	slli	a2,a2,0x2
200a8096:	4585                	li	a1,1
200a8098:	8522                	mv	a0,s0
200a809a:	7da000ef          	jal	ra,200a8874 <_calloc_r>
200a809e:	c105                	beqz	a0,200a80be <_Balloc+0x72>
200a80a0:	c144                	sw	s1,4(a0)
200a80a2:	01252423          	sw	s2,8(a0)
200a80a6:	a02d                	j	200a80d0 <_Balloc+0x84>
200a80a8:	02100613          	li	a2,33
200a80ac:	4591                	li	a1,4
200a80ae:	8522                	mv	a0,s0
200a80b0:	7c4000ef          	jal	ra,200a8874 <_calloc_r>
200a80b4:	505c                	lw	a5,36(s0)
200a80b6:	00a92623          	sw	a0,12(s2)
200a80ba:	47dc                	lw	a5,12(a5)
200a80bc:	f3f1                	bnez	a5,200a8080 <_Balloc+0x34>
200a80be:	4501                	li	a0,0
200a80c0:	40b2                	lw	ra,12(sp)
200a80c2:	4422                	lw	s0,8(sp)
200a80c4:	4492                	lw	s1,4(sp)
200a80c6:	4902                	lw	s2,0(sp)
200a80c8:	0141                	addi	sp,sp,16
200a80ca:	8082                	ret
200a80cc:	4118                	lw	a4,0(a0)
200a80ce:	c398                	sw	a4,0(a5)
200a80d0:	00052823          	sw	zero,16(a0)
200a80d4:	00052623          	sw	zero,12(a0)
200a80d8:	b7e5                	j	200a80c0 <_Balloc+0x74>

200a80da <_Bfree>:
200a80da:	515c                	lw	a5,36(a0)
200a80dc:	1141                	addi	sp,sp,-16
200a80de:	c422                	sw	s0,8(sp)
200a80e0:	c226                	sw	s1,4(sp)
200a80e2:	c606                	sw	ra,12(sp)
200a80e4:	84aa                	mv	s1,a0
200a80e6:	842e                	mv	s0,a1
200a80e8:	ef89                	bnez	a5,200a8102 <_Bfree+0x28>
200a80ea:	4541                	li	a0,16
200a80ec:	91dfd0ef          	jal	ra,200a5a08 <malloc>
200a80f0:	d0c8                	sw	a0,36(s1)
200a80f2:	00052223          	sw	zero,4(a0)
200a80f6:	00052423          	sw	zero,8(a0)
200a80fa:	00052023          	sw	zero,0(a0)
200a80fe:	00052623          	sw	zero,12(a0)
200a8102:	c809                	beqz	s0,200a8114 <_Bfree+0x3a>
200a8104:	50d8                	lw	a4,36(s1)
200a8106:	405c                	lw	a5,4(s0)
200a8108:	4758                	lw	a4,12(a4)
200a810a:	20e7c7b3          	sh2add	a5,a5,a4
200a810e:	4398                	lw	a4,0(a5)
200a8110:	c018                	sw	a4,0(s0)
200a8112:	c380                	sw	s0,0(a5)
200a8114:	40b2                	lw	ra,12(sp)
200a8116:	4422                	lw	s0,8(sp)
200a8118:	4492                	lw	s1,4(sp)
200a811a:	0141                	addi	sp,sp,16
200a811c:	8082                	ret

200a811e <__multadd>:
200a811e:	1101                	addi	sp,sp,-32
200a8120:	cc22                	sw	s0,24(sp)
200a8122:	c84a                	sw	s2,16(sp)
200a8124:	c64e                	sw	s3,12(sp)
200a8126:	0105a903          	lw	s2,16(a1)
200a812a:	842e                	mv	s0,a1
200a812c:	89b6                	mv	s3,a3
200a812e:	01458693          	addi	a3,a1,20
200a8132:	65c1                	lui	a1,0x10
200a8134:	ca26                	sw	s1,20(sp)
200a8136:	ce06                	sw	ra,28(sp)
200a8138:	84aa                	mv	s1,a0
200a813a:	c452                	sw	s4,8(sp)
200a813c:	4501                	li	a0,0
200a813e:	15fd                	addi	a1,a1,-1 # ffff <__stack_size+0xf7ff>
200a8140:	429c                	lw	a5,0(a3)
200a8142:	0505                	addi	a0,a0,1
200a8144:	00b7f733          	and	a4,a5,a1
200a8148:	02c70733          	mul	a4,a4,a2
200a814c:	83c1                	srli	a5,a5,0x10
200a814e:	02c787b3          	mul	a5,a5,a2
200a8152:	974e                	add	a4,a4,s3
200a8154:	01075813          	srli	a6,a4,0x10
200a8158:	8f6d                	and	a4,a4,a1
200a815a:	97c2                	add	a5,a5,a6
200a815c:	0107d993          	srli	s3,a5,0x10
200a8160:	07c2                	slli	a5,a5,0x10
200a8162:	97ba                	add	a5,a5,a4
200a8164:	c29c                	sw	a5,0(a3)
200a8166:	0691                	addi	a3,a3,4
200a8168:	fd254ce3          	blt	a0,s2,200a8140 <__multadd+0x22>
200a816c:	04098d63          	beqz	s3,200a81c6 <__multadd+0xa8>
200a8170:	441c                	lw	a5,8(s0)
200a8172:	04f94363          	blt	s2,a5,200a81b8 <__multadd+0x9a>
200a8176:	404c                	lw	a1,4(s0)
200a8178:	8526                	mv	a0,s1
200a817a:	0585                	addi	a1,a1,1
200a817c:	ed1ff0ef          	jal	ra,200a804c <_Balloc>
200a8180:	8a2a                	mv	s4,a0
200a8182:	ed11                	bnez	a0,200a819e <__multadd+0x80>
200a8184:	00002697          	auipc	a3,0x2
200a8188:	c7c68693          	addi	a3,a3,-900 # 200a9e00 <_ctype_+0x114>
200a818c:	4601                	li	a2,0
200a818e:	0b500593          	li	a1,181
200a8192:	00002517          	auipc	a0,0x2
200a8196:	d6650513          	addi	a0,a0,-666 # 200a9ef8 <__sf_fake_stdin+0x30>
200a819a:	813fd0ef          	jal	ra,200a59ac <__assert_func>
200a819e:	4810                	lw	a2,16(s0)
200a81a0:	00c40593          	addi	a1,s0,12
200a81a4:	0531                	addi	a0,a0,12
200a81a6:	0609                	addi	a2,a2,2
200a81a8:	060a                	slli	a2,a2,0x2
200a81aa:	90af80ef          	jal	ra,200a02b4 <memcpy>
200a81ae:	85a2                	mv	a1,s0
200a81b0:	8526                	mv	a0,s1
200a81b2:	f29ff0ef          	jal	ra,200a80da <_Bfree>
200a81b6:	8452                	mv	s0,s4
200a81b8:	208947b3          	sh2add	a5,s2,s0
200a81bc:	0905                	addi	s2,s2,1
200a81be:	0137aa23          	sw	s3,20(a5)
200a81c2:	01242823          	sw	s2,16(s0)
200a81c6:	40f2                	lw	ra,28(sp)
200a81c8:	8522                	mv	a0,s0
200a81ca:	4462                	lw	s0,24(sp)
200a81cc:	44d2                	lw	s1,20(sp)
200a81ce:	4942                	lw	s2,16(sp)
200a81d0:	49b2                	lw	s3,12(sp)
200a81d2:	4a22                	lw	s4,8(sp)
200a81d4:	6105                	addi	sp,sp,32
200a81d6:	8082                	ret

200a81d8 <__hi0bits>:
200a81d8:	87aa                	mv	a5,a0
200a81da:	6741                	lui	a4,0x10
200a81dc:	4501                	li	a0,0
200a81de:	00e7f463          	bgeu	a5,a4,200a81e6 <__hi0bits+0xe>
200a81e2:	07c2                	slli	a5,a5,0x10
200a81e4:	4541                	li	a0,16
200a81e6:	01000737          	lui	a4,0x1000
200a81ea:	00e7f463          	bgeu	a5,a4,200a81f2 <__hi0bits+0x1a>
200a81ee:	0521                	addi	a0,a0,8
200a81f0:	07a2                	slli	a5,a5,0x8
200a81f2:	10000737          	lui	a4,0x10000
200a81f6:	00e7f463          	bgeu	a5,a4,200a81fe <__hi0bits+0x26>
200a81fa:	0511                	addi	a0,a0,4
200a81fc:	0792                	slli	a5,a5,0x4
200a81fe:	40000737          	lui	a4,0x40000
200a8202:	00e7e663          	bltu	a5,a4,200a820e <__hi0bits+0x36>
200a8206:	0007cf63          	bltz	a5,200a8224 <__hi0bits+0x4c>
200a820a:	0505                	addi	a0,a0,1
200a820c:	8082                	ret
200a820e:	078a                	slli	a5,a5,0x2
200a8210:	0007d463          	bgez	a5,200a8218 <__hi0bits+0x40>
200a8214:	0509                	addi	a0,a0,2
200a8216:	8082                	ret
200a8218:	8ff9                	and	a5,a5,a4
200a821a:	c399                	beqz	a5,200a8220 <__hi0bits+0x48>
200a821c:	050d                	addi	a0,a0,3
200a821e:	8082                	ret
200a8220:	02000513          	li	a0,32
200a8224:	8082                	ret

200a8226 <__lo0bits>:
200a8226:	411c                	lw	a5,0(a0)
200a8228:	872a                	mv	a4,a0
200a822a:	0077f693          	andi	a3,a5,7
200a822e:	c285                	beqz	a3,200a824e <__lo0bits+0x28>
200a8230:	0017f693          	andi	a3,a5,1
200a8234:	4501                	li	a0,0
200a8236:	eab9                	bnez	a3,200a828c <__lo0bits+0x66>
200a8238:	0027f693          	andi	a3,a5,2
200a823c:	c689                	beqz	a3,200a8246 <__lo0bits+0x20>
200a823e:	8385                	srli	a5,a5,0x1
200a8240:	c31c                	sw	a5,0(a4)
200a8242:	4505                	li	a0,1
200a8244:	8082                	ret
200a8246:	8389                	srli	a5,a5,0x2
200a8248:	c31c                	sw	a5,0(a4)
200a824a:	4509                	li	a0,2
200a824c:	8082                	ret
200a824e:	4501                	li	a0,0
200a8250:	0807c6b3          	zext.h	a3,a5
200a8254:	e299                	bnez	a3,200a825a <__lo0bits+0x34>
200a8256:	83c1                	srli	a5,a5,0x10
200a8258:	4541                	li	a0,16
200a825a:	0ff7f693          	zext.b	a3,a5
200a825e:	e299                	bnez	a3,200a8264 <__lo0bits+0x3e>
200a8260:	0521                	addi	a0,a0,8
200a8262:	83a1                	srli	a5,a5,0x8
200a8264:	00f7f693          	andi	a3,a5,15
200a8268:	e299                	bnez	a3,200a826e <__lo0bits+0x48>
200a826a:	0511                	addi	a0,a0,4
200a826c:	8391                	srli	a5,a5,0x4
200a826e:	0037f693          	andi	a3,a5,3
200a8272:	e299                	bnez	a3,200a8278 <__lo0bits+0x52>
200a8274:	0509                	addi	a0,a0,2
200a8276:	8389                	srli	a5,a5,0x2
200a8278:	0017f693          	andi	a3,a5,1
200a827c:	e681                	bnez	a3,200a8284 <__lo0bits+0x5e>
200a827e:	8385                	srli	a5,a5,0x1
200a8280:	0505                	addi	a0,a0,1
200a8282:	c399                	beqz	a5,200a8288 <__lo0bits+0x62>
200a8284:	c31c                	sw	a5,0(a4)
200a8286:	8082                	ret
200a8288:	02000513          	li	a0,32
200a828c:	8082                	ret

200a828e <__i2b>:
200a828e:	1141                	addi	sp,sp,-16
200a8290:	c422                	sw	s0,8(sp)
200a8292:	842e                	mv	s0,a1
200a8294:	4585                	li	a1,1
200a8296:	c606                	sw	ra,12(sp)
200a8298:	db5ff0ef          	jal	ra,200a804c <_Balloc>
200a829c:	ed11                	bnez	a0,200a82b8 <__i2b+0x2a>
200a829e:	00002697          	auipc	a3,0x2
200a82a2:	b6268693          	addi	a3,a3,-1182 # 200a9e00 <_ctype_+0x114>
200a82a6:	4601                	li	a2,0
200a82a8:	14000593          	li	a1,320
200a82ac:	00002517          	auipc	a0,0x2
200a82b0:	c4c50513          	addi	a0,a0,-948 # 200a9ef8 <__sf_fake_stdin+0x30>
200a82b4:	ef8fd0ef          	jal	ra,200a59ac <__assert_func>
200a82b8:	40b2                	lw	ra,12(sp)
200a82ba:	c940                	sw	s0,20(a0)
200a82bc:	4422                	lw	s0,8(sp)
200a82be:	4705                	li	a4,1
200a82c0:	c918                	sw	a4,16(a0)
200a82c2:	0141                	addi	sp,sp,16
200a82c4:	8082                	ret

200a82c6 <__multiply>:
200a82c6:	4998                	lw	a4,16(a1)
200a82c8:	4a1c                	lw	a5,16(a2)
200a82ca:	1101                	addi	sp,sp,-32
200a82cc:	cc22                	sw	s0,24(sp)
200a82ce:	c84a                	sw	s2,16(sp)
200a82d0:	ce06                	sw	ra,28(sp)
200a82d2:	ca26                	sw	s1,20(sp)
200a82d4:	c64e                	sw	s3,12(sp)
200a82d6:	c452                	sw	s4,8(sp)
200a82d8:	892e                	mv	s2,a1
200a82da:	8432                	mv	s0,a2
200a82dc:	00f74463          	blt	a4,a5,200a82e4 <__multiply+0x1e>
200a82e0:	842e                	mv	s0,a1
200a82e2:	8932                	mv	s2,a2
200a82e4:	01042a03          	lw	s4,16(s0)
200a82e8:	01092983          	lw	s3,16(s2)
200a82ec:	441c                	lw	a5,8(s0)
200a82ee:	404c                	lw	a1,4(s0)
200a82f0:	013a04b3          	add	s1,s4,s3
200a82f4:	0097d363          	bge	a5,s1,200a82fa <__multiply+0x34>
200a82f8:	0585                	addi	a1,a1,1
200a82fa:	d53ff0ef          	jal	ra,200a804c <_Balloc>
200a82fe:	ed11                	bnez	a0,200a831a <__multiply+0x54>
200a8300:	00002697          	auipc	a3,0x2
200a8304:	b0068693          	addi	a3,a3,-1280 # 200a9e00 <_ctype_+0x114>
200a8308:	4601                	li	a2,0
200a830a:	15d00593          	li	a1,349
200a830e:	00002517          	auipc	a0,0x2
200a8312:	bea50513          	addi	a0,a0,-1046 # 200a9ef8 <__sf_fake_stdin+0x30>
200a8316:	e96fd0ef          	jal	ra,200a59ac <__assert_func>
200a831a:	01450693          	addi	a3,a0,20
200a831e:	87b6                	mv	a5,a3
200a8320:	20d4c833          	sh2add	a6,s1,a3
200a8324:	0507e863          	bltu	a5,a6,200a8374 <__multiply+0xae>
200a8328:	01440313          	addi	t1,s0,20
200a832c:	01490593          	addi	a1,s2,20
200a8330:	01540793          	addi	a5,s0,21
200a8334:	4e11                	li	t3,4
200a8336:	206a4633          	sh2add	a2,s4,t1
200a833a:	20b9c8b3          	sh2add	a7,s3,a1
200a833e:	00f66863          	bltu	a2,a5,200a834e <__multiply+0x88>
200a8342:	40860433          	sub	s0,a2,s0
200a8346:	142d                	addi	s0,s0,-21
200a8348:	9871                	andi	s0,s0,-4
200a834a:	00440e13          	addi	t3,s0,4
200a834e:	6ec1                	lui	t4,0x10
200a8350:	1efd                	addi	t4,t4,-1 # ffff <__stack_size+0xf7ff>
200a8352:	0315e563          	bltu	a1,a7,200a837c <__multiply+0xb6>
200a8356:	00905663          	blez	s1,200a8362 <__multiply+0x9c>
200a835a:	ffc82783          	lw	a5,-4(a6) # fcbffffc <_eusrstack+0xdcaffffc>
200a835e:	1871                	addi	a6,a6,-4
200a8360:	cfe1                	beqz	a5,200a8438 <__multiply+0x172>
200a8362:	40f2                	lw	ra,28(sp)
200a8364:	4462                	lw	s0,24(sp)
200a8366:	c904                	sw	s1,16(a0)
200a8368:	4942                	lw	s2,16(sp)
200a836a:	44d2                	lw	s1,20(sp)
200a836c:	49b2                	lw	s3,12(sp)
200a836e:	4a22                	lw	s4,8(sp)
200a8370:	6105                	addi	sp,sp,32
200a8372:	8082                	ret
200a8374:	0007a023          	sw	zero,0(a5)
200a8378:	0791                	addi	a5,a5,4
200a837a:	b76d                	j	200a8324 <__multiply+0x5e>
200a837c:	0005af03          	lw	t5,0(a1)
200a8380:	01df7f33          	and	t5,t5,t4
200a8384:	040f0963          	beqz	t5,200a83d6 <__multiply+0x110>
200a8388:	82b6                	mv	t0,a3
200a838a:	8f9a                	mv	t6,t1
200a838c:	4401                	li	s0,0
200a838e:	000fa783          	lw	a5,0(t6)
200a8392:	0002a383          	lw	t2,0(t0)
200a8396:	0f91                	addi	t6,t6,4
200a8398:	01d7f733          	and	a4,a5,t4
200a839c:	03e70733          	mul	a4,a4,t5
200a83a0:	83c1                	srli	a5,a5,0x10
200a83a2:	01d3f933          	and	s2,t2,t4
200a83a6:	0103d393          	srli	t2,t2,0x10
200a83aa:	0291                	addi	t0,t0,4
200a83ac:	03e787b3          	mul	a5,a5,t5
200a83b0:	974a                	add	a4,a4,s2
200a83b2:	9722                	add	a4,a4,s0
200a83b4:	979e                	add	a5,a5,t2
200a83b6:	01075393          	srli	t2,a4,0x10
200a83ba:	979e                	add	a5,a5,t2
200a83bc:	0107d413          	srli	s0,a5,0x10
200a83c0:	01d77733          	and	a4,a4,t4
200a83c4:	07c2                	slli	a5,a5,0x10
200a83c6:	8fd9                	or	a5,a5,a4
200a83c8:	fef2ae23          	sw	a5,-4(t0)
200a83cc:	fccfe1e3          	bltu	t6,a2,200a838e <__multiply+0xc8>
200a83d0:	01c687b3          	add	a5,a3,t3
200a83d4:	c380                	sw	s0,0(a5)
200a83d6:	0025d383          	lhu	t2,2(a1)
200a83da:	04038c63          	beqz	t2,200a8432 <__multiply+0x16c>
200a83de:	429c                	lw	a5,0(a3)
200a83e0:	8f1a                	mv	t5,t1
200a83e2:	8fb6                	mv	t6,a3
200a83e4:	4281                	li	t0,0
200a83e6:	000f2703          	lw	a4,0(t5)
200a83ea:	002fd403          	lhu	s0,2(t6)
200a83ee:	01d7f7b3          	and	a5,a5,t4
200a83f2:	01d77733          	and	a4,a4,t4
200a83f6:	02770733          	mul	a4,a4,t2
200a83fa:	0f11                	addi	t5,t5,4
200a83fc:	0f91                	addi	t6,t6,4
200a83fe:	9722                	add	a4,a4,s0
200a8400:	9716                	add	a4,a4,t0
200a8402:	01071293          	slli	t0,a4,0x10
200a8406:	00f2e7b3          	or	a5,t0,a5
200a840a:	feffae23          	sw	a5,-4(t6)
200a840e:	ffef5783          	lhu	a5,-2(t5)
200a8412:	000fa283          	lw	t0,0(t6)
200a8416:	8341                	srli	a4,a4,0x10
200a8418:	027787b3          	mul	a5,a5,t2
200a841c:	01d2f2b3          	and	t0,t0,t4
200a8420:	9796                	add	a5,a5,t0
200a8422:	97ba                	add	a5,a5,a4
200a8424:	0107d293          	srli	t0,a5,0x10
200a8428:	facf6fe3          	bltu	t5,a2,200a83e6 <__multiply+0x120>
200a842c:	01c68733          	add	a4,a3,t3
200a8430:	c31c                	sw	a5,0(a4)
200a8432:	0591                	addi	a1,a1,4
200a8434:	0691                	addi	a3,a3,4
200a8436:	bf31                	j	200a8352 <__multiply+0x8c>
200a8438:	14fd                	addi	s1,s1,-1
200a843a:	bf31                	j	200a8356 <__multiply+0x90>

200a843c <__pow5mult>:
200a843c:	1101                	addi	sp,sp,-32
200a843e:	ca26                	sw	s1,20(sp)
200a8440:	c84a                	sw	s2,16(sp)
200a8442:	c64e                	sw	s3,12(sp)
200a8444:	ce06                	sw	ra,28(sp)
200a8446:	cc22                	sw	s0,24(sp)
200a8448:	c452                	sw	s4,8(sp)
200a844a:	00367793          	andi	a5,a2,3
200a844e:	89aa                	mv	s3,a0
200a8450:	84b2                	mv	s1,a2
200a8452:	892e                	mv	s2,a1
200a8454:	cf89                	beqz	a5,200a846e <__pow5mult+0x32>
200a8456:	00002717          	auipc	a4,0x2
200a845a:	b1670713          	addi	a4,a4,-1258 # 200a9f6c <p05.0>
200a845e:	20e7c7b3          	sh2add	a5,a5,a4
200a8462:	ffc7a603          	lw	a2,-4(a5)
200a8466:	4681                	li	a3,0
200a8468:	cb7ff0ef          	jal	ra,200a811e <__multadd>
200a846c:	892a                	mv	s2,a0
200a846e:	8489                	srai	s1,s1,0x2
200a8470:	cca5                	beqz	s1,200a84e8 <__pow5mult+0xac>
200a8472:	0249a783          	lw	a5,36(s3)
200a8476:	ef91                	bnez	a5,200a8492 <__pow5mult+0x56>
200a8478:	4541                	li	a0,16
200a847a:	d8efd0ef          	jal	ra,200a5a08 <malloc>
200a847e:	02a9a223          	sw	a0,36(s3)
200a8482:	00052223          	sw	zero,4(a0)
200a8486:	00052423          	sw	zero,8(a0)
200a848a:	00052023          	sw	zero,0(a0)
200a848e:	00052623          	sw	zero,12(a0)
200a8492:	0249aa03          	lw	s4,36(s3)
200a8496:	008a2403          	lw	s0,8(s4)
200a849a:	e819                	bnez	s0,200a84b0 <__pow5mult+0x74>
200a849c:	27100593          	li	a1,625
200a84a0:	854e                	mv	a0,s3
200a84a2:	dedff0ef          	jal	ra,200a828e <__i2b>
200a84a6:	00aa2423          	sw	a0,8(s4)
200a84aa:	842a                	mv	s0,a0
200a84ac:	00052023          	sw	zero,0(a0)
200a84b0:	0014f793          	andi	a5,s1,1
200a84b4:	cf81                	beqz	a5,200a84cc <__pow5mult+0x90>
200a84b6:	85ca                	mv	a1,s2
200a84b8:	8622                	mv	a2,s0
200a84ba:	854e                	mv	a0,s3
200a84bc:	e0bff0ef          	jal	ra,200a82c6 <__multiply>
200a84c0:	8a2a                	mv	s4,a0
200a84c2:	85ca                	mv	a1,s2
200a84c4:	854e                	mv	a0,s3
200a84c6:	c15ff0ef          	jal	ra,200a80da <_Bfree>
200a84ca:	8952                	mv	s2,s4
200a84cc:	8485                	srai	s1,s1,0x1
200a84ce:	cc89                	beqz	s1,200a84e8 <__pow5mult+0xac>
200a84d0:	4008                	lw	a0,0(s0)
200a84d2:	e909                	bnez	a0,200a84e4 <__pow5mult+0xa8>
200a84d4:	8622                	mv	a2,s0
200a84d6:	85a2                	mv	a1,s0
200a84d8:	854e                	mv	a0,s3
200a84da:	dedff0ef          	jal	ra,200a82c6 <__multiply>
200a84de:	c008                	sw	a0,0(s0)
200a84e0:	00052023          	sw	zero,0(a0)
200a84e4:	842a                	mv	s0,a0
200a84e6:	b7e9                	j	200a84b0 <__pow5mult+0x74>
200a84e8:	40f2                	lw	ra,28(sp)
200a84ea:	4462                	lw	s0,24(sp)
200a84ec:	44d2                	lw	s1,20(sp)
200a84ee:	49b2                	lw	s3,12(sp)
200a84f0:	4a22                	lw	s4,8(sp)
200a84f2:	854a                	mv	a0,s2
200a84f4:	4942                	lw	s2,16(sp)
200a84f6:	6105                	addi	sp,sp,32
200a84f8:	8082                	ret

200a84fa <__lshift>:
200a84fa:	1101                	addi	sp,sp,-32
200a84fc:	c84a                	sw	s2,16(sp)
200a84fe:	892e                	mv	s2,a1
200a8500:	c05a                	sw	s6,0(sp)
200a8502:	01092b03          	lw	s6,16(s2)
200a8506:	cc22                	sw	s0,24(sp)
200a8508:	41cc                	lw	a1,4(a1)
200a850a:	40565413          	srai	s0,a2,0x5
200a850e:	00892783          	lw	a5,8(s2)
200a8512:	9b22                	add	s6,s6,s0
200a8514:	ca26                	sw	s1,20(sp)
200a8516:	c64e                	sw	s3,12(sp)
200a8518:	c256                	sw	s5,4(sp)
200a851a:	ce06                	sw	ra,28(sp)
200a851c:	c452                	sw	s4,8(sp)
200a851e:	84aa                	mv	s1,a0
200a8520:	89b2                	mv	s3,a2
200a8522:	001b0a93          	addi	s5,s6,1
200a8526:	0357c463          	blt	a5,s5,200a854e <__lshift+0x54>
200a852a:	8526                	mv	a0,s1
200a852c:	b21ff0ef          	jal	ra,200a804c <_Balloc>
200a8530:	8a2a                	mv	s4,a0
200a8532:	e10d                	bnez	a0,200a8554 <__lshift+0x5a>
200a8534:	00002697          	auipc	a3,0x2
200a8538:	8cc68693          	addi	a3,a3,-1844 # 200a9e00 <_ctype_+0x114>
200a853c:	4601                	li	a2,0
200a853e:	1d900593          	li	a1,473
200a8542:	00002517          	auipc	a0,0x2
200a8546:	9b650513          	addi	a0,a0,-1610 # 200a9ef8 <__sf_fake_stdin+0x30>
200a854a:	c62fd0ef          	jal	ra,200a59ac <__assert_func>
200a854e:	0585                	addi	a1,a1,1
200a8550:	0786                	slli	a5,a5,0x1
200a8552:	bfd1                	j	200a8526 <__lshift+0x2c>
200a8554:	01450693          	addi	a3,a0,20
200a8558:	8736                	mv	a4,a3
200a855a:	4781                	li	a5,0
200a855c:	0887c463          	blt	a5,s0,200a85e4 <__lshift+0xea>
200a8560:	01092703          	lw	a4,16(s2)
200a8564:	4781                	li	a5,0
200a8566:	0af46433          	max	s0,s0,a5
200a856a:	01f9f613          	andi	a2,s3,31
200a856e:	01490793          	addi	a5,s2,20
200a8572:	20d44433          	sh2add	s0,s0,a3
200a8576:	20f74733          	sh2add	a4,a4,a5
200a857a:	ca35                	beqz	a2,200a85ee <__lshift+0xf4>
200a857c:	02000813          	li	a6,32
200a8580:	40c80833          	sub	a6,a6,a2
200a8584:	8522                	mv	a0,s0
200a8586:	4681                	li	a3,0
200a8588:	438c                	lw	a1,0(a5)
200a858a:	00c595b3          	sll	a1,a1,a2
200a858e:	8ecd                	or	a3,a3,a1
200a8590:	c114                	sw	a3,0(a0)
200a8592:	4394                	lw	a3,0(a5)
200a8594:	0791                	addi	a5,a5,4
200a8596:	0511                	addi	a0,a0,4
200a8598:	0106d6b3          	srl	a3,a3,a6
200a859c:	fee7e6e3          	bltu	a5,a4,200a8588 <__lshift+0x8e>
200a85a0:	01590793          	addi	a5,s2,21
200a85a4:	4611                	li	a2,4
200a85a6:	00f76863          	bltu	a4,a5,200a85b6 <__lshift+0xbc>
200a85aa:	41270733          	sub	a4,a4,s2
200a85ae:	172d                	addi	a4,a4,-21
200a85b0:	9b71                	andi	a4,a4,-4
200a85b2:	00470613          	addi	a2,a4,4
200a85b6:	9432                	add	s0,s0,a2
200a85b8:	c014                	sw	a3,0(s0)
200a85ba:	c299                	beqz	a3,200a85c0 <__lshift+0xc6>
200a85bc:	002b0a93          	addi	s5,s6,2
200a85c0:	1afd                	addi	s5,s5,-1
200a85c2:	015a2823          	sw	s5,16(s4)
200a85c6:	8526                	mv	a0,s1
200a85c8:	85ca                	mv	a1,s2
200a85ca:	b11ff0ef          	jal	ra,200a80da <_Bfree>
200a85ce:	40f2                	lw	ra,28(sp)
200a85d0:	4462                	lw	s0,24(sp)
200a85d2:	44d2                	lw	s1,20(sp)
200a85d4:	4942                	lw	s2,16(sp)
200a85d6:	49b2                	lw	s3,12(sp)
200a85d8:	4a92                	lw	s5,4(sp)
200a85da:	4b02                	lw	s6,0(sp)
200a85dc:	8552                	mv	a0,s4
200a85de:	4a22                	lw	s4,8(sp)
200a85e0:	6105                	addi	sp,sp,32
200a85e2:	8082                	ret
200a85e4:	00072023          	sw	zero,0(a4)
200a85e8:	0785                	addi	a5,a5,1
200a85ea:	0711                	addi	a4,a4,4
200a85ec:	bf85                	j	200a855c <__lshift+0x62>
200a85ee:	4394                	lw	a3,0(a5)
200a85f0:	0791                	addi	a5,a5,4
200a85f2:	c014                	sw	a3,0(s0)
200a85f4:	0411                	addi	s0,s0,4
200a85f6:	fee7ece3          	bltu	a5,a4,200a85ee <__lshift+0xf4>
200a85fa:	b7d9                	j	200a85c0 <__lshift+0xc6>

200a85fc <__mcmp>:
200a85fc:	4914                	lw	a3,16(a0)
200a85fe:	499c                	lw	a5,16(a1)
200a8600:	872a                	mv	a4,a0
200a8602:	40f68533          	sub	a0,a3,a5
200a8606:	02f69563          	bne	a3,a5,200a8630 <__mcmp+0x34>
200a860a:	0751                	addi	a4,a4,20
200a860c:	05d1                	addi	a1,a1,20
200a860e:	20e7c6b3          	sh2add	a3,a5,a4
200a8612:	20b7c7b3          	sh2add	a5,a5,a1
200a8616:	16f1                	addi	a3,a3,-4
200a8618:	17f1                	addi	a5,a5,-4
200a861a:	428c                	lw	a1,0(a3)
200a861c:	4390                	lw	a2,0(a5)
200a861e:	00c58763          	beq	a1,a2,200a862c <__mcmp+0x30>
200a8622:	4505                	li	a0,1
200a8624:	00c5f663          	bgeu	a1,a2,200a8630 <__mcmp+0x34>
200a8628:	557d                	li	a0,-1
200a862a:	8082                	ret
200a862c:	fed765e3          	bltu	a4,a3,200a8616 <__mcmp+0x1a>
200a8630:	8082                	ret

200a8632 <__mdiff>:
200a8632:	1101                	addi	sp,sp,-32
200a8634:	ca26                	sw	s1,20(sp)
200a8636:	84ae                	mv	s1,a1
200a8638:	c84a                	sw	s2,16(sp)
200a863a:	85b2                	mv	a1,a2
200a863c:	892a                	mv	s2,a0
200a863e:	8526                	mv	a0,s1
200a8640:	cc22                	sw	s0,24(sp)
200a8642:	ce06                	sw	ra,28(sp)
200a8644:	c64e                	sw	s3,12(sp)
200a8646:	8432                	mv	s0,a2
200a8648:	fb5ff0ef          	jal	ra,200a85fc <__mcmp>
200a864c:	ed15                	bnez	a0,200a8688 <__mdiff+0x56>
200a864e:	4581                	li	a1,0
200a8650:	854a                	mv	a0,s2
200a8652:	9fbff0ef          	jal	ra,200a804c <_Balloc>
200a8656:	ed11                	bnez	a0,200a8672 <__mdiff+0x40>
200a8658:	00001697          	auipc	a3,0x1
200a865c:	7a868693          	addi	a3,a3,1960 # 200a9e00 <_ctype_+0x114>
200a8660:	4601                	li	a2,0
200a8662:	23200593          	li	a1,562
200a8666:	00002517          	auipc	a0,0x2
200a866a:	89250513          	addi	a0,a0,-1902 # 200a9ef8 <__sf_fake_stdin+0x30>
200a866e:	b3efd0ef          	jal	ra,200a59ac <__assert_func>
200a8672:	4785                	li	a5,1
200a8674:	c91c                	sw	a5,16(a0)
200a8676:	00052a23          	sw	zero,20(a0)
200a867a:	40f2                	lw	ra,28(sp)
200a867c:	4462                	lw	s0,24(sp)
200a867e:	44d2                	lw	s1,20(sp)
200a8680:	4942                	lw	s2,16(sp)
200a8682:	49b2                	lw	s3,12(sp)
200a8684:	6105                	addi	sp,sp,32
200a8686:	8082                	ret
200a8688:	4981                	li	s3,0
200a868a:	00055663          	bgez	a0,200a8696 <__mdiff+0x64>
200a868e:	87a6                	mv	a5,s1
200a8690:	4985                	li	s3,1
200a8692:	84a2                	mv	s1,s0
200a8694:	843e                	mv	s0,a5
200a8696:	40cc                	lw	a1,4(s1)
200a8698:	854a                	mv	a0,s2
200a869a:	9b3ff0ef          	jal	ra,200a804c <_Balloc>
200a869e:	e909                	bnez	a0,200a86b0 <__mdiff+0x7e>
200a86a0:	00001697          	auipc	a3,0x1
200a86a4:	76068693          	addi	a3,a3,1888 # 200a9e00 <_ctype_+0x114>
200a86a8:	4601                	li	a2,0
200a86aa:	24000593          	li	a1,576
200a86ae:	bf65                	j	200a8666 <__mdiff+0x34>
200a86b0:	0104a803          	lw	a6,16(s1)
200a86b4:	481c                	lw	a5,16(s0)
200a86b6:	6ec1                	lui	t4,0x10
200a86b8:	01448893          	addi	a7,s1,20
200a86bc:	01440713          	addi	a4,s0,20
200a86c0:	01352623          	sw	s3,12(a0)
200a86c4:	01450593          	addi	a1,a0,20
200a86c8:	4e51                	li	t3,20
200a86ca:	4301                	li	t1,0
200a86cc:	1efd                	addi	t4,t4,-1 # ffff <__stack_size+0xf7ff>
200a86ce:	21184633          	sh2add	a2,a6,a7
200a86d2:	20e7c7b3          	sh2add	a5,a5,a4
200a86d6:	01c406b3          	add	a3,s0,t3
200a86da:	01c48733          	add	a4,s1,t3
200a86de:	0006af03          	lw	t5,0(a3)
200a86e2:	4318                	lw	a4,0(a4)
200a86e4:	01df7fb3          	and	t6,t5,t4
200a86e8:	01d776b3          	and	a3,a4,t4
200a86ec:	41f686b3          	sub	a3,a3,t6
200a86f0:	969a                	add	a3,a3,t1
200a86f2:	010f5f13          	srli	t5,t5,0x10
200a86f6:	8341                	srli	a4,a4,0x10
200a86f8:	4106d313          	srai	t1,a3,0x10
200a86fc:	41e70733          	sub	a4,a4,t5
200a8700:	971a                	add	a4,a4,t1
200a8702:	41075313          	srai	t1,a4,0x10
200a8706:	01d6f6b3          	and	a3,a3,t4
200a870a:	0742                	slli	a4,a4,0x10
200a870c:	01c50f33          	add	t5,a0,t3
200a8710:	8ed9                	or	a3,a3,a4
200a8712:	0e11                	addi	t3,t3,4
200a8714:	00df2023          	sw	a3,0(t5)
200a8718:	008e0733          	add	a4,t3,s0
200a871c:	faf76de3          	bltu	a4,a5,200a86d6 <__mdiff+0xa4>
200a8720:	01540693          	addi	a3,s0,21
200a8724:	4711                	li	a4,4
200a8726:	00d7e763          	bltu	a5,a3,200a8734 <__mdiff+0x102>
200a872a:	8f81                	sub	a5,a5,s0
200a872c:	17ad                	addi	a5,a5,-21
200a872e:	9bf1                	andi	a5,a5,-4
200a8730:	00478713          	addi	a4,a5,4
200a8734:	00e586b3          	add	a3,a1,a4
200a8738:	98ba                	add	a7,a7,a4
200a873a:	6e41                	lui	t3,0x10
200a873c:	8eb6                	mv	t4,a3
200a873e:	85c6                	mv	a1,a7
200a8740:	1e7d                	addi	t3,t3,-1 # ffff <__stack_size+0xf7ff>
200a8742:	02c5e463          	bltu	a1,a2,200a876a <__mdiff+0x138>
200a8746:	ffd88793          	addi	a5,a7,-3
200a874a:	4701                	li	a4,0
200a874c:	00f66763          	bltu	a2,a5,200a875a <__mdiff+0x128>
200a8750:	060d                	addi	a2,a2,3
200a8752:	41160633          	sub	a2,a2,a7
200a8756:	ffc67713          	andi	a4,a2,-4
200a875a:	00e687b3          	add	a5,a3,a4
200a875e:	17f1                	addi	a5,a5,-4
200a8760:	4398                	lw	a4,0(a5)
200a8762:	cb0d                	beqz	a4,200a8794 <__mdiff+0x162>
200a8764:	01052823          	sw	a6,16(a0)
200a8768:	bf09                	j	200a867a <__mdiff+0x48>
200a876a:	4198                	lw	a4,0(a1)
200a876c:	8f1a                	mv	t5,t1
200a876e:	0591                	addi	a1,a1,4
200a8770:	01c777b3          	and	a5,a4,t3
200a8774:	979a                	add	a5,a5,t1
200a8776:	87c1                	srai	a5,a5,0x10
200a8778:	01075313          	srli	t1,a4,0x10
200a877c:	979a                	add	a5,a5,t1
200a877e:	977a                	add	a4,a4,t5
200a8780:	4107d313          	srai	t1,a5,0x10
200a8784:	01c77733          	and	a4,a4,t3
200a8788:	07c2                	slli	a5,a5,0x10
200a878a:	8f5d                	or	a4,a4,a5
200a878c:	00eea023          	sw	a4,0(t4)
200a8790:	0e91                	addi	t4,t4,4
200a8792:	bf45                	j	200a8742 <__mdiff+0x110>
200a8794:	187d                	addi	a6,a6,-1
200a8796:	b7e1                	j	200a875e <__mdiff+0x12c>

200a8798 <__d2b>:
200a8798:	7179                	addi	sp,sp,-48
200a879a:	d422                	sw	s0,40(sp)
200a879c:	842e                	mv	s0,a1
200a879e:	4585                	li	a1,1
200a87a0:	d226                	sw	s1,36(sp)
200a87a2:	d04a                	sw	s2,32(sp)
200a87a4:	ce4e                	sw	s3,28(sp)
200a87a6:	d606                	sw	ra,44(sp)
200a87a8:	cc52                	sw	s4,24(sp)
200a87aa:	84b2                	mv	s1,a2
200a87ac:	89b6                	mv	s3,a3
200a87ae:	893a                	mv	s2,a4
200a87b0:	89dff0ef          	jal	ra,200a804c <_Balloc>
200a87b4:	ed11                	bnez	a0,200a87d0 <__d2b+0x38>
200a87b6:	00001697          	auipc	a3,0x1
200a87ba:	64a68693          	addi	a3,a3,1610 # 200a9e00 <_ctype_+0x114>
200a87be:	4601                	li	a2,0
200a87c0:	30a00593          	li	a1,778
200a87c4:	00001517          	auipc	a0,0x1
200a87c8:	73450513          	addi	a0,a0,1844 # 200a9ef8 <__sf_fake_stdin+0x30>
200a87cc:	9e0fd0ef          	jal	ra,200a59ac <__assert_func>
200a87d0:	00c49793          	slli	a5,s1,0xc
200a87d4:	80d1                	srli	s1,s1,0x14
200a87d6:	7ff4f493          	andi	s1,s1,2047
200a87da:	8a2a                	mv	s4,a0
200a87dc:	83b1                	srli	a5,a5,0xc
200a87de:	c099                	beqz	s1,200a87e4 <__d2b+0x4c>
200a87e0:	29479793          	bseti	a5,a5,0x14
200a87e4:	c63e                	sw	a5,12(sp)
200a87e6:	c035                	beqz	s0,200a884a <__d2b+0xb2>
200a87e8:	0028                	addi	a0,sp,8
200a87ea:	c422                	sw	s0,8(sp)
200a87ec:	a3bff0ef          	jal	ra,200a8226 <__lo0bits>
200a87f0:	4732                	lw	a4,12(sp)
200a87f2:	46a2                	lw	a3,8(sp)
200a87f4:	c921                	beqz	a0,200a8844 <__d2b+0xac>
200a87f6:	02000793          	li	a5,32
200a87fa:	8f89                	sub	a5,a5,a0
200a87fc:	00f717b3          	sll	a5,a4,a5
200a8800:	8fd5                	or	a5,a5,a3
200a8802:	00a75733          	srl	a4,a4,a0
200a8806:	00fa2a23          	sw	a5,20(s4)
200a880a:	c63a                	sw	a4,12(sp)
200a880c:	4432                	lw	s0,12(sp)
200a880e:	008a2c23          	sw	s0,24(s4)
200a8812:	00803433          	snez	s0,s0
200a8816:	0405                	addi	s0,s0,1
200a8818:	008a2823          	sw	s0,16(s4)
200a881c:	c0a9                	beqz	s1,200a885e <__d2b+0xc6>
200a881e:	bcd48493          	addi	s1,s1,-1075
200a8822:	94aa                	add	s1,s1,a0
200a8824:	0099a023          	sw	s1,0(s3)
200a8828:	03500413          	li	s0,53
200a882c:	8c09                	sub	s0,s0,a0
200a882e:	00892023          	sw	s0,0(s2)
200a8832:	50b2                	lw	ra,44(sp)
200a8834:	5422                	lw	s0,40(sp)
200a8836:	5492                	lw	s1,36(sp)
200a8838:	5902                	lw	s2,32(sp)
200a883a:	49f2                	lw	s3,28(sp)
200a883c:	8552                	mv	a0,s4
200a883e:	4a62                	lw	s4,24(sp)
200a8840:	6145                	addi	sp,sp,48
200a8842:	8082                	ret
200a8844:	00da2a23          	sw	a3,20(s4)
200a8848:	b7d1                	j	200a880c <__d2b+0x74>
200a884a:	0068                	addi	a0,sp,12
200a884c:	9dbff0ef          	jal	ra,200a8226 <__lo0bits>
200a8850:	47b2                	lw	a5,12(sp)
200a8852:	02050513          	addi	a0,a0,32
200a8856:	4405                	li	s0,1
200a8858:	00fa2a23          	sw	a5,20(s4)
200a885c:	bf75                	j	200a8818 <__d2b+0x80>
200a885e:	bce50793          	addi	a5,a0,-1074
200a8862:	00f9a023          	sw	a5,0(s3)
200a8866:	214447b3          	sh2add	a5,s0,s4
200a886a:	4b88                	lw	a0,16(a5)
200a886c:	0416                	slli	s0,s0,0x5
200a886e:	96bff0ef          	jal	ra,200a81d8 <__hi0bits>
200a8872:	bf6d                	j	200a882c <__d2b+0x94>

200a8874 <_calloc_r>:
200a8874:	02c5b733          	mulhu	a4,a1,a2
200a8878:	1101                	addi	sp,sp,-32
200a887a:	ce06                	sw	ra,28(sp)
200a887c:	cc22                	sw	s0,24(sp)
200a887e:	02c58633          	mul	a2,a1,a2
200a8882:	cb09                	beqz	a4,200a8894 <_calloc_r+0x20>
200a8884:	4731                	li	a4,12
200a8886:	c118                	sw	a4,0(a0)
200a8888:	4401                	li	s0,0
200a888a:	40f2                	lw	ra,28(sp)
200a888c:	8522                	mv	a0,s0
200a888e:	4462                	lw	s0,24(sp)
200a8890:	6105                	addi	sp,sp,32
200a8892:	8082                	ret
200a8894:	85b2                	mv	a1,a2
200a8896:	c632                	sw	a2,12(sp)
200a8898:	a7cfd0ef          	jal	ra,200a5b14 <_malloc_r>
200a889c:	842a                	mv	s0,a0
200a889e:	d56d                	beqz	a0,200a8888 <_calloc_r+0x14>
200a88a0:	4632                	lw	a2,12(sp)
200a88a2:	4581                	li	a1,0
200a88a4:	a27f70ef          	jal	ra,200a02ca <memset>
200a88a8:	b7cd                	j	200a888a <_calloc_r+0x16>

200a88aa <__sread>:
200a88aa:	1141                	addi	sp,sp,-16
200a88ac:	c422                	sw	s0,8(sp)
200a88ae:	842e                	mv	s0,a1
200a88b0:	00e59583          	lh	a1,14(a1)
200a88b4:	c606                	sw	ra,12(sp)
200a88b6:	2265                	jal	200a8a5e <_read_r>
200a88b8:	00054963          	bltz	a0,200a88ca <__sread+0x20>
200a88bc:	487c                	lw	a5,84(s0)
200a88be:	97aa                	add	a5,a5,a0
200a88c0:	c87c                	sw	a5,84(s0)
200a88c2:	40b2                	lw	ra,12(sp)
200a88c4:	4422                	lw	s0,8(sp)
200a88c6:	0141                	addi	sp,sp,16
200a88c8:	8082                	ret
200a88ca:	245e                	lhu	a5,12(s0)
200a88cc:	48c79793          	bclri	a5,a5,0xc
200a88d0:	a45e                	sh	a5,12(s0)
200a88d2:	bfc5                	j	200a88c2 <__sread+0x18>

200a88d4 <__swrite>:
200a88d4:	25de                	lhu	a5,12(a1)
200a88d6:	1101                	addi	sp,sp,-32
200a88d8:	cc22                	sw	s0,24(sp)
200a88da:	ca26                	sw	s1,20(sp)
200a88dc:	c84a                	sw	s2,16(sp)
200a88de:	c64e                	sw	s3,12(sp)
200a88e0:	ce06                	sw	ra,28(sp)
200a88e2:	1007f793          	andi	a5,a5,256
200a88e6:	84aa                	mv	s1,a0
200a88e8:	842e                	mv	s0,a1
200a88ea:	8932                	mv	s2,a2
200a88ec:	89b6                	mv	s3,a3
200a88ee:	c791                	beqz	a5,200a88fa <__swrite+0x26>
200a88f0:	00e59583          	lh	a1,14(a1)
200a88f4:	4689                	li	a3,2
200a88f6:	4601                	li	a2,0
200a88f8:	2a15                	jal	200a8a2c <_lseek_r>
200a88fa:	245e                	lhu	a5,12(s0)
200a88fc:	00e41583          	lh	a1,14(s0)
200a8900:	40f2                	lw	ra,28(sp)
200a8902:	48c79793          	bclri	a5,a5,0xc
200a8906:	a45e                	sh	a5,12(s0)
200a8908:	4462                	lw	s0,24(sp)
200a890a:	86ce                	mv	a3,s3
200a890c:	864a                	mv	a2,s2
200a890e:	49b2                	lw	s3,12(sp)
200a8910:	4942                	lw	s2,16(sp)
200a8912:	8526                	mv	a0,s1
200a8914:	44d2                	lw	s1,20(sp)
200a8916:	6105                	addi	sp,sp,32
200a8918:	a891                	j	200a896c <_write_r>

200a891a <__sseek>:
200a891a:	1141                	addi	sp,sp,-16
200a891c:	c422                	sw	s0,8(sp)
200a891e:	842e                	mv	s0,a1
200a8920:	00e59583          	lh	a1,14(a1)
200a8924:	c606                	sw	ra,12(sp)
200a8926:	2219                	jal	200a8a2c <_lseek_r>
200a8928:	577d                	li	a4,-1
200a892a:	245e                	lhu	a5,12(s0)
200a892c:	00e51963          	bne	a0,a4,200a893e <__sseek+0x24>
200a8930:	48c79793          	bclri	a5,a5,0xc
200a8934:	a45e                	sh	a5,12(s0)
200a8936:	40b2                	lw	ra,12(sp)
200a8938:	4422                	lw	s0,8(sp)
200a893a:	0141                	addi	sp,sp,16
200a893c:	8082                	ret
200a893e:	28c79793          	bseti	a5,a5,0xc
200a8942:	c868                	sw	a0,84(s0)
200a8944:	a45e                	sh	a5,12(s0)
200a8946:	bfc5                	j	200a8936 <__sseek+0x1c>

200a8948 <__sclose>:
200a8948:	00e59583          	lh	a1,14(a1)
200a894c:	a891                	j	200a89a0 <_close_r>

200a894e <__ascii_wctomb>:
200a894e:	cd89                	beqz	a1,200a8968 <__ascii_wctomb+0x1a>
200a8950:	0ff00793          	li	a5,255
200a8954:	00c7f763          	bgeu	a5,a2,200a8962 <__ascii_wctomb+0x14>
200a8958:	08a00793          	li	a5,138
200a895c:	c11c                	sw	a5,0(a0)
200a895e:	557d                	li	a0,-1
200a8960:	8082                	ret
200a8962:	a190                	sb	a2,0(a1)
200a8964:	4505                	li	a0,1
200a8966:	8082                	ret
200a8968:	4501                	li	a0,0
200a896a:	8082                	ret

200a896c <_write_r>:
200a896c:	1141                	addi	sp,sp,-16
200a896e:	c422                	sw	s0,8(sp)
200a8970:	842a                	mv	s0,a0
200a8972:	852e                	mv	a0,a1
200a8974:	85b2                	mv	a1,a2
200a8976:	8636                	mv	a2,a3
200a8978:	0002d797          	auipc	a5,0x2d
200a897c:	3c07a023          	sw	zero,960(a5) # 200d5d38 <errno>
200a8980:	c606                	sw	ra,12(sp)
200a8982:	ebef80ef          	jal	ra,200a1040 <_write>
200a8986:	57fd                	li	a5,-1
200a8988:	00f51863          	bne	a0,a5,200a8998 <_write_r+0x2c>
200a898c:	0002d797          	auipc	a5,0x2d
200a8990:	3ac7a783          	lw	a5,940(a5) # 200d5d38 <errno>
200a8994:	c391                	beqz	a5,200a8998 <_write_r+0x2c>
200a8996:	c01c                	sw	a5,0(s0)
200a8998:	40b2                	lw	ra,12(sp)
200a899a:	4422                	lw	s0,8(sp)
200a899c:	0141                	addi	sp,sp,16
200a899e:	8082                	ret

200a89a0 <_close_r>:
200a89a0:	1141                	addi	sp,sp,-16
200a89a2:	c422                	sw	s0,8(sp)
200a89a4:	842a                	mv	s0,a0
200a89a6:	852e                	mv	a0,a1
200a89a8:	0002d797          	auipc	a5,0x2d
200a89ac:	3807a823          	sw	zero,912(a5) # 200d5d38 <errno>
200a89b0:	c606                	sw	ra,12(sp)
200a89b2:	2ea9                	jal	200a8d0c <_close>
200a89b4:	57fd                	li	a5,-1
200a89b6:	00f51863          	bne	a0,a5,200a89c6 <_close_r+0x26>
200a89ba:	0002d797          	auipc	a5,0x2d
200a89be:	37e7a783          	lw	a5,894(a5) # 200d5d38 <errno>
200a89c2:	c391                	beqz	a5,200a89c6 <_close_r+0x26>
200a89c4:	c01c                	sw	a5,0(s0)
200a89c6:	40b2                	lw	ra,12(sp)
200a89c8:	4422                	lw	s0,8(sp)
200a89ca:	0141                	addi	sp,sp,16
200a89cc:	8082                	ret

200a89ce <_fstat_r>:
200a89ce:	1141                	addi	sp,sp,-16
200a89d0:	c422                	sw	s0,8(sp)
200a89d2:	842a                	mv	s0,a0
200a89d4:	852e                	mv	a0,a1
200a89d6:	85b2                	mv	a1,a2
200a89d8:	0002d797          	auipc	a5,0x2d
200a89dc:	3607a023          	sw	zero,864(a5) # 200d5d38 <errno>
200a89e0:	c606                	sw	ra,12(sp)
200a89e2:	2e2d                	jal	200a8d1c <_fstat>
200a89e4:	57fd                	li	a5,-1
200a89e6:	00f51863          	bne	a0,a5,200a89f6 <_fstat_r+0x28>
200a89ea:	0002d797          	auipc	a5,0x2d
200a89ee:	34e7a783          	lw	a5,846(a5) # 200d5d38 <errno>
200a89f2:	c391                	beqz	a5,200a89f6 <_fstat_r+0x28>
200a89f4:	c01c                	sw	a5,0(s0)
200a89f6:	40b2                	lw	ra,12(sp)
200a89f8:	4422                	lw	s0,8(sp)
200a89fa:	0141                	addi	sp,sp,16
200a89fc:	8082                	ret

200a89fe <_isatty_r>:
200a89fe:	1141                	addi	sp,sp,-16
200a8a00:	c422                	sw	s0,8(sp)
200a8a02:	842a                	mv	s0,a0
200a8a04:	852e                	mv	a0,a1
200a8a06:	0002d797          	auipc	a5,0x2d
200a8a0a:	3207a923          	sw	zero,818(a5) # 200d5d38 <errno>
200a8a0e:	c606                	sw	ra,12(sp)
200a8a10:	2635                	jal	200a8d3c <_isatty>
200a8a12:	57fd                	li	a5,-1
200a8a14:	00f51863          	bne	a0,a5,200a8a24 <_isatty_r+0x26>
200a8a18:	0002d797          	auipc	a5,0x2d
200a8a1c:	3207a783          	lw	a5,800(a5) # 200d5d38 <errno>
200a8a20:	c391                	beqz	a5,200a8a24 <_isatty_r+0x26>
200a8a22:	c01c                	sw	a5,0(s0)
200a8a24:	40b2                	lw	ra,12(sp)
200a8a26:	4422                	lw	s0,8(sp)
200a8a28:	0141                	addi	sp,sp,16
200a8a2a:	8082                	ret

200a8a2c <_lseek_r>:
200a8a2c:	1141                	addi	sp,sp,-16
200a8a2e:	c422                	sw	s0,8(sp)
200a8a30:	842a                	mv	s0,a0
200a8a32:	852e                	mv	a0,a1
200a8a34:	85b2                	mv	a1,a2
200a8a36:	8636                	mv	a2,a3
200a8a38:	0002d797          	auipc	a5,0x2d
200a8a3c:	3007a023          	sw	zero,768(a5) # 200d5d38 <errno>
200a8a40:	c606                	sw	ra,12(sp)
200a8a42:	2e29                	jal	200a8d5c <_lseek>
200a8a44:	57fd                	li	a5,-1
200a8a46:	00f51863          	bne	a0,a5,200a8a56 <_lseek_r+0x2a>
200a8a4a:	0002d797          	auipc	a5,0x2d
200a8a4e:	2ee7a783          	lw	a5,750(a5) # 200d5d38 <errno>
200a8a52:	c391                	beqz	a5,200a8a56 <_lseek_r+0x2a>
200a8a54:	c01c                	sw	a5,0(s0)
200a8a56:	40b2                	lw	ra,12(sp)
200a8a58:	4422                	lw	s0,8(sp)
200a8a5a:	0141                	addi	sp,sp,16
200a8a5c:	8082                	ret

200a8a5e <_read_r>:
200a8a5e:	1141                	addi	sp,sp,-16
200a8a60:	c422                	sw	s0,8(sp)
200a8a62:	842a                	mv	s0,a0
200a8a64:	852e                	mv	a0,a1
200a8a66:	85b2                	mv	a1,a2
200a8a68:	8636                	mv	a2,a3
200a8a6a:	0002d797          	auipc	a5,0x2d
200a8a6e:	2c07a723          	sw	zero,718(a5) # 200d5d38 <errno>
200a8a72:	c606                	sw	ra,12(sp)
200a8a74:	2ce5                	jal	200a8d6c <_read>
200a8a76:	57fd                	li	a5,-1
200a8a78:	00f51863          	bne	a0,a5,200a8a88 <_read_r+0x2a>
200a8a7c:	0002d797          	auipc	a5,0x2d
200a8a80:	2bc7a783          	lw	a5,700(a5) # 200d5d38 <errno>
200a8a84:	c391                	beqz	a5,200a8a88 <_read_r+0x2a>
200a8a86:	c01c                	sw	a5,0(s0)
200a8a88:	40b2                	lw	ra,12(sp)
200a8a8a:	4422                	lw	s0,8(sp)
200a8a8c:	0141                	addi	sp,sp,16
200a8a8e:	8082                	ret

200a8a90 <__trunctfdf2>:
200a8a90:	454c                	lw	a1,12(a0)
200a8a92:	00052803          	lw	a6,0(a0)
200a8a96:	451c                	lw	a5,8(a0)
200a8a98:	4154                	lw	a3,4(a0)
200a8a9a:	1101                	addi	sp,sp,-32
200a8a9c:	00159713          	slli	a4,a1,0x1
200a8aa0:	0805c633          	zext.h	a2,a1
200a8aa4:	c042                	sw	a6,0(sp)
200a8aa6:	c43e                	sw	a5,8(sp)
200a8aa8:	c62e                	sw	a1,12(sp)
200a8aaa:	c842                	sw	a6,16(sp)
200a8aac:	cc3e                	sw	a5,24(sp)
200a8aae:	c236                	sw	a3,4(sp)
200a8ab0:	ca36                	sw	a3,20(sp)
200a8ab2:	ce32                	sw	a2,28(sp)
200a8ab4:	8345                	srli	a4,a4,0x11
200a8ab6:	81fd                	srli	a1,a1,0x1f
200a8ab8:	01010813          	addi	a6,sp,16
200a8abc:	087c                	addi	a5,sp,28
200a8abe:	00361513          	slli	a0,a2,0x3
200a8ac2:	ffc7a603          	lw	a2,-4(a5)
200a8ac6:	17f1                	addi	a5,a5,-4
200a8ac8:	01d65693          	srli	a3,a2,0x1d
200a8acc:	8ec9                	or	a3,a3,a0
200a8ace:	c3d4                	sw	a3,4(a5)
200a8ad0:	fef817e3          	bne	a6,a5,200a8abe <__trunctfdf2+0x2e>
200a8ad4:	4642                	lw	a2,16(sp)
200a8ad6:	6521                	lui	a0,0x8
200a8ad8:	00170693          	addi	a3,a4,1
200a8adc:	060e                	slli	a2,a2,0x3
200a8ade:	1579                	addi	a0,a0,-2 # 7ffe <__stack_size+0x77fe>
200a8ae0:	c832                	sw	a2,16(sp)
200a8ae2:	8ee9                	and	a3,a3,a0
200a8ae4:	ce91                	beqz	a3,200a8b00 <__trunctfdf2+0x70>
200a8ae6:	76f1                	lui	a3,0xffffc
200a8ae8:	40068693          	addi	a3,a3,1024 # ffffc400 <_eusrstack+0xdfefc400>
200a8aec:	9736                	add	a4,a4,a3
200a8aee:	7fe00693          	li	a3,2046
200a8af2:	08e6d063          	bge	a3,a4,200a8b72 <__trunctfdf2+0xe2>
200a8af6:	7ff00713          	li	a4,2047
200a8afa:	4501                	li	a0,0
200a8afc:	4601                	li	a2,0
200a8afe:	a819                	j	200a8b14 <__trunctfdf2+0x84>
200a8b00:	47d2                	lw	a5,20(sp)
200a8b02:	46e2                	lw	a3,24(sp)
200a8b04:	4572                	lw	a0,28(sp)
200a8b06:	ef19                	bnez	a4,200a8b24 <__trunctfdf2+0x94>
200a8b08:	4501                	li	a0,0
200a8b0a:	4601                	li	a2,0
200a8b0c:	0532                	slli	a0,a0,0xc
200a8b0e:	8131                	srli	a0,a0,0xc
200a8b10:	7ff77713          	andi	a4,a4,2047
200a8b14:	0752                	slli	a4,a4,0x14
200a8b16:	8f49                	or	a4,a4,a0
200a8b18:	05fe                	slli	a1,a1,0x1f
200a8b1a:	8f4d                	or	a4,a4,a1
200a8b1c:	8532                	mv	a0,a2
200a8b1e:	85ba                	mv	a1,a4
200a8b20:	6105                	addi	sp,sp,32
200a8b22:	8082                	ret
200a8b24:	00d7e733          	or	a4,a5,a3
200a8b28:	8f49                	or	a4,a4,a0
200a8b2a:	8f51                	or	a4,a4,a2
200a8b2c:	d769                	beqz	a4,200a8af6 <__trunctfdf2+0x66>
200a8b2e:	00469713          	slli	a4,a3,0x4
200a8b32:	83f1                	srli	a5,a5,0x1c
200a8b34:	8fd9                	or	a5,a5,a4
200a8b36:	82f1                	srli	a3,a3,0x1c
200a8b38:	0512                	slli	a0,a0,0x4
200a8b3a:	8ec9                	or	a3,a3,a0
200a8b3c:	9be1                	andi	a5,a5,-8
200a8b3e:	7ff00713          	li	a4,2047
200a8b42:	29669693          	bseti	a3,a3,0x16
200a8b46:	00800637          	lui	a2,0x800
200a8b4a:	8e75                	and	a2,a2,a3
200a8b4c:	e63d                	bnez	a2,200a8bba <__trunctfdf2+0x12a>
200a8b4e:	01d69513          	slli	a0,a3,0x1d
200a8b52:	838d                	srli	a5,a5,0x3
200a8b54:	7ff00813          	li	a6,2047
200a8b58:	8fc9                	or	a5,a5,a0
200a8b5a:	0036d513          	srli	a0,a3,0x3
200a8b5e:	1b071563          	bne	a4,a6,200a8d08 <__trunctfdf2+0x278>
200a8b62:	8fc9                	or	a5,a5,a0
200a8b64:	dbc9                	beqz	a5,200a8af6 <__trunctfdf2+0x66>
200a8b66:	4581                	li	a1,0
200a8b68:	7ff00713          	li	a4,2047
200a8b6c:	00080537          	lui	a0,0x80
200a8b70:	b755                	j	200a8b14 <__trunctfdf2+0x84>
200a8b72:	06e05f63          	blez	a4,200a8bf0 <__trunctfdf2+0x160>
200a8b76:	46d2                	lw	a3,20(sp)
200a8b78:	4562                	lw	a0,24(sp)
200a8b7a:	00469793          	slli	a5,a3,0x4
200a8b7e:	8fd1                	or	a5,a5,a2
200a8b80:	82f1                	srli	a3,a3,0x1c
200a8b82:	00451613          	slli	a2,a0,0x4
200a8b86:	8e55                	or	a2,a2,a3
200a8b88:	46f2                	lw	a3,28(sp)
200a8b8a:	00f037b3          	snez	a5,a5
200a8b8e:	8171                	srli	a0,a0,0x1c
200a8b90:	0692                	slli	a3,a3,0x4
200a8b92:	8fd1                	or	a5,a5,a2
200a8b94:	8ec9                	or	a3,a3,a0
200a8b96:	0077f613          	andi	a2,a5,7
200a8b9a:	d655                	beqz	a2,200a8b46 <__trunctfdf2+0xb6>
200a8b9c:	00f7f613          	andi	a2,a5,15
200a8ba0:	4511                	li	a0,4
200a8ba2:	00a60863          	beq	a2,a0,200a8bb2 <__trunctfdf2+0x122>
200a8ba6:	00478613          	addi	a2,a5,4
200a8baa:	00f637b3          	sltu	a5,a2,a5
200a8bae:	96be                	add	a3,a3,a5
200a8bb0:	87b2                	mv	a5,a2
200a8bb2:	00800637          	lui	a2,0x800
200a8bb6:	8e75                	and	a2,a2,a3
200a8bb8:	c645                	beqz	a2,200a8c60 <__trunctfdf2+0x1d0>
200a8bba:	00170813          	addi	a6,a4,1
200a8bbe:	7ff00713          	li	a4,2047
200a8bc2:	4501                	li	a0,0
200a8bc4:	4601                	li	a2,0
200a8bc6:	49769693          	bclri	a3,a3,0x17
200a8bca:	f4e805e3          	beq	a6,a4,200a8b14 <__trunctfdf2+0x84>
200a8bce:	01d69613          	slli	a2,a3,0x1d
200a8bd2:	7ff87713          	andi	a4,a6,2047
200a8bd6:	06a6                	slli	a3,a3,0x9
200a8bd8:	00c6d513          	srli	a0,a3,0xc
200a8bdc:	0752                	slli	a4,a4,0x14
200a8bde:	8f49                	or	a4,a4,a0
200a8be0:	05fe                	slli	a1,a1,0x1f
200a8be2:	838d                	srli	a5,a5,0x3
200a8be4:	8e5d                	or	a2,a2,a5
200a8be6:	8f4d                	or	a4,a4,a1
200a8be8:	8532                	mv	a0,a2
200a8bea:	85ba                	mv	a1,a4
200a8bec:	6105                	addi	sp,sp,32
200a8bee:	8082                	ret
200a8bf0:	fcc00693          	li	a3,-52
200a8bf4:	06d74363          	blt	a4,a3,200a8c5a <__trunctfdf2+0x1ca>
200a8bf8:	4ef2                	lw	t4,28(sp)
200a8bfa:	03d00693          	li	a3,61
200a8bfe:	8e99                	sub	a3,a3,a4
200a8c00:	4056d513          	srai	a0,a3,0x5
200a8c04:	293e9e93          	bseti	t4,t4,0x13
200a8c08:	8afd                	andi	a3,a3,31
200a8c0a:	ce76                	sw	t4,28(sp)
200a8c0c:	00251893          	slli	a7,a0,0x2
200a8c10:	8642                	mv	a2,a6
200a8c12:	4701                	li	a4,0
200a8c14:	21054e33          	sh2add	t3,a0,a6
200a8c18:	00062303          	lw	t1,0(a2) # 800000 <_data_lma+0x7c5e58>
200a8c1c:	0611                	addi	a2,a2,4
200a8c1e:	00676733          	or	a4,a4,t1
200a8c22:	fece1be3          	bne	t3,a2,200a8c18 <__trunctfdf2+0x188>
200a8c26:	430d                	li	t1,3
200a8c28:	40a30333          	sub	t1,t1,a0
200a8c2c:	e2a9                	bnez	a3,200a8c6e <__trunctfdf2+0x1de>
200a8c2e:	000e2603          	lw	a2,0(t3)
200a8c32:	0685                	addi	a3,a3,1
200a8c34:	0791                	addi	a5,a5,4
200a8c36:	fec7ae23          	sw	a2,-4(a5)
200a8c3a:	00d34c63          	blt	t1,a3,200a8c52 <__trunctfdf2+0x1c2>
200a8c3e:	01178e33          	add	t3,a5,a7
200a8c42:	000e2603          	lw	a2,0(t3)
200a8c46:	0685                	addi	a3,a3,1
200a8c48:	0791                	addi	a5,a5,4
200a8c4a:	fec7ae23          	sw	a2,-4(a5)
200a8c4e:	fed358e3          	bge	t1,a3,200a8c3e <__trunctfdf2+0x1ae>
200a8c52:	4791                	li	a5,4
200a8c54:	40a78533          	sub	a0,a5,a0
200a8c58:	a88d                	j	200a8cca <__trunctfdf2+0x23a>
200a8c5a:	4701                	li	a4,0
200a8c5c:	4795                	li	a5,5
200a8c5e:	4681                	li	a3,0
200a8c60:	01d69613          	slli	a2,a3,0x1d
200a8c64:	838d                	srli	a5,a5,0x3
200a8c66:	8e5d                	or	a2,a2,a5
200a8c68:	0036d513          	srli	a0,a3,0x3
200a8c6c:	b545                	j	200a8b0c <__trunctfdf2+0x7c>
200a8c6e:	02088613          	addi	a2,a7,32
200a8c72:	960a                	add	a2,a2,sp
200a8c74:	ff062603          	lw	a2,-16(a2)
200a8c78:	02000f13          	li	t5,32
200a8c7c:	40df0f33          	sub	t5,t5,a3
200a8c80:	01e61633          	sll	a2,a2,t5
200a8c84:	8f51                	or	a4,a4,a2
200a8c86:	06030e63          	beqz	t1,200a8d02 <__trunctfdf2+0x272>
200a8c8a:	01180633          	add	a2,a6,a7
200a8c8e:	00231f93          	slli	t6,t1,0x2
200a8c92:	20f34333          	sh2add	t1,t1,a5
200a8c96:	00062883          	lw	a7,0(a2)
200a8c9a:	00462e03          	lw	t3,4(a2)
200a8c9e:	0791                	addi	a5,a5,4
200a8ca0:	00d8d8b3          	srl	a7,a7,a3
200a8ca4:	01ee1e33          	sll	t3,t3,t5
200a8ca8:	01c8e8b3          	or	a7,a7,t3
200a8cac:	ff17ae23          	sw	a7,-4(a5)
200a8cb0:	0611                	addi	a2,a2,4
200a8cb2:	fef312e3          	bne	t1,a5,200a8c96 <__trunctfdf2+0x206>
200a8cb6:	4791                	li	a5,4
200a8cb8:	40a78533          	sub	a0,a5,a0
200a8cbc:	020f8793          	addi	a5,t6,32
200a8cc0:	978a                	add	a5,a5,sp
200a8cc2:	00dedeb3          	srl	t4,t4,a3
200a8cc6:	ffd7a823          	sw	t4,-16(a5)
200a8cca:	4691                	li	a3,4
200a8ccc:	8e89                	sub	a3,a3,a0
200a8cce:	068a                	slli	a3,a3,0x2
200a8cd0:	4621                	li	a2,8
200a8cd2:	210547b3          	sh2add	a5,a0,a6
200a8cd6:	00c6e863          	bltu	a3,a2,200a8ce6 <__trunctfdf2+0x256>
200a8cda:	0007a023          	sw	zero,0(a5)
200a8cde:	0007a223          	sw	zero,4(a5)
200a8ce2:	16e1                	addi	a3,a3,-8
200a8ce4:	07a1                	addi	a5,a5,8
200a8ce6:	4611                	li	a2,4
200a8ce8:	00c6e463          	bltu	a3,a2,200a8cf0 <__trunctfdf2+0x260>
200a8cec:	0007a023          	sw	zero,0(a5)
200a8cf0:	00e037b3          	snez	a5,a4
200a8cf4:	4742                	lw	a4,16(sp)
200a8cf6:	46d2                	lw	a3,20(sp)
200a8cf8:	8fd9                	or	a5,a5,a4
200a8cfa:	0077f613          	andi	a2,a5,7
200a8cfe:	4701                	li	a4,0
200a8d00:	bd69                	j	200a8b9a <__trunctfdf2+0x10a>
200a8d02:	4505                	li	a0,1
200a8d04:	4f81                	li	t6,0
200a8d06:	bf5d                	j	200a8cbc <__trunctfdf2+0x22c>
200a8d08:	863e                	mv	a2,a5
200a8d0a:	b509                	j	200a8b0c <__trunctfdf2+0x7c>

200a8d0c <_close>:
200a8d0c:	05800793          	li	a5,88
200a8d10:	0002d717          	auipc	a4,0x2d
200a8d14:	02f72423          	sw	a5,40(a4) # 200d5d38 <errno>
200a8d18:	557d                	li	a0,-1
200a8d1a:	8082                	ret

200a8d1c <_fstat>:
200a8d1c:	05800793          	li	a5,88
200a8d20:	0002d717          	auipc	a4,0x2d
200a8d24:	00f72c23          	sw	a5,24(a4) # 200d5d38 <errno>
200a8d28:	557d                	li	a0,-1
200a8d2a:	8082                	ret

200a8d2c <_getpid>:
200a8d2c:	05800793          	li	a5,88
200a8d30:	0002d717          	auipc	a4,0x2d
200a8d34:	00f72423          	sw	a5,8(a4) # 200d5d38 <errno>
200a8d38:	557d                	li	a0,-1
200a8d3a:	8082                	ret

200a8d3c <_isatty>:
200a8d3c:	05800793          	li	a5,88
200a8d40:	0002d717          	auipc	a4,0x2d
200a8d44:	fef72c23          	sw	a5,-8(a4) # 200d5d38 <errno>
200a8d48:	4501                	li	a0,0
200a8d4a:	8082                	ret

200a8d4c <_kill>:
200a8d4c:	05800793          	li	a5,88
200a8d50:	0002d717          	auipc	a4,0x2d
200a8d54:	fef72423          	sw	a5,-24(a4) # 200d5d38 <errno>
200a8d58:	557d                	li	a0,-1
200a8d5a:	8082                	ret

200a8d5c <_lseek>:
200a8d5c:	05800793          	li	a5,88
200a8d60:	0002d717          	auipc	a4,0x2d
200a8d64:	fcf72c23          	sw	a5,-40(a4) # 200d5d38 <errno>
200a8d68:	557d                	li	a0,-1
200a8d6a:	8082                	ret

200a8d6c <_read>:
200a8d6c:	05800793          	li	a5,88
200a8d70:	0002d717          	auipc	a4,0x2d
200a8d74:	fcf72423          	sw	a5,-56(a4) # 200d5d38 <errno>
200a8d78:	557d                	li	a0,-1
200a8d7a:	8082                	ret

200a8d7c <_exit>:
200a8d7c:	a001                	j	200a8d7c <_exit>
200a8d7e:	0000                	unimp
200a8d80:	6552                	.2byte	0x6552
200a8d82:	616c                	.2byte	0x616c
200a8d84:	2079                	jal	200a8e12 <_exit+0x96>
200a8d86:	6425                	lui	s0,0x9
200a8d88:	4f20                	lw	s0,88(a4)
200a8d8a:	204e                	lhu	a1,4(s0)
200a8d8c:	5028                	lw	a0,96(s0)
200a8d8e:	6e69                	lui	t3,0x1a
200a8d90:	5020                	lw	s0,96(s0)
200a8d92:	2545                	jal	200a9432 <yuv_uxga+0x4a>
200a8d94:	2064                	lbu	s1,6(s0)
200a8d96:	4f4c                	lw	a1,28(a4)
200a8d98:	0a0d2957          	.4byte	0xa0d2957
200a8d9c:	0000                	unimp
200a8d9e:	0000                	unimp
200a8da0:	6552                	.2byte	0x6552
200a8da2:	616c                	.2byte	0x616c
200a8da4:	2079                	jal	200a8e32 <_exit+0xb6>
200a8da6:	6425                	lui	s0,0x9
200a8da8:	4f20                	lw	s0,88(a4)
200a8daa:	4646                	lw	a2,80(sp)
200a8dac:	2820                	lbu	s0,18(s0)
200a8dae:	6950                	.2byte	0x6950
200a8db0:	206e                	lhu	a1,6(s0)
200a8db2:	4550                	lw	a2,12(a0)
200a8db4:	6425                	lui	s0,0x9
200a8db6:	4820                	lw	s0,80(s0)
200a8db8:	4749                	li	a4,18
200a8dba:	2948                	lbu	a0,20(a0)
200a8dbc:	0a0d                	addi	s4,s4,3
200a8dbe:	0000                	unimp
200a8dc0:	6552                	.2byte	0x6552
200a8dc2:	616c                	.2byte	0x616c
200a8dc4:	2079                	jal	200a8e52 <_exit+0xd6>
200a8dc6:	746e6f63          	bltu	t3,t1,200a9524 <yuv_uxga+0x13c>
200a8dca:	6f72                	.2byte	0x6f72
200a8dcc:	206c                	lbu	a1,6(s0)
200a8dce:	6970                	.2byte	0x6970
200a8dd0:	736e                	.2byte	0x736e
200a8dd2:	6920                	.2byte	0x6920
200a8dd4:	696e                	.2byte	0x696e
200a8dd6:	6974                	.2byte	0x6974
200a8dd8:	6c61                	lui	s8,0x18
200a8dda:	7a69                	lui	s4,0xffffa
200a8ddc:	6465                	lui	s0,0x19
200a8dde:	000d                	c.nop	3
200a8de0:	6552                	.2byte	0x6552
200a8de2:	616c                	.2byte	0x616c
200a8de4:	2079                	jal	200a8e72 <_exit+0xf6>
200a8de6:	2031                	jal	200a8df2 <_exit+0x76>
200a8de8:	2046464f          	.4byte	0x2046464f
200a8dec:	5028                	lw	a0,96(s0)
200a8dee:	3345                	jal	200a8b8e <__trunctfdf2+0xfe>
200a8df0:	4820                	lw	s0,80(s0)
200a8df2:	4749                	li	a4,18
200a8df4:	2948                	lbu	a0,20(a0)
200a8df6:	000d                	c.nop	3
200a8df8:	6552                	.2byte	0x6552
200a8dfa:	616c                	.2byte	0x616c
200a8dfc:	2079                	jal	200a8e8a <_exit+0x10e>
200a8dfe:	2032                	lhu	a2,2(s0)
200a8e00:	2046464f          	.4byte	0x2046464f
200a8e04:	5028                	lw	a0,96(s0)
200a8e06:	3445                	jal	200a88a6 <_calloc_r+0x32>
200a8e08:	4820                	lw	s0,80(s0)
200a8e0a:	4749                	li	a4,18
200a8e0c:	2948                	lbu	a0,20(a0)
200a8e0e:	000d                	c.nop	3
200a8e10:	6552                	.2byte	0x6552
200a8e12:	616c                	.2byte	0x616c
200a8e14:	2079                	jal	200a8ea2 <_exit+0x126>
200a8e16:	464f2033          	.4byte	0x464f2033
200a8e1a:	2046                	lhu	s1,4(s0)
200a8e1c:	5028                	lw	a0,96(s0)
200a8e1e:	3545                	jal	200a8cbe <__trunctfdf2+0x22e>
200a8e20:	4820                	lw	s0,80(s0)
200a8e22:	4749                	li	a4,18
200a8e24:	2948                	lbu	a0,20(a0)
200a8e26:	000d                	c.nop	3
200a8e28:	6c41                	lui	s8,0x10
200a8e2a:	206c                	lbu	a1,6(s0)
200a8e2c:	6572                	.2byte	0x6572
200a8e2e:	616c                	.2byte	0x616c
200a8e30:	7379                	lui	t1,0xffffe
200a8e32:	4f20                	lw	s0,88(a4)
200a8e34:	4646                	lw	a2,80(sp)
200a8e36:	2820                	lbu	s0,18(s0)
200a8e38:	6946                	.2byte	0x6946
200a8e3a:	67207473          	csrrci	s0,0x672,0
200a8e3e:	7365                	lui	t1,0xffff9
200a8e40:	7574                	.2byte	0x7574
200a8e42:	6572                	.2byte	0x6572
200a8e44:	0d29                	addi	s10,s10,10
200a8e46:	0000                	unimp
200a8e48:	6c41                	lui	s8,0x10
200a8e4a:	206c                	lbu	a1,6(s0)
200a8e4c:	6572                	.2byte	0x6572
200a8e4e:	616c                	.2byte	0x616c
200a8e50:	7379                	lui	t1,0xffffe
200a8e52:	4f20                	lw	s0,88(a4)
200a8e54:	204e                	lhu	a1,4(s0)
200a8e56:	5028                	lw	a0,96(s0)
200a8e58:	6c61                	lui	s8,0x18
200a8e5a:	206d                	jal	200a8f04 <_exit+0x188>
200a8e5c:	74736567          	.4byte	0x74736567
200a8e60:	7275                	lui	tp,0xffffd
200a8e62:	2965                	jal	200a931a <ov2640_uxga_init_reg_tbl+0x96>
200a8e64:	000d                	c.nop	3
200a8e66:	0000                	unimp
200a8e68:	6552                	.2byte	0x6552
200a8e6a:	616c                	.2byte	0x616c
200a8e6c:	2079                	jal	200a8efa <_exit+0x17e>
200a8e6e:	2031                	jal	200a8e7a <_exit+0xfe>
200a8e70:	6f74                	.2byte	0x6f74
200a8e72:	656c6767          	.4byte	0x656c6767
200a8e76:	2064                	lbu	s1,6(s0)
200a8e78:	5328                	lw	a0,96(a4)
200a8e7a:	65706977          	.4byte	0x65706977
200a8e7e:	6c20                	.2byte	0x6c20
200a8e80:	6665                	lui	a2,0x19
200a8e82:	2974                	lbu	a3,22(a0)
200a8e84:	000d                	c.nop	3
200a8e86:	0000                	unimp
200a8e88:	6552                	.2byte	0x6552
200a8e8a:	616c                	.2byte	0x616c
200a8e8c:	2079                	jal	200a8f1a <_exit+0x19e>
200a8e8e:	2032                	lhu	a2,2(s0)
200a8e90:	6f74                	.2byte	0x6f74
200a8e92:	656c6767          	.4byte	0x656c6767
200a8e96:	2064                	lbu	s1,6(s0)
200a8e98:	5328                	lw	a0,96(a4)
200a8e9a:	65706977          	.4byte	0x65706977
200a8e9e:	7220                	.2byte	0x7220
200a8ea0:	6769                	lui	a4,0x1a
200a8ea2:	7468                	.2byte	0x7468
200a8ea4:	0d29                	addi	s10,s10,10
200a8ea6:	0000                	unimp
200a8ea8:	6552                	.2byte	0x6552
200a8eaa:	616c                	.2byte	0x616c
200a8eac:	2079                	jal	200a8f3a <_exit+0x1be>
200a8eae:	6f742033          	.4byte	0x6f742033
200a8eb2:	656c6767          	.4byte	0x656c6767
200a8eb6:	2064                	lbu	s1,6(s0)
200a8eb8:	5328                	lw	a0,96(a4)
200a8eba:	65706977          	.4byte	0x65706977
200a8ebe:	7520                	.2byte	0x7520
200a8ec0:	2970                	lbu	a2,22(a0)
200a8ec2:	000d                	c.nop	3
200a8ec4:	6c41                	lui	s8,0x10
200a8ec6:	206c                	lbu	a1,6(s0)
200a8ec8:	6572                	.2byte	0x6572
200a8eca:	616c                	.2byte	0x616c
200a8ecc:	7379                	lui	t1,0xffffe
200a8ece:	4f20                	lw	s0,88(a4)
200a8ed0:	4646                	lw	a2,80(sp)
200a8ed2:	2820                	lbu	s0,18(s0)
200a8ed4:	70697753          	.4byte	0x70697753
200a8ed8:	2065                	jal	200a8f80 <_exit+0x204>
200a8eda:	6f64                	.2byte	0x6f64
200a8edc:	0d296e77          	.4byte	0xd296e77
200a8ee0:	0000                	unimp
200a8ee2:	0000                	unimp
200a8ee4:	6552                	.2byte	0x6552
200a8ee6:	616c                	.2byte	0x616c
200a8ee8:	2079                	jal	200a8f76 <_exit+0x1fa>
200a8eea:	2031                	jal	200a8ef6 <_exit+0x17a>
200a8eec:	6e61                	lui	t3,0x18
200a8eee:	2064                	lbu	s1,6(s0)
200a8ef0:	2032                	lhu	a2,2(s0)
200a8ef2:	6f74                	.2byte	0x6f74
200a8ef4:	656c6767          	.4byte	0x656c6767
200a8ef8:	2064                	lbu	s1,6(s0)
200a8efa:	5028                	lw	a0,96(s0)
200a8efc:	6e69                	lui	t3,0x1a
200a8efe:	67206863          	bltu	zero,s2,200a956e <yuv_uxga+0x186>
200a8f02:	7365                	lui	t1,0xffff9
200a8f04:	7574                	.2byte	0x7574
200a8f06:	6572                	.2byte	0x6572
200a8f08:	0d29                	addi	s10,s10,10
200a8f0a:	0000                	unimp
200a8f0c:	6552                	.2byte	0x6552
200a8f0e:	616c                	.2byte	0x616c
200a8f10:	2079                	jal	200a8f9e <_exit+0x222>
200a8f12:	2032                	lhu	a2,2(s0)
200a8f14:	6e61                	lui	t3,0x18
200a8f16:	2064                	lbu	s1,6(s0)
200a8f18:	6f742033          	.4byte	0x6f742033
200a8f1c:	656c6767          	.4byte	0x656c6767
200a8f20:	2064                	lbu	s1,6(s0)
200a8f22:	4f28                	lw	a0,88(a4)
200a8f24:	6567204b          	.4byte	0x6567204b
200a8f28:	72757473          	csrrci	s0,0x727,10
200a8f2c:	2965                	jal	200a93e4 <ov2640_uxga_init_reg_tbl+0x160>
200a8f2e:	000d                	c.nop	3
200a8f30:	0444                	addi	s1,sp,516
200a8f32:	200a                	lhu	a0,0(s0)
200a8f34:	0456                	slli	s0,s0,0x15
200a8f36:	200a                	lhu	a0,0(s0)
200a8f38:	0464                	addi	s1,sp,524
200a8f3a:	200a                	lhu	a0,0(s0)
200a8f3c:	047e                	slli	s0,s0,0x1f
200a8f3e:	200a                	lhu	a0,0(s0)
200a8f40:	0498                	addi	a4,sp,576
200a8f42:	200a                	lhu	a0,0(s0)
200a8f44:	04b2                	slli	s1,s1,0xc
200a8f46:	200a                	lhu	a0,0(s0)
200a8f48:	04c0                	addi	s0,sp,580
200a8f4a:	200a                	lhu	a0,0(s0)
200a8f4c:	04e8                	addi	a0,sp,588
200a8f4e:	200a                	lhu	a0,0(s0)
200a8f50:	74736547          	.4byte	0x74736547
200a8f54:	7275                	lui	tp,0xffffd
200a8f56:	2065                	jal	200a8ffe <_exit+0x282>
200a8f58:	6f6d                	lui	t5,0x1b
200a8f5a:	6564                	.2byte	0x6564
200a8f5c:	206c                	lbu	a1,6(s0)
200a8f5e:	6f6c                	.2byte	0x6f6c
200a8f60:	6461                	lui	s0,0x18
200a8f62:	6465                	lui	s0,0x19
200a8f64:	202e                	lhu	a1,2(s0)
200a8f66:	657a6953          	.4byte	0x657a6953
200a8f6a:	203a                	lhu	a4,2(s0)
200a8f6c:	6425                	lui	s0,0x9
200a8f6e:	6220                	.2byte	0x6220
200a8f70:	7479                	lui	s0,0xffffe
200a8f72:	7365                	lui	t1,0xffff9
200a8f74:	0a0d                	addi	s4,s4,3 # ffffa003 <_eusrstack+0xdfefa003>
200a8f76:	0000                	unimp
200a8f78:	6f4d                	lui	t5,0x13
200a8f7a:	6564                	.2byte	0x6564
200a8f7c:	206c                	lbu	a1,6(s0)
200a8f7e:	6361                	lui	t1,0x18
200a8f80:	61727563          	bgeu	tp,s7,200a958a <yuv_uxga+0x1a2>
200a8f84:	203a7963          	bgeu	s4,gp,200a9196 <_exit+0x41a>
200a8f88:	3839                	jal	200a87a6 <__d2b+0xe>
200a8f8a:	362e                	lhu	a1,42(a2)
200a8f8c:	2539                	jal	200a959a <yuv_uxga+0x1b2>
200a8f8e:	0d25                	addi	s10,s10,9
200a8f90:	000a                	c.slli	zero,0x2
200a8f92:	0000                	unimp
200a8f94:	65746143          	.4byte	0x65746143
200a8f98:	69726f67          	.4byte	0x69726f67
200a8f9c:	7365                	lui	t1,0xffff9
200a8f9e:	203a                	lhu	a4,2(s0)
200a8fa0:	6966                	.2byte	0x6966
200a8fa2:	202c7473          	csrrci	s0,0x202,24
200a8fa6:	6170                	.2byte	0x6170
200a8fa8:	6d6c                	.2byte	0x6d6c
200a8faa:	202c                	lbu	a1,2(s0)
200a8fac:	70697773          	csrrci	a4,0x706,18
200a8fb0:	5f65                	li	t5,-7
200a8fb2:	656c                	.2byte	0x656c
200a8fb4:	7466                	.2byte	0x7466
200a8fb6:	202c                	lbu	a1,2(s0)
200a8fb8:	70697773          	csrrci	a4,0x706,18
200a8fbc:	5f65                	li	t5,-7
200a8fbe:	6972                	.2byte	0x6972
200a8fc0:	2c746867          	.4byte	0x2c746867
200a8fc4:	7320                	.2byte	0x7320
200a8fc6:	65706977          	.4byte	0x65706977
200a8fca:	755f 2c70 7320      	.byte	0x5f, 0x75, 0x70, 0x2c, 0x20, 0x73
200a8fd0:	65706977          	.4byte	0x65706977
200a8fd4:	645f 776f 2c6e      	.byte	0x5f, 0x64, 0x6f, 0x77, 0x6e, 0x2c
200a8fda:	7020                	.2byte	0x7020
200a8fdc:	6e69                	lui	t3,0x1a
200a8fde:	202c6863          	bltu	s8,sp,200a91ee <ov2640_JPEGframe_resolution_USB20+0x12>
200a8fe2:	202c6b6f          	jal	s6,2016f1e4 <_eusrstack+0x6f1e4>
200a8fe6:	6f6e                	.2byte	0x6f6e
200a8fe8:	656e                	.2byte	0x656e
200a8fea:	000d                	c.nop	3
200a8fec:	3556                	lhu	a3,44(a0)
200a8fee:	2046                	lhu	s1,4(s0)
200a8ff0:	74736547          	.4byte	0x74736547
200a8ff4:	7275                	lui	tp,0xffffd
200a8ff6:	2065                	jal	200a909e <_exit+0x322>
200a8ff8:	746e6f43          	.4byte	0x746e6f43
200a8ffc:	6f72                	.2byte	0x6f72
200a8ffe:	206c                	lbu	a1,6(s0)
200a9000:	6552                	.2byte	0x6552
200a9002:	616c                	.2byte	0x616c
200a9004:	2079                	jal	200a9092 <_exit+0x316>
200a9006:	74737953          	.4byte	0x74737953
200a900a:	6d65                	lui	s10,0x19
200a900c:	5320                	lw	s0,96(a4)
200a900e:	6174                	.2byte	0x6174
200a9010:	7472                	.2byte	0x7472
200a9012:	6465                	lui	s0,0x19
200a9014:	000d                	c.nop	3
200a9016:	0000                	unimp
200a9018:	74737953          	.4byte	0x74737953
200a901c:	6d65                	lui	s10,0x19
200a901e:	65726f43          	.4byte	0x65726f43
200a9022:	3a6b6c43          	.4byte	0x3a6b6c43
200a9026:	6425                	lui	s0,0x9
200a9028:	0a0d                	addi	s4,s4,3
200a902a:	0000                	unimp
200a902c:	6554                	.2byte	0x6554
200a902e:	6e697473          	csrrci	s0,0x6e6,18
200a9032:	65722067          	.4byte	0x65722067
200a9036:	616c                	.2byte	0x616c
200a9038:	2079                	jal	200a90c6 <_exit+0x34a>
200a903a:	7566                	.2byte	0x7566
200a903c:	636e                	.2byte	0x636e
200a903e:	6974                	.2byte	0x6974
200a9040:	6c616e6f          	jal	t3,200bf706 <_highcode_vma_end+0x1569e>
200a9044:	7469                	lui	s0,0xffffa
200a9046:	2e79                	jal	200a93e4 <ov2640_uxga_init_reg_tbl+0x160>
200a9048:	2e2e                	lhu	a1,26(a2)
200a904a:	000d                	c.nop	3
200a904c:	6552                	.2byte	0x6552
200a904e:	616c                	.2byte	0x616c
200a9050:	2079                	jal	200a90de <_exit+0x362>
200a9052:	6574                	.2byte	0x6574
200a9054:	63207473          	csrrci	s0,0x632,0
200a9058:	6c706d6f          	jal	s10,200aff1e <_highcode_vma_end+0x5eb6>
200a905c:	7465                	lui	s0,0xffff9
200a905e:	6465                	lui	s0,0x19
200a9060:	0d2e                	slli	s10,s10,0xb
200a9062:	0000                	unimp
200a9064:	3556                	lhu	a3,44(a0)
200a9066:	2046                	lhu	s1,4(s0)
200a9068:	74696177          	.4byte	0x74696177
200a906c:	6e69                	lui	t3,0x1a
200a906e:	6f662067          	.4byte	0x6f662067
200a9072:	2072                	lhu	a2,6(s0)
200a9074:	636e7973          	csrrci	s2,0x636,28
200a9078:	7268                	.2byte	0x7268
200a907a:	7a696e6f          	jal	t3,2013f820 <_eusrstack+0x3f820>
200a907e:	7461                	lui	s0,0xffff8
200a9080:	6f69                	lui	t5,0x1a
200a9082:	2e6e                	lhu	a1,30(a2)
200a9084:	2e2e                	lhu	a1,26(a2)
200a9086:	000d                	c.nop	3
200a9088:	3556                	lhu	a3,44(a0)
200a908a:	2046                	lhu	s1,4(s0)
200a908c:	636e7973          	csrrci	s2,0x636,28
200a9090:	7268                	.2byte	0x7268
200a9092:	7a696e6f          	jal	t3,2013f838 <_eusrstack+0x3f838>
200a9096:	7461                	lui	s0,0xffff8
200a9098:	6f69                	lui	t5,0x1a
200a909a:	206e                	lhu	a1,6(s0)
200a909c:	706d6f63          	bltu	s10,t1,200a97ba <SS_ConfigDescriptor+0x146>
200a90a0:	656c                	.2byte	0x656c
200a90a2:	6574                	.2byte	0x6574
200a90a4:	0d64                	addi	s1,sp,668
200a90a6:	0000                	unimp
200a90a8:	74736547          	.4byte	0x74736547
200a90ac:	7275                	lui	tp,0xffffd
200a90ae:	2065                	jal	200a9156 <_exit+0x3da>
200a90b0:	746e6f63          	bltu	t3,t1,200a980e <SS_ConfigDescriptor+0x19a>
200a90b4:	6f72                	.2byte	0x6f72
200a90b6:	206c                	lbu	a1,6(s0)
200a90b8:	6572                	.2byte	0x6572
200a90ba:	616c                	.2byte	0x616c
200a90bc:	2079                	jal	200a914a <_exit+0x3ce>
200a90be:	74737973          	csrrci	s2,0x747,6
200a90c2:	6d65                	lui	s10,0x19
200a90c4:	7220                	.2byte	0x7220
200a90c6:	6165                	addi	sp,sp,112
200a90c8:	7964                	.2byte	0x7964
200a90ca:	000d                	c.nop	3
200a90cc:	70707553          	.4byte	0x70707553
200a90d0:	6574726f          	jal	tp,200f0f26 <_ebss+0x8d7a>
200a90d4:	2064                	lbu	s1,6(s0)
200a90d6:	74736567          	.4byte	0x74736567
200a90da:	7275                	lui	tp,0xffffd
200a90dc:	7365                	lui	t1,0xffff9
200a90de:	203a                	lhu	a4,2(s0)
200a90e0:	6946                	.2byte	0x6946
200a90e2:	202c7473          	csrrci	s0,0x202,24
200a90e6:	6150                	.2byte	0x6150
200a90e8:	6d6c                	.2byte	0x6d6c
200a90ea:	202c                	lbu	a1,2(s0)
200a90ec:	70697753          	.4byte	0x70697753
200a90f0:	2065                	jal	200a9198 <_exit+0x41c>
200a90f2:	654c                	.2byte	0x654c
200a90f4:	7466                	.2byte	0x7466
200a90f6:	6769522f          	.4byte	0x6769522f
200a90fa:	7468                	.2byte	0x7468
200a90fc:	2f70552f          	.4byte	0x2f70552f
200a9100:	6f44                	.2byte	0x6f44
200a9102:	202c6e77          	.4byte	0x202c6e77
200a9106:	6950                	.2byte	0x6950
200a9108:	636e                	.2byte	0x636e
200a910a:	2c68                	lbu	a0,30(s0)
200a910c:	4f20                	lw	s0,88(a4)
200a910e:	00000d4b          	.4byte	0xd4b
200a9112:	0000                	unimp
200a9114:	74736547          	.4byte	0x74736547
200a9118:	7275                	lui	tp,0xffffd
200a911a:	2065                	jal	200a91c2 <ov2640_YUVframe_resolution_USB20+0xe>
200a911c:	6564                	.2byte	0x6564
200a911e:	6574                	.2byte	0x6574
200a9120:	64657463          	bgeu	a0,t1,200a9768 <SS_ConfigDescriptor+0xf4>
200a9124:	203a                	lhu	a4,2(s0)
200a9126:	6425                	lui	s0,0x9
200a9128:	202c                	lbu	a1,2(s0)
200a912a:	666e6f43          	.4byte	0x666e6f43
200a912e:	6469                	lui	s0,0x1a
200a9130:	6e65                	lui	t3,0x19
200a9132:	203a6563          	bltu	s4,gp,200a933c <ov2640_uxga_init_reg_tbl+0xb8>
200a9136:	2e25                	jal	200a946e <yuv_uxga+0x86>
200a9138:	6632                	.2byte	0x6632
200a913a:	0a0d                	addi	s4,s4,3
200a913c:	0000                	unimp
200a913e:	0000                	unimp
200a9140:	7250                	.2byte	0x7250
200a9142:	7365636f          	jal	t1,200ff878 <_heap_end+0x78>
200a9146:	676e6973          	csrrsi	s2,0x676,28
200a914a:	7320                	.2byte	0x7320
200a914c:	6168                	.2byte	0x6168
200a914e:	6572                	.2byte	0x6572
200a9150:	2064                	lbu	s1,6(s0)
200a9152:	74736567          	.4byte	0x74736567
200a9156:	7275                	lui	tp,0xffffd
200a9158:	3a65                	jal	200a8b10 <__trunctfdf2+0x80>
200a915a:	2520                	lbu	s0,10(a0)
200a915c:	2c64                	lbu	s1,30(s0)
200a915e:	4320                	lw	s0,64(a4)
200a9160:	69666e6f          	jal	t3,2010f7f6 <_eusrstack+0xf7f6>
200a9164:	6564                	.2byte	0x6564
200a9166:	636e                	.2byte	0x636e
200a9168:	3a65                	jal	200a8b20 <__trunctfdf2+0x90>
200a916a:	2520                	lbu	s0,10(a0)
200a916c:	322e                	lhu	a1,34(a2)
200a916e:	0d66                	slli	s10,s10,0x19
200a9170:	000a                	c.slli	zero,0x2
200a9172:	0000                	unimp
200a9174:	74737953          	.4byte	0x74737953
200a9178:	6d65                	lui	s10,0x19
200a917a:	7220                	.2byte	0x7220
200a917c:	6e75                	lui	t3,0x1d
200a917e:	696e                	.2byte	0x696e
200a9180:	676e                	.2byte	0x676e
200a9182:	2e2e                	lhu	a1,26(a2)
200a9184:	202e                	lhu	a1,2(s0)
200a9186:	614c                	.2byte	0x614c
200a9188:	67207473          	csrrci	s0,0x672,0
200a918c:	7365                	lui	t1,0xffff9
200a918e:	7574                	.2byte	0x7574
200a9190:	6572                	.2byte	0x6572
200a9192:	203a                	lhu	a4,2(s0)
200a9194:	6425                	lui	s0,0x9
200a9196:	202c                	lbu	a1,2(s0)
200a9198:	6552                	.2byte	0x6552
200a919a:	616c                	.2byte	0x616c
200a919c:	2079                	jal	200a922a <ov2640_JPEGframe_resolution_USB30+0x3a>
200a919e:	74617473          	csrrci	s0,0x746,2
200a91a2:	7365                	lui	t1,0xffff9
200a91a4:	203a                	lhu	a4,2(s0)
200a91a6:	2c64255b          	.4byte	0x2c64255b
200a91aa:	6425                	lui	s0,0x9
200a91ac:	252c                	lbu	a1,10(a0)
200a91ae:	5d64                	lw	s1,124(a0)
200a91b0:	0a0d                	addi	s4,s4,3
	...

200a91b4 <ov2640_YUVframe_resolution_USB20>:
200a91b4:	0280 01e0 0320 0258 00b0 0090 0140 00f0     .... .X.....@...
200a91c4:	0160 0120                                   `. .

200a91c8 <ov2640_YUVframe_resolution_USB30>:
200a91c8:	0280 01e0 0640 04b0 0500 03c0 0400 0300     ....@...........
200a91d8:	0160 0120                                   `. .

200a91dc <ov2640_JPEGframe_resolution_USB20>:
200a91dc:	0320 0258 0160 0120 0280 01e0 0400 0300      .X.`. .........
200a91ec:	0640 04b0                                   @...

200a91f0 <ov2640_JPEGframe_resolution_USB30>:
200a91f0:	0320 0258 0160 0120 0280 01e0 0400 0300      .X.`. .........
200a9200:	0640 04b0 18e6 200a 197e 200a 19b6 200a     @...... ~.. ... 
200a9210:	1928 200a 19e8 200a 1928 200a 1a1a 200a     (.. ... (.. ... 
200a9220:	1a4c 200a 1a5a 200a 1a66 200a 1a72 200a     L.. Z.. f.. r.. 
200a9230:	1a7e 200a 1a8a 200a 1a94 200a 1ad6 200a     ~.. ... ... ... 
200a9240:	1b6e 200a 1ba6 200a 1ae6 200a 1bd8 200a     n.. ... ... ... 
200a9250:	1ae6 200a 1c0a 200a 1c3c 200a 1c4a 200a     ... ... <.. J.. 
200a9260:	1c56 200a 1c62 200a 1c6e 200a 1c7a 200a     V.. b.. n.. z.. 
200a9270:	1c84 200a                                   ... 

200a9274 <ov2640_jpeg_reg_tbl>:
200a9274:	00ff 10da 03d7 00df 8033 403c 77e1 0000     ........3.<@.w..

200a9284 <ov2640_uxga_init_reg_tbl>:
200a9284:	00ff ff2c df2e 01ff 323c 0011 0209 d804     ..,.....<2......
200a9294:	e513 4814 0c2c 7833 333a fb3b 003e 1143     ...H,.3x:3;.>.C.
200a92a4:	1016 9239 da35 1a22 c337 0023 c034 1a36     ..9.5.".7.#.4.6.
200a92b4:	8806 c007 870d 410e 004c 0048 005b 0342     .......AL.H.[.B.
200a92c4:	814a 9921 4024 3825 8226 005c 0063 0046     J.!.$@%8&.\.c.F.
200a92d4:	3c0c 7061 8062 057c 8020 3028 006c 806d     .<apb.|. .(0l.m.
200a92e4:	006e 0270 9471 c173 343d 575a 0012 1117     n.p.q.s.=4ZW....
200a92f4:	7518 0119 971a 3632 0f03 4037 ca4f a850     .u....26..7@O.P.
200a9304:	235a 006d 386d 00ff 7fe5 c0f9 2441 14e0     Z#m.m8......A$..
200a9314:	ff76 a033 2042 1843 004c d587 3f88 03d7     v.3.B C.L....?..
200a9324:	10d9 82d3 08c8 80c9 007c 007d 037c 487d     ........|.}.|.}H
200a9334:	487d 087c 207d 107d 0e7d 0090 0e91 1a91     }H|.} }.}.......
200a9344:	3191 5a91 6991 7591 7e91 8891 8f91 9691     .1.Z.i.u.~......
200a9354:	a391 af91 c491 d791 e891 2091 0092 0693     ........... ....
200a9364:	e393 0593 0593 0093 0493 0093 0093 0093     ................
200a9374:	0093 0093 0093 0093 0096 0897 1997 0297     ................
200a9384:	0c97 2497 3097 2897 2697 0297 9897 8097     ...$.0.(.&......
200a9394:	0097 0097 efc3 00a4 00a8 11c5 51c6 80bf     .............Q..
200a93a4:	10c7 66b6 a5b8 64b7 7cb9 afb3 97b4 ffb5     ...f...d.|......
200a93b4:	c5b0 94b1 0fb2 5cc4 c8c0 96c1 008c 3d86     .......\.......=
200a93c4:	0050 9051 2c52 0053 0054 8855 905a 2c5b     P.Q.R,S.T.U.Z.[,
200a93d4:	055c 02d3 edc3 007f 09da 1fe5 67e1 00e0     \............g..
200a93e4:	7fdd 0005                                   ....

200a93e8 <yuv_uxga>:
200a93e8:	00ff ff2c df2e 01ff 323c 0011 0209 d804     ..,.....<2......
200a93f8:	e513 4814 0c2c 7833 333a fb3b 003e 1143     ...H,.3x:3;.>.C.
200a9408:	1016 8239 8835 0a22 4037 0023 a034 1a36     ..9.5.".7@#.4.6.
200a9418:	0206 c007 b70d 010e 004c 4a60 6081 9921     ........L.`J.`!.
200a9428:	4024 3825 8226 005c 0063 3f46 3c0c 7061     $@%8&.\.c.F?.<ap
200a9438:	8062 057c 8020 3028 006c 806d 006e 0270     b.|. .(0l.m.n.p.
200a9448:	9471 c173 343d 575a bb4f 9c50 00ff 7fe5     q.s.=4ZWO.P.....
200a9458:	c0f9 2441 14e0 ff76 a033 2042 1843 004c     ..A$..v.3.B C.L.
200a9468:	d087 3f88 03d7 10d9 82d3 08c8 80c9 007c     ...?..........|.
200a9478:	007d 037c 487d 487d 087c 207d 107d 0e7d     }.|.}H}H|.} }.}.
200a9488:	0090 0e91 1a91 3191 5a91 6991 7591 7e91     .......1.Z.i.u.~
200a9498:	8891 8f91 9691 a391 af91 c491 d791 e891     ................
200a94a8:	2091 0092 0693 e393 0593 0593 0093 0493     . ..............
200a94b8:	0093 0093 0093 0093 0093 0093 0093 0096     ................
200a94c8:	0897 1997 0297 0c97 2497 3097 2897 2697     .........$.0.(.&
200a94d8:	0297 9897 8097 0097 0097 edc3 00a4 00a8     ................
200a94e8:	11c5 51c6 80bf 10c7 66b6 a5b8 64b7 7cb9     ...Q.....f...d.|
200a94f8:	afb3 97b4 ffb5 c5b0 94b1 0fb2 5cc4 c8c0     .............\..
200a9508:	96c1 3d86 0050 9051 2c52 0053 0054 8855     ...=P.Q.R,S.T.U.
200a9518:	0057 905a 2c5b 055c edc3 007f 00da 1fe5     W.Z.[,\.........
200a9528:	67e1 00e0 7fdd 0005 2796 200a 2560 200a     .g.......'. `%. 
200a9538:	2338 200a 2612 200a 2338 200a 250e 200a     8#. .&. 8#. .%. 
200a9548:	2366 200a 2338 200a 2520 200a 253a 200a     f#. 8#.  %. :%. 
200a9558:	278a 200a 2790 200a 238c 200a 239c 200a     .'. .'. .#. .#. 
200a9568:	2436 200a 245e 200a 245e 200a 2484 200a     6$. ^$. ^$. .$. 
200a9578:	248e 200a 3652 200a 357e 200a 3356 200a     .$. R6. ~5. V3. 
200a9588:	35ea 200a 33ba 200a 34d2 200a 33d0 200a     .5. .3. .4. .3. 
200a9598:	33ba 200a 34e2 200a 350a 200a 364c 200a     .3. .4. .5. L6. 
200a95a8:	3636 200a 33f6 200a 3406 200a 341c 200a     66. .3. .4. .4. 
200a95b8:	348e 200a 348e 200a 34be 200a 348e 200a     .4. .4. .4. .4. 
200a95c8:	348e 200a 348e 200a 348e 200a 348e 200a     .4. .4. .4. .4. 
200a95d8:	348e 200a 348e 200a 348e 200a 34c8 200a     .4. .4. .4. .4. 

200a95e8 <MyBOSDesc_SS>:
200a95e8:	0f05 0016 0702 0210 0006 0000 100a 0003     ................
200a95f8:	000e 0a01 07ff 0000                         ........

200a9600 <OSStringDescriptor>:
200a9600:	0312 004d 0053 0046 0054 0031 0030 0030     ..M.S.F.T.1.0.0.
200a9610:	0001 0000                                   ....

200a9614 <MySerNumInfo>:
200a9614:	0316 0030 0031 0032 0033 0034 0035 0036     ..0.1.2.3.4.5.6.
200a9624:	0037 0038 0039 0000                         7.8.9...

200a962c <MyProdInfo>:
200a962c:	032a 0043 0048 0033 0032 0048 0034 0031     *.C.H.3.2.H.4.1.
200a963c:	0037 005f 0043 0061 006d 0065 0072 0061     7._.C.a.m.e.r.a.

200a964c <MyManuInfo>:
200a964c:	0326 0057 0043 0048 0049 0043 0072 006f     &.W.C.H.I.C.r.o.
200a965c:	0065 006c 0065 0063 0074 0072 006f 006e     e.l.e.c.t.r.o.n.
200a966c:	0069 0063 0073 0000                         i.c.s...

200a9674 <SS_ConfigDescriptor>:
200a9674:	0209 01f2 0102 a000 084b 000b 0e02 0003     ........K.......
200a9684:	0908 0004 0000 010e 0800 240d 0001 4d01     ...........$...M
200a9694:	0000 270e 0107 1201 0224 0101 0002 0000     ...'....$.......
200a96a4:	0000 0000 0300 0000 0b00 0524 0103 0000     ..........$.....
200a96b4:	0002 0000 2409 0203 0101 0400 1a00 0624     .....$........$.
200a96c4:	5b04 6d12 80c6 4404 8c08 b826 3a36 de84     .[.m...D..&.6:..
200a96d4:	0363 0301 0701 0900 0104 0000 020e 0000     c...............
200a96e4:	240e 0101 016c 0081 0002 0000 0001 240b     .$..l..........$
200a96f4:	0106 0105 0001 0000 1e00 0724 0001 0320     ..........$... .
200a9704:	0258 a000 0dbb a000 0dbb a600 000e 2c2a     X.............*,
200a9714:	000a 2a01 0a2c 1e00 0724 0002 0160 0120     ...*,...$...`. .
200a9724:	8000 02e6 8000 02e6 1800 0003 2c2a 000a     ............*,..
200a9734:	2a01 0a2c 1e00 0724 0003 0280 01e0 0000     .*,...$.........
200a9744:	08ca 0000 08ca 6000 0009 2c2a 000a 2a01     .......`..*,...*
200a9754:	0a2c 1e00 0724 0004 0400 0300 0000 1680     ,...$...........
200a9764:	0000 1680 0000 0018 2c2a 000a 2a01 0a2c     ........*,...*,.
200a9774:	1e00 0724 0005 0640 04b0 8000 36ee 8000     ..$...@......6..
200a9784:	36ee 9800 003a 2c2a 000a 2a01 0a2c 0600     .6..:.*,...*,...
200a9794:	0d24 0101 1b04 0424 0502 5559 3259 0000     $.....$...YUY2..
200a97a4:	0010 0080 aa00 3800 719b 0110 0000 0000     .......8.q......
200a97b4:	241e 0105 8000 e002 0001 ca00 0008 ca00     .$..............
200a97c4:	0008 0960 2a00 0a2c 0100 2c2a 000a 241e     ..`..*,...*,...$
200a97d4:	0205 4000 b006 0004 ee80 0036 ee80 0036     ...@......6...6.
200a97e4:	3a98 2a00 0a2c 0100 2c2a 000a 241e 0305     .:.*,...*,...$..
200a97f4:	0000 c005 0003 28a0 0023 28a0 0023 2580     .......(#..(#..%
200a9804:	2a00 0a2c 0100 2c2a 000a 241e 0405 0000     .*,...*,...$....
200a9814:	0004 0003 8000 0016 8000 0016 1800 2a00     ...............*
200a9824:	0a2c 0100 2c2a 000a 241e 0505 6000 2001     ,...*,...$...`. 
200a9834:	0001 e680 0002 e680 0002 0318 2a00 0a2c     .............*,.
200a9844:	0100 2c2a 000a 2406 010d 0401 0409 0101     ..*,...$........
200a9854:	0e01 0002 0700 8105 0005 0104 3006 000b     .............0..
200a9864:	8000 0000                                   ....

200a9868 <SS_DeviceDescriptor>:
200a9868:	0112 0300 02ef 0901 1a86 fe1c 0001 0201     ................
200a9878:	0103 0000                                   ....

200a987c <MyQuaDesc>:
200a987c:	060a 0200 ffff 40ff 0001 0000               .......@....

200a9888 <MyCfgDescr_FS>:
200a9888:	0209 003c 0101 8000 0932 0004 0600 ffff     ..<.....2.......
200a9898:	00ff 0507 0201 0040 0700 8105 4002 0000     ......@......@..
200a98a8:	0507 0203 0040 0700 8405 4002 0000 0507     ....@......@....
200a98b8:	0205 0040 0700 8605 4002 0000               ..@......@..

200a98c4 <MyCfgDescr_HS>:
200a98c4:	0209 01ec 0102 a000 084b 000b 0e02 0003     ........K.......
200a98d4:	0908 0004 0000 010e 0800 240d 0001 4d01     ...........$...M
200a98e4:	0000 270e 0107 1201 0224 0101 0002 0000     ...'....$.......
200a98f4:	0000 0000 0300 0000 0b00 0524 0103 0000     ..........$.....
200a9904:	0002 0000 2409 0203 0101 0400 1a00 0624     .....$........$.
200a9914:	5b04 6d12 80c6 4404 8c08 b826 3a36 de84     .[.m...D..&.6:..
200a9924:	0363 0301 0701 0900 0104 0000 020e 0000     c...............
200a9934:	240e 0101 016c 0081 0002 0000 0001 240b     .$..l..........$
200a9944:	0106 0105 0001 0000 1e00 0724 0001 0320     ..........$... .
200a9954:	0258 a000 0dbb a000 0dbb a600 000e 2c2a     X.............*,
200a9964:	000a 2a01 0a2c 1e00 0724 0002 0160 0120     ...*,...$...`. .
200a9974:	8000 02e6 8000 02e6 1800 0003 2c2a 000a     ............*,..
200a9984:	2a01 0a2c 1e00 0724 0003 0280 01e0 0000     .*,...$.........
200a9994:	08ca 0000 08ca 6000 0009 2c2a 000a 2a01     .......`..*,...*
200a99a4:	0a2c 1e00 0724 0004 0400 0300 0000 1680     ,...$...........
200a99b4:	0000 1680 0000 0018 2c2a 000a 2a01 0a2c     ........*,...*,.
200a99c4:	1e00 0724 0005 0640 04b0 8000 36ee 8000     ..$...@......6..
200a99d4:	36ee 9800 003a 2c2a 000a 2a01 0a2c 0600     .6..:.*,...*,...
200a99e4:	0d24 0101 1b04 0424 0502 5559 3259 0000     $.....$...YUY2..
200a99f4:	0010 0080 aa00 3800 719b 0110 0000 0000     .......8.q......
200a9a04:	241e 0105 8000 e002 0001 ca00 0008 ca00     .$..............
200a9a14:	0008 0960 2a00 0a2c 0100 2c2a 000a 241e     ..`..*,...*,...$
200a9a24:	0205 2000 5803 0002 bba0 000d bba0 000d     ... .X..........
200a9a34:	0ea6 2a00 0a2c 0100 2c2a 000a 241e 0305     ...*,...*,...$..
200a9a44:	b000 9000 0000 b9a0 0000 b9a0 0000 00c6     ................
200a9a54:	2a00 0a2c 0100 2c2a 000a 241e 0405 4000     .*,...*,...$...@
200a9a64:	f001 0000 3280 0002 3280 0002 0258 2a00     .....2...2..X..*
200a9a74:	0a2c 0100 2c2a 000a 241e 0505 6000 2001     ,...*,...$...`. 
200a9a84:	0001 e680 0002 e680 0002 0318 2a00 0a2c     .............*,.
200a9a94:	0100 2c2a 000a 2406 010d 0401 0409 0101     ..*,...$........
200a9aa4:	0e01 0002 0700 8105 0005 0114               ............

200a9ab0 <MyDevDescr>:
200a9ab0:	0112 0200 02ef 4001 1a86 fe1c 0001 0201     .......@........
200a9ac0:	0103 0000 aa98 ffff a958 ffff a93c ffff     ........X...<...
200a9ad0:	aa0e ffff a93c ffff a962 ffff a93c ffff     ....<...b...<...
200a9ae0:	aa0e ffff a958 ffff a958 ffff a962 ffff     ....X...X...b...
200a9af0:	aa0e ffff aa64 ffff aa64 ffff aa64 ffff     ....d...d...d...
200a9b00:	a962 ffff                                   b...

200a9b04 <__clz_tab>:
200a9b04:	0100 0202 0303 0303 0404 0404 0404 0404     ................
200a9b14:	0505 0505 0505 0505 0505 0505 0505 0505     ................
200a9b24:	0606 0606 0606 0606 0606 0606 0606 0606     ................
200a9b34:	0606 0606 0606 0606 0606 0606 0606 0606     ................
200a9b44:	0707 0707 0707 0707 0707 0707 0707 0707     ................
200a9b54:	0707 0707 0707 0707 0707 0707 0707 0707     ................
200a9b64:	0707 0707 0707 0707 0707 0707 0707 0707     ................
200a9b74:	0707 0707 0707 0707 0707 0707 0707 0707     ................
200a9b84:	0808 0808 0808 0808 0808 0808 0808 0808     ................
200a9b94:	0808 0808 0808 0808 0808 0808 0808 0808     ................
200a9ba4:	0808 0808 0808 0808 0808 0808 0808 0808     ................
200a9bb4:	0808 0808 0808 0808 0808 0808 0808 0808     ................
200a9bc4:	0808 0808 0808 0808 0808 0808 0808 0808     ................
200a9bd4:	0808 0808 0808 0808 0808 0808 0808 0808     ................
200a9be4:	0808 0808 0808 0808 0808 0808 0808 0808     ................
200a9bf4:	0808 0808 0808 0808 0808 0808 0808 0808     ................
200a9c04:	202c 7566 636e 6974 6e6f 203a 0000 0000     , function: ....
200a9c14:	7361 6573 7472 6f69 206e 2522 2273 6620     assertion "%s" f
200a9c24:	6961 656c 3a64 6620 6c69 2065 2522 2273     ailed: file "%s"
200a9c34:	202c 696c 656e 2520 2564 2573 0a73 0000     , line %d%s%s...
200a9c44:	4e49 0046 6e69 0066 414e 004e 616e 006e     INF.inf.NAN.nan.
200a9c54:	0030 0000 3130 3332 3534 3736 3938 4241     0...0123456789AB
200a9c64:	4443 4645 0000 0000 3130 3332 3534 3736     CDEF....01234567
200a9c74:	3938 6261 6463 6665 0000 0000 c76a ffff     89abcdef....j...
200a9c84:	c780 ffff c740 ffff c740 ffff c740 ffff     ....@...@...@...
200a9c94:	c740 ffff c780 ffff c740 ffff c740 ffff     @.......@...@...
200a9ca4:	c740 ffff c740 ffff c8de ffff c7e4 ffff     @...@...........
200a9cb4:	c878 ffff c740 ffff c740 ffff c90c ffff     x...@...@.......
200a9cc4:	c740 ffff c7e4 ffff c740 ffff c740 ffff     @.......@...@...
200a9cd4:	c880 ffff 2d23 2b30 0020 0000 6c68 004c     ....#-0+ ...hlL.
200a9ce4:	6665 4567 4746 0000                         efgEFG..

200a9cec <_ctype_>:
200a9cec:	2000 2020 2020 2020 2020 2828 2828 2028     .         ((((( 
200a9cfc:	2020 2020 2020 2020 2020 2020 2020 2020                     
200a9d0c:	8820 1010 1010 1010 1010 1010 1010 1010      ...............
200a9d1c:	0410 0404 0404 0404 0404 1004 1010 1010     ................
200a9d2c:	1010 4141 4141 4141 0101 0101 0101 0101     ..AAAAAA........
200a9d3c:	0101 0101 0101 0101 0101 0101 1010 1010     ................
200a9d4c:	1010 4242 4242 4242 0202 0202 0202 0202     ..BBBBBB........
200a9d5c:	0202 0202 0202 0202 0202 0202 1010 1010     ................
200a9d6c:	0020 0000 0000 0000 0000 0000 0000 0000      ...............
	...
200a9df0:	6e49 6966 696e 7974 0000 0000 614e 004e     Infinity....NaN.
200a9e00:	6142 6c6c 636f 7320 6375 6563 6465 6465     Balloc succeeded
200a9e10:	0000 0000 482f 736f 2f74 6f68 656d 772f     ..../Host/home/w
200a9e20:	6863 572f 726f 2f6b 6972 6373 2d76 6377     ch/Work/riscv-wc
200a9e30:	2d68 6c65 2d66 6367 2d63 3231 322e 302e     h-elf-gcc-12.2.0
200a9e40:	312d 6c2f 6e69 7875 692d 3361 2f32 6f73     -1/linux-ia32/so
200a9e50:	7275 6563 2f73 656e 6c77 6269 342d 322e     urces/newlib-4.2
200a9e60:	302e 322e 3230 3131 3332 2f31 656e 6c77     .0.20211231/newl
200a9e70:	6269 6c2f 6269 2f63 7473 6c64 6269 642f     ib/libc/stdlib/d
200a9e80:	6f74 2e61 0063 0000                         toa.c...

200a9e88 <__sf_fake_stderr>:
	...

200a9ea8 <__sf_fake_stdout>:
	...

200a9ec8 <__sf_fake_stdin>:
	...
200a9ee8:	0043 0000 4f50 4953 0058 0000 002e 0000     C...POSIX.......
200a9ef8:	482f 736f 2f74 6f68 656d 772f 6863 572f     /Host/home/wch/W
200a9f08:	726f 2f6b 6972 6373 2d76 6377 2d68 6c65     ork/riscv-wch-el
200a9f18:	2d66 6367 2d63 3231 322e 302e 312d 6c2f     f-gcc-12.2.0-1/l
200a9f28:	6e69 7875 692d 3361 2f32 6f73 7275 6563     inux-ia32/source
200a9f38:	2f73 656e 6c77 6269 342d 322e 302e 322e     s/newlib-4.2.0.2
200a9f48:	3230 3131 3332 2f31 656e 6c77 6269 6c2f     0211231/newlib/l
200a9f58:	6269 2f63 7473 6c64 6269 6d2f 7270 6365     ibc/stdlib/mprec
200a9f68:	632e 0000                                   .c..

200a9f6c <p05.0>:
200a9f6c:	0005 0000 0019 0000 007d 0000               ........}...

200a9f78 <__mprec_bigtens>:
200a9f78:	8000 37e0 c379 4341 6e17 b505 b8b5 4693     ...7y.AC.n.....F
200a9f88:	f9f5 e93f 4f03 4d38 1d32 f930 7748 5a82     ..?..O8M2.0.Hw.Z
200a9f98:	bf3c 7f73 4fdd 7515                         <.s..O.u

200a9fa0 <__mprec_tens>:
200a9fa0:	0000 0000 0000 3ff0 0000 0000 0000 4024     .......?......$@
200a9fb0:	0000 0000 0000 4059 0000 0000 4000 408f     ......Y@.....@.@
200a9fc0:	0000 0000 8800 40c3 0000 0000 6a00 40f8     .......@.....j.@
200a9fd0:	0000 0000 8480 412e 0000 0000 12d0 4163     .......A......cA
200a9fe0:	0000 0000 d784 4197 0000 0000 cd65 41cd     .......A....e..A
200a9ff0:	0000 2000 a05f 4202 0000 e800 4876 4237     ... _..B....vH7B
200aa000:	0000 a200 1a94 426d 0000 e540 309c 42a2     ......mB..@..0.B
200aa010:	0000 1e90 bcc4 42d6 0000 2634 6bf5 430c     .......B..4&.k.C
200aa020:	8000 37e0 c379 4341 a000 85d8 3457 4376     ...7y.AC....W4vC
200aa030:	c800 674e c16d 43ab 3d00 6091 58e4 43e1     ..Ngm..C.=.`.X.C
200aa040:	8c40 78b5 af1d 4415 ef50 d6e2 1ae4 444b     @..x...DP.....KD
200aa050:	d592 064d f0cf 4480 4af6 c7e1 2d02 44b5     ..M....D.J...-.D
200aa060:	9db4 79d9 7843 44ea                         ...yCx.D

Disassembly of section .text:

0003a154 <handle_reset>:
   3a154:	20088197          	auipc	gp,0x20088
   3a158:	2a418193          	addi	gp,gp,676 # 200c23f8 <__global_pointer$>
   3a15c:	200c6117          	auipc	sp,0x200c6
   3a160:	ea410113          	addi	sp,sp,-348 # 20100000 <_eusrstack>
   3a164:	400226b7          	lui	a3,0x40022
   3a168:	4298                	lw	a4,0(a3)
   3a16a:	478d                	li	a5,3
   3a16c:	8fd9                	or	a5,a5,a4
   3a16e:	c29c                	sw	a5,0(a3)
   3a170:	ffff6517          	auipc	a0,0xffff6
   3a174:	e9850513          	addi	a0,a0,-360 # 30008 <_einit>
   3a178:	20086597          	auipc	a1,0x20086
   3a17c:	08858593          	addi	a1,a1,136 # 200c0200 <_loadcode_vma_start>
   3a180:	20086617          	auipc	a2,0x20086
   3a184:	16460613          	addi	a2,a2,356 # 200c02e4 <_loadcode_vma_end>
   3a188:	00c5fa63          	bgeu	a1,a2,3a19c <handle_reset+0x48>
   3a18c:	00052283          	lw	t0,0(a0)
   3a190:	0055a023          	sw	t0,0(a1)
   3a194:	0511                	addi	a0,a0,4
   3a196:	0591                	addi	a1,a1,4
   3a198:	fec5eae3          	bltu	a1,a2,3a18c <handle_reset+0x38>
   3a19c:	c298                	sw	a4,0(a3)
   3a19e:	20086097          	auipc	ra,0x20086
   3a1a2:	062080e7          	jalr	98(ra) # 200c0200 <_loadcode_vma_start>
	...
